
boot.riscv:     file format elf64-littleriscv


Disassembly of section .text:

0000000040000000 <_start>:
    40000000:	00000297          	auipc	t0,0x0
    40000004:	09c28293          	addi	t0,t0,156 # 4000009c <trap_entry>
    40000008:	30529073          	csrw	mtvec,t0
    4000000c:	4081                	li	ra,0
    4000000e:	4101                	li	sp,0
    40000010:	4181                	li	gp,0
    40000012:	4201                	li	tp,0
    40000014:	4281                	li	t0,0
    40000016:	4301                	li	t1,0
    40000018:	4381                	li	t2,0
    4000001a:	4401                	li	s0,0
    4000001c:	4481                	li	s1,0
    4000001e:	4501                	li	a0,0
    40000020:	4581                	li	a1,0
    40000022:	4601                	li	a2,0
    40000024:	4681                	li	a3,0
    40000026:	4701                	li	a4,0
    40000028:	4781                	li	a5,0
    4000002a:	4801                	li	a6,0
    4000002c:	4881                	li	a7,0
    4000002e:	4901                	li	s2,0
    40000030:	4981                	li	s3,0
    40000032:	4a01                	li	s4,0
    40000034:	4a81                	li	s5,0
    40000036:	4b01                	li	s6,0
    40000038:	4b81                	li	s7,0
    4000003a:	4c01                	li	s8,0
    4000003c:	4c81                	li	s9,0
    4000003e:	4d01                	li	s10,0
    40000040:	4d81                	li	s11,0
    40000042:	4e01                	li	t3,0
    40000044:	4e81                	li	t4,0
    40000046:	4f01                	li	t5,0
    40000048:	4f81                	li	t6,0
    4000004a:	6299                	lui	t0,0x6
    4000004c:	3002a073          	csrs	mstatus,t0
    40000050:	62e1                	lui	t0,0x18
    40000052:	3002a073          	csrs	mstatus,t0
    40000056:	300022f3          	csrr	t0,mstatus
    4000005a:	6361                	lui	t1,0x18
    4000005c:	0062f333          	and	t1,t0,t1
    40000060:	00007397          	auipc	t2,0x7
    40000064:	f663a423          	sw	t1,-152(t2) # 40006fc8 <have_vec>
    40000068:	6319                	lui	t1,0x6
    4000006a:	0062f333          	and	t1,t0,t1
    4000006e:	00030263          	beqz	t1,40000072 <_start+0x72>
    40000072:	00007197          	auipc	gp,0x7
    40000076:	69e18193          	addi	gp,gp,1694 # 40007710 <_gp>
    4000007a:	00008217          	auipc	tp,0x8
    4000007e:	52d20213          	addi	tp,tp,1325 # 400085a7 <_end+0x3f>
    40000082:	fc027213          	andi	tp,tp,-64
    40000086:	f1402573          	csrr	a0,mhartid
    4000008a:	4585                	li	a1,1
    4000008c:	00b57063          	bleu	a1,a0,4000008c <_start+0x8c>
    40000090:	400105b7          	lui	a1,0x40010
    40000094:	ff858113          	addi	sp,a1,-8 # 4000fff8 <_end+0x7a90>
    40000098:	3ea0006f          	j	40000482 <_init>

000000004000009c <trap_entry>:
    4000009c:	716d                	addi	sp,sp,-272
    4000009e:	c002                	sw	zero,0(sp)
    400000a0:	c206                	sw	ra,4(sp)
    400000a2:	c40a                	sw	sp,8(sp)
    400000a4:	c60e                	sw	gp,12(sp)
    400000a6:	c812                	sw	tp,16(sp)
    400000a8:	ca16                	sw	t0,20(sp)
    400000aa:	cc1a                	sw	t1,24(sp)
    400000ac:	ce1e                	sw	t2,28(sp)
    400000ae:	d022                	sw	s0,32(sp)
    400000b0:	d226                	sw	s1,36(sp)
    400000b2:	d42a                	sw	a0,40(sp)
    400000b4:	d62e                	sw	a1,44(sp)
    400000b6:	d832                	sw	a2,48(sp)
    400000b8:	da36                	sw	a3,52(sp)
    400000ba:	dc3a                	sw	a4,56(sp)
    400000bc:	de3e                	sw	a5,60(sp)
    400000be:	c0c2                	sw	a6,64(sp)
    400000c0:	c2c6                	sw	a7,68(sp)
    400000c2:	c4ca                	sw	s2,72(sp)
    400000c4:	c6ce                	sw	s3,76(sp)
    400000c6:	c8d2                	sw	s4,80(sp)
    400000c8:	cad6                	sw	s5,84(sp)
    400000ca:	ccda                	sw	s6,88(sp)
    400000cc:	cede                	sw	s7,92(sp)
    400000ce:	d0e2                	sw	s8,96(sp)
    400000d0:	d2e6                	sw	s9,100(sp)
    400000d2:	d4ea                	sw	s10,104(sp)
    400000d4:	d6ee                	sw	s11,108(sp)
    400000d6:	d8f2                	sw	t3,112(sp)
    400000d8:	daf6                	sw	t4,116(sp)
    400000da:	dcfa                	sw	t5,120(sp)
    400000dc:	defe                	sw	t6,124(sp)
    400000de:	34202573          	csrr	a0,mcause
    400000e2:	341025f3          	csrr	a1,mepc
    400000e6:	860a                	mv	a2,sp
    400000e8:	00055563          	bgez	a0,400000f2 <trap_entry+0x56>
    400000ec:	1ba000ef          	jal	ra,400002a6 <handle_interrupt>
    400000f0:	a029                	j	400000fa <trap_entry+0x5e>
    400000f2:	1ca000ef          	jal	ra,400002bc <handle_trap>
    400000f6:	34151073          	csrw	mepc,a0
    400000fa:	000022b7          	lui	t0,0x2
    400000fe:	8002829b          	addiw	t0,t0,-2048
    40000102:	3002a073          	csrs	mstatus,t0
    40000106:	4092                	lw	ra,4(sp)
    40000108:	4122                	lw	sp,8(sp)
    4000010a:	41b2                	lw	gp,12(sp)
    4000010c:	4242                	lw	tp,16(sp)
    4000010e:	42d2                	lw	t0,20(sp)
    40000110:	4362                	lw	t1,24(sp)
    40000112:	43f2                	lw	t2,28(sp)
    40000114:	5402                	lw	s0,32(sp)
    40000116:	5492                	lw	s1,36(sp)
    40000118:	5522                	lw	a0,40(sp)
    4000011a:	55b2                	lw	a1,44(sp)
    4000011c:	5642                	lw	a2,48(sp)
    4000011e:	56d2                	lw	a3,52(sp)
    40000120:	5762                	lw	a4,56(sp)
    40000122:	57f2                	lw	a5,60(sp)
    40000124:	4806                	lw	a6,64(sp)
    40000126:	4896                	lw	a7,68(sp)
    40000128:	4926                	lw	s2,72(sp)
    4000012a:	49b6                	lw	s3,76(sp)
    4000012c:	4a46                	lw	s4,80(sp)
    4000012e:	4ad6                	lw	s5,84(sp)
    40000130:	4b66                	lw	s6,88(sp)
    40000132:	4bf6                	lw	s7,92(sp)
    40000134:	5c06                	lw	s8,96(sp)
    40000136:	5c96                	lw	s9,100(sp)
    40000138:	5d26                	lw	s10,104(sp)
    4000013a:	5db6                	lw	s11,108(sp)
    4000013c:	5e46                	lw	t3,112(sp)
    4000013e:	5ed6                	lw	t4,116(sp)
    40000140:	5f66                	lw	t5,120(sp)
    40000142:	5ff6                	lw	t6,124(sp)
    40000144:	6151                	addi	sp,sp,272
    40000146:	30200073          	mret

000000004000014a <external_interrupt>:
    4000014a:	8082                	ret

000000004000014c <get_tbclk>:
    4000014c:	000f4537          	lui	a0,0xf4
    40000150:	24050513          	addi	a0,a0,576 # f4240 <_tbss_end+0xf4240>
    40000154:	8082                	ret

0000000040000156 <env_get>:
    40000156:	4501                	li	a0,0
    40000158:	8082                	ret

000000004000015a <malloc>:
    4000015a:	00007717          	auipc	a4,0x7
    4000015e:	e1e70713          	addi	a4,a4,-482 # 40006f78 <rused.3369>
    40000162:	631c                	ld	a5,0(a4)
    40000164:	157d                	addi	a0,a0,-1
    40000166:	00756513          	ori	a0,a0,7
    4000016a:	00178693          	addi	a3,a5,1
    4000016e:	9536                	add	a0,a0,a3
    40000170:	e308                	sd	a0,0(a4)
    40000172:	10d00513          	li	a0,269
    40000176:	055e                	slli	a0,a0,0x17
    40000178:	953e                	add	a0,a0,a5
    4000017a:	8082                	ret

000000004000017c <calloc>:
    4000017c:	02b50633          	mul	a2,a0,a1
    40000180:	1101                	addi	sp,sp,-32
    40000182:	e822                	sd	s0,16(sp)
    40000184:	ec06                	sd	ra,24(sp)
    40000186:	8532                	mv	a0,a2
    40000188:	e432                	sd	a2,8(sp)
    4000018a:	fd1ff0ef          	jal	ra,4000015a <malloc>
    4000018e:	842a                	mv	s0,a0
    40000190:	c509                	beqz	a0,4000019a <calloc+0x1e>
    40000192:	6622                	ld	a2,8(sp)
    40000194:	4581                	li	a1,0
    40000196:	698000ef          	jal	ra,4000082e <memset>
    4000019a:	8522                	mv	a0,s0
    4000019c:	60e2                	ld	ra,24(sp)
    4000019e:	6442                	ld	s0,16(sp)
    400001a0:	6105                	addi	sp,sp,32
    400001a2:	8082                	ret

00000000400001a4 <free>:
    400001a4:	8082                	ret

00000000400001a6 <init_mmc_standalone>:
    400001a6:	8082                	ret

00000000400001a8 <isk_initialize>:
    400001a8:	1141                	addi	sp,sp,-16
    400001aa:	00006517          	auipc	a0,0x6
    400001ae:	3be50513          	addi	a0,a0,958 # 40006568 <P_array.1885+0x1d8>
    400001b2:	e406                	sd	ra,8(sp)
    400001b4:	655040ef          	jal	ra,40005008 <printf>
    400001b8:	60a2                	ld	ra,8(sp)
    400001ba:	4501                	li	a0,0
    400001bc:	0141                	addi	sp,sp,16
    400001be:	8082                	ret

00000000400001c0 <ctrlc>:
    400001c0:	4501                	li	a0,0
    400001c2:	8082                	ret

00000000400001c4 <find_cmd_tbl>:
    400001c4:	4501                	li	a0,0
    400001c6:	8082                	ret

00000000400001c8 <timer_read_counter>:
    400001c8:	b0002573          	csrr	a0,mcycle
    400001cc:	47a9                	li	a5,10
    400001ce:	02f55533          	divu	a0,a0,a5
    400001d2:	8082                	ret

00000000400001d4 <__assert_fail>:
    400001d4:	1141                	addi	sp,sp,-16
    400001d6:	8736                	mv	a4,a3
    400001d8:	86b2                	mv	a3,a2
    400001da:	862e                	mv	a2,a1
    400001dc:	85aa                	mv	a1,a0
    400001de:	00006517          	auipc	a0,0x6
    400001e2:	3b250513          	addi	a0,a0,946 # 40006590 <P_array.1885+0x200>
    400001e6:	e406                	sd	ra,8(sp)
    400001e8:	621040ef          	jal	ra,40005008 <printf>
    400001ec:	60a2                	ld	ra,8(sp)
    400001ee:	4505                	li	a0,1
    400001f0:	0141                	addi	sp,sp,16
    400001f2:	04c0006f          	j	4000023e <tohost_exit>

00000000400001f6 <memalign>:
    400001f6:	1141                	addi	sp,sp,-16
    400001f8:	e022                	sd	s0,0(sp)
    400001fa:	842a                	mv	s0,a0
    400001fc:	952e                	add	a0,a0,a1
    400001fe:	e406                	sd	ra,8(sp)
    40000200:	f5bff0ef          	jal	ra,4000015a <malloc>
    40000204:	408007b3          	neg	a5,s0
    40000208:	9522                	add	a0,a0,s0
    4000020a:	60a2                	ld	ra,8(sp)
    4000020c:	6402                	ld	s0,0(sp)
    4000020e:	8d7d                	and	a0,a0,a5
    40000210:	0141                	addi	sp,sp,16
    40000212:	8082                	ret

0000000040000214 <do_load>:
    40000214:	4505                	li	a0,1
    40000216:	8082                	ret

0000000040000218 <do_ls>:
    40000218:	4505                	li	a0,1
    4000021a:	8082                	ret

000000004000021c <do_size>:
    4000021c:	4505                	li	a0,1
    4000021e:	8082                	ret

0000000040000220 <isk_read>:
    40000220:	4501                	li	a0,0
    40000222:	8082                	ret

0000000040000224 <isk_write>:
    40000224:	4509                	li	a0,2
    40000226:	8082                	ret

0000000040000228 <isk_ioctl>:
    40000228:	4509                	li	a0,2
    4000022a:	8082                	ret

000000004000022c <isk_status>:
    4000022c:	4509                	li	a0,2
    4000022e:	8082                	ret

0000000040000230 <part_init>:
    40000230:	8082                	ret

0000000040000232 <part_print>:
    40000232:	8082                	ret

0000000040000234 <dev_print>:
    40000234:	8082                	ret

0000000040000236 <mmc_berase>:
    40000236:	4501                	li	a0,0
    40000238:	8082                	ret

000000004000023a <mmc_bwrite>:
    4000023a:	4501                	li	a0,0
    4000023c:	8082                	ret

000000004000023e <tohost_exit>:
    4000023e:	7139                	addi	sp,sp,-64
    40000240:	fc06                	sd	ra,56(sp)
    40000242:	f822                	sd	s0,48(sp)
    40000244:	c521                	beqz	a0,4000028c <tohost_exit+0x4e>
    40000246:	00006597          	auipc	a1,0x6
    4000024a:	3c258593          	addi	a1,a1,962 # 40006608 <P_array.1885+0x278>
    4000024e:	842a                	mv	s0,a0
    40000250:	02100613          	li	a2,33
    40000254:	0028                	addi	a0,sp,8
    40000256:	698050ef          	jal	ra,400058ee <memcpy>
    4000025a:	4781                	li	a5,0
    4000025c:	4525                	li	a0,9
    4000025e:	55c1                	li	a1,-16
    40000260:	00f47613          	andi	a2,s0,15
    40000264:	0ff67713          	andi	a4,a2,255
    40000268:	03000693          	li	a3,48
    4000026c:	00c55463          	ble	a2,a0,40000274 <tohost_exit+0x36>
    40000270:	05700693          	li	a3,87
    40000274:	0030                	addi	a2,sp,8
    40000276:	963e                	add	a2,a2,a5
    40000278:	9f35                	addw	a4,a4,a3
    4000027a:	00e60ea3          	sb	a4,29(a2)
    4000027e:	17fd                	addi	a5,a5,-1
    40000280:	8411                	srai	s0,s0,0x4
    40000282:	fcb79fe3          	bne	a5,a1,40000260 <tohost_exit+0x22>
    40000286:	0028                	addi	a0,sp,8
    40000288:	480000ef          	jal	ra,40000708 <hid_send_string>
    4000028c:	00006517          	auipc	a0,0x6
    40000290:	33c50513          	addi	a0,a0,828 # 400065c8 <P_array.1885+0x238>
    40000294:	474000ef          	jal	ra,40000708 <hid_send_string>
    40000298:	a001                	j	40000298 <tohost_exit+0x5a>

000000004000029a <external_interrupt_sys>:
    4000029a:	00006517          	auipc	a0,0x6
    4000029e:	39650513          	addi	a0,a0,918 # 40006630 <P_array.1885+0x2a0>
    400002a2:	5670406f          	j	40005008 <printf>

00000000400002a6 <handle_interrupt>:
    400002a6:	800007b7          	lui	a5,0x80000
    400002aa:	fff7c793          	not	a5,a5
    400002ae:	8d7d                	and	a0,a0,a5
    400002b0:	47ad                	li	a5,11
    400002b2:	00f51463          	bne	a0,a5,400002ba <handle_interrupt+0x14>
    400002b6:	e95ff06f          	j	4000014a <external_interrupt>
    400002ba:	8082                	ret

00000000400002bc <handle_trap>:
    400002bc:	711d                	addi	sp,sp,-96
    400002be:	e8a2                	sd	s0,80(sp)
    400002c0:	842a                	mv	s0,a0
    400002c2:	00006517          	auipc	a0,0x6
    400002c6:	38e50513          	addi	a0,a0,910 # 40006650 <P_array.1885+0x2c0>
    400002ca:	e4a6                	sd	s1,72(sp)
    400002cc:	ec86                	sd	ra,88(sp)
    400002ce:	e0ca                	sd	s2,64(sp)
    400002d0:	fc4e                	sd	s3,56(sp)
    400002d2:	f852                	sd	s4,48(sp)
    400002d4:	f456                	sd	s5,40(sp)
    400002d6:	f05a                	sd	s6,32(sp)
    400002d8:	ec5e                	sd	s7,24(sp)
    400002da:	e862                	sd	s8,16(sp)
    400002dc:	e466                	sd	s9,8(sp)
    400002de:	e06a                	sd	s10,0(sp)
    400002e0:	84b2                	mv	s1,a2
    400002e2:	527040ef          	jal	ra,40005008 <printf>
    400002e6:	47ad                	li	a5,11
    400002e8:	1087e163          	bltu	a5,s0,400003ea <handle_trap+0x12e>
    400002ec:	00006717          	auipc	a4,0x6
    400002f0:	ed470713          	addi	a4,a4,-300 # 400061c0 <scancode+0x300>
    400002f4:	040a                	slli	s0,s0,0x2
    400002f6:	943a                	add	s0,s0,a4
    400002f8:	401c                	lw	a5,0(s0)
    400002fa:	97ba                	add	a5,a5,a4
    400002fc:	8782                	jr	a5
    400002fe:	00006517          	auipc	a0,0x6
    40000302:	36250513          	addi	a0,a0,866 # 40006660 <P_array.1885+0x2d0>
    40000306:	503040ef          	jal	ra,40005008 <printf>
    4000030a:	34302573          	csrr	a0,mbadaddr
    4000030e:	85aa                	mv	a1,a0
    40000310:	00006517          	auipc	a0,0x6
    40000314:	4f850513          	addi	a0,a0,1272 # 40006808 <P_array.1885+0x478>
    40000318:	4f1040ef          	jal	ra,40005008 <printf>
    4000031c:	8926                	mv	s2,s1
    4000031e:	4401                	li	s0,0
    40000320:	4a09                	li	s4,2
    40000322:	4a85                	li	s5,1
    40000324:	498d                	li	s3,3
    40000326:	4b1d                	li	s6,7
    40000328:	4ba5                	li	s7,9
    4000032a:	00006c17          	auipc	s8,0x6
    4000032e:	516c0c13          	addi	s8,s8,1302 # 40006840 <P_array.1885+0x4b0>
    40000332:	00006c97          	auipc	s9,0x6
    40000336:	506c8c93          	addi	s9,s9,1286 # 40006838 <P_array.1885+0x4a8>
    4000033a:	00006d17          	auipc	s10,0x6
    4000033e:	4f6d0d13          	addi	s10,s10,1270 # 40006830 <P_array.1885+0x4a0>
    40000342:	0b441d63          	bne	s0,s4,400003fc <handle_trap+0x140>
    40000346:	688c                	ld	a1,16(s1)
    40000348:	00006517          	auipc	a0,0x6
    4000034c:	4d050513          	addi	a0,a0,1232 # 40006818 <P_array.1885+0x488>
    40000350:	4b9040ef          	jal	ra,40005008 <printf>
    40000354:	00347793          	andi	a5,s0,3
    40000358:	01379863          	bne	a5,s3,40000368 <handle_trap+0xac>
    4000035c:	00006517          	auipc	a0,0x6
    40000360:	0bc50513          	addi	a0,a0,188 # 40006418 <P_array.1885+0x88>
    40000364:	4a5040ef          	jal	ra,40005008 <printf>
    40000368:	2405                	addiw	s0,s0,1
    4000036a:	02000793          	li	a5,32
    4000036e:	0921                	addi	s2,s2,8
    40000370:	fcf419e3          	bne	s0,a5,40000342 <handle_trap+0x86>
    40000374:	53900513          	li	a0,1337
    40000378:	ec7ff0ef          	jal	ra,4000023e <tohost_exit>
    4000037c:	00006517          	auipc	a0,0x6
    40000380:	2fc50513          	addi	a0,a0,764 # 40006678 <P_array.1885+0x2e8>
    40000384:	b749                	j	40000306 <handle_trap+0x4a>
    40000386:	00006517          	auipc	a0,0x6
    4000038a:	31250513          	addi	a0,a0,786 # 40006698 <P_array.1885+0x308>
    4000038e:	bfa5                	j	40000306 <handle_trap+0x4a>
    40000390:	00006517          	auipc	a0,0x6
    40000394:	32050513          	addi	a0,a0,800 # 400066b0 <P_array.1885+0x320>
    40000398:	b7bd                	j	40000306 <handle_trap+0x4a>
    4000039a:	00006517          	auipc	a0,0x6
    4000039e:	32e50513          	addi	a0,a0,814 # 400066c8 <P_array.1885+0x338>
    400003a2:	b795                	j	40000306 <handle_trap+0x4a>
    400003a4:	00006517          	auipc	a0,0x6
    400003a8:	34450513          	addi	a0,a0,836 # 400066e8 <P_array.1885+0x358>
    400003ac:	bfa9                	j	40000306 <handle_trap+0x4a>
    400003ae:	00006517          	auipc	a0,0x6
    400003b2:	35a50513          	addi	a0,a0,858 # 40006708 <P_array.1885+0x378>
    400003b6:	bf81                	j	40000306 <handle_trap+0x4a>
    400003b8:	00006517          	auipc	a0,0x6
    400003bc:	37850513          	addi	a0,a0,888 # 40006730 <P_array.1885+0x3a0>
    400003c0:	b799                	j	40000306 <handle_trap+0x4a>
    400003c2:	00006517          	auipc	a0,0x6
    400003c6:	38e50513          	addi	a0,a0,910 # 40006750 <P_array.1885+0x3c0>
    400003ca:	bf35                	j	40000306 <handle_trap+0x4a>
    400003cc:	00006517          	auipc	a0,0x6
    400003d0:	3ac50513          	addi	a0,a0,940 # 40006778 <P_array.1885+0x3e8>
    400003d4:	bf0d                	j	40000306 <handle_trap+0x4a>
    400003d6:	00006517          	auipc	a0,0x6
    400003da:	3ca50513          	addi	a0,a0,970 # 400067a0 <P_array.1885+0x410>
    400003de:	b725                	j	40000306 <handle_trap+0x4a>
    400003e0:	00006517          	auipc	a0,0x6
    400003e4:	3e850513          	addi	a0,a0,1000 # 400067c8 <P_array.1885+0x438>
    400003e8:	bf39                	j	40000306 <handle_trap+0x4a>
    400003ea:	8622                	mv	a2,s0
    400003ec:	85a2                	mv	a1,s0
    400003ee:	00006517          	auipc	a0,0x6
    400003f2:	40250513          	addi	a0,a0,1026 # 400067f0 <P_array.1885+0x460>
    400003f6:	413040ef          	jal	ra,40005008 <printf>
    400003fa:	bf01                	j	4000030a <handle_trap+0x4e>
    400003fc:	01541863          	bne	s0,s5,4000040c <handle_trap+0x150>
    40000400:	648c                	ld	a1,8(s1)
    40000402:	00006517          	auipc	a0,0x6
    40000406:	41e50513          	addi	a0,a0,1054 # 40006820 <P_array.1885+0x490>
    4000040a:	b799                	j	40000350 <handle_trap+0x94>
    4000040c:	01341863          	bne	s0,s3,4000041c <handle_trap+0x160>
    40000410:	6c8c                	ld	a1,24(s1)
    40000412:	00006517          	auipc	a0,0x6
    40000416:	41650513          	addi	a0,a0,1046 # 40006828 <P_array.1885+0x498>
    4000041a:	bf1d                	j	40000350 <handle_trap+0x94>
    4000041c:	0004079b          	sext.w	a5,s0
    40000420:	ff67859b          	addiw	a1,a5,-10
    40000424:	00093603          	ld	a2,0(s2)
    40000428:	856a                	mv	a0,s10
    4000042a:	00bb7963          	bleu	a1,s6,4000043c <handle_trap+0x180>
    4000042e:	fee7871b          	addiw	a4,a5,-18
    40000432:	00ebe863          	bltu	s7,a4,40000442 <handle_trap+0x186>
    40000436:	ff07859b          	addiw	a1,a5,-16
    4000043a:	8566                	mv	a0,s9
    4000043c:	3cd040ef          	jal	ra,40005008 <printf>
    40000440:	bf11                	j	40000354 <handle_trap+0x98>
    40000442:	85a2                	mv	a1,s0
    40000444:	8562                	mv	a0,s8
    40000446:	bfdd                	j	4000043c <handle_trap+0x180>

0000000040000448 <thread_entry>:
    40000448:	e101                	bnez	a0,40000448 <thread_entry>
    4000044a:	8082                	ret

000000004000044c <__bswap_16>:
    4000044c:	0085579b          	srliw	a5,a0,0x8
    40000450:	0522                	slli	a0,a0,0x8
    40000452:	8d5d                	or	a0,a0,a5
    40000454:	1542                	slli	a0,a0,0x30
    40000456:	9141                	srli	a0,a0,0x30
    40000458:	8082                	ret

000000004000045a <__bswap_32>:
    4000045a:	0185171b          	slliw	a4,a0,0x18
    4000045e:	0185579b          	srliw	a5,a0,0x18
    40000462:	66c1                	lui	a3,0x10
    40000464:	8fd9                	or	a5,a5,a4
    40000466:	f0068693          	addi	a3,a3,-256 # ff00 <_tbss_end+0xff00>
    4000046a:	0085571b          	srliw	a4,a0,0x8
    4000046e:	8f75                	and	a4,a4,a3
    40000470:	8fd9                	or	a5,a5,a4
    40000472:	0085151b          	slliw	a0,a0,0x8
    40000476:	00ff0737          	lui	a4,0xff0
    4000047a:	8d79                	and	a0,a0,a4
    4000047c:	8d5d                	or	a0,a0,a5
    4000047e:	2501                	sext.w	a0,a0
    40000480:	8082                	ret

0000000040000482 <_init>:
    40000482:	00007517          	auipc	a0,0x7
    40000486:	aef50513          	addi	a0,a0,-1297 # 40006f71 <_bss>
    4000048a:	00008617          	auipc	a2,0x8
    4000048e:	0de60613          	addi	a2,a2,222 # 40008568 <_end>
    40000492:	7179                	addi	sp,sp,-48
    40000494:	8e09                	sub	a2,a2,a0
    40000496:	4581                	li	a1,0
    40000498:	f406                	sd	ra,40(sp)
    4000049a:	f022                	sd	s0,32(sp)
    4000049c:	ec26                	sd	s1,24(sp)
    4000049e:	e84a                	sd	s2,16(sp)
    400004a0:	38e000ef          	jal	ra,4000082e <memset>
    400004a4:	35e000ef          	jal	ra,40000802 <get_sw>
    400004a8:	023517b7          	lui	a5,0x2351
    400004ac:	a007879b          	addiw	a5,a5,-1536
    400004b0:	00007717          	auipc	a4,0x7
    400004b4:	acf72823          	sw	a5,-1328(a4) # 40006f80 <mac_addr>
    400004b8:	00f57493          	andi	s1,a0,15
    400004bc:	40c5551b          	sraiw	a0,a0,0xc
    400004c0:	5741                	li	a4,-16
    400004c2:	fd756513          	ori	a0,a0,-41
    400004c6:	00007697          	auipc	a3,0x7
    400004ca:	aae68f23          	sb	a4,-1346(a3) # 40006f84 <mac_addr+0x4>
    400004ce:	00007717          	auipc	a4,0x7
    400004d2:	aaa70ba3          	sb	a0,-1353(a4) # 40006f85 <mac_addr+0x5>
    400004d6:	23500713          	li	a4,565
    400004da:	00e11423          	sh	a4,8(sp)
    400004de:	00007717          	auipc	a4,0x7
    400004e2:	aa470713          	addi	a4,a4,-1372 # 40006f82 <mac_addr+0x2>
    400004e6:	00275703          	lhu	a4,2(a4)
    400004ea:	00f11623          	sh	a5,12(sp)
    400004ee:	ff248413          	addi	s0,s1,-14
    400004f2:	00e11523          	sh	a4,10(sp)
    400004f6:	4522                	lw	a0,8(sp)
    400004f8:	4939                	li	s2,14
    400004fa:	00143413          	seqz	s0,s0
    400004fe:	f5dff0ef          	jal	ra,4000045a <__bswap_32>
    40000502:	00007797          	auipc	a5,0x7
    40000506:	a4e78793          	addi	a5,a5,-1458 # 40006f50 <eth_base>
    4000050a:	46b2                	lw	a3,12(sp)
    4000050c:	6398                	ld	a4,0(a5)
    4000050e:	01000637          	lui	a2,0x1000
    40000512:	6785                	lui	a5,0x1
    40000514:	973e                	add	a4,a4,a5
    40000516:	f0060613          	addi	a2,a2,-256 # ffff00 <_tbss_end+0xffff00>
    4000051a:	0086979b          	slliw	a5,a3,0x8
    4000051e:	82a1                	srli	a3,a3,0x8
    40000520:	8ff1                	and	a5,a5,a2
    40000522:	0ff6f693          	andi	a3,a3,255
    40000526:	1502                	slli	a0,a0,0x20
    40000528:	8fd5                	or	a5,a5,a3
    4000052a:	9101                	srli	a0,a0,0x20
    4000052c:	17c2                	slli	a5,a5,0x30
    4000052e:	80a73023          	sd	a0,-2048(a4)
    40000532:	93c1                	srli	a5,a5,0x30
    40000534:	80f73423          	sd	a5,-2040(a4)
    40000538:	80073603          	ld	a2,-2048(a4)
    4000053c:	80873583          	ld	a1,-2040(a4)
    40000540:	2601                	sext.w	a2,a2
    40000542:	15c2                	slli	a1,a1,0x30
    40000544:	91c1                	srli	a1,a1,0x30
    40000546:	c432                	sw	a2,8(sp)
    40000548:	c62e                	sw	a1,12(sp)
    4000054a:	01248863          	beq	s1,s2,4000055a <_init+0xd8>
    4000054e:	00006517          	auipc	a0,0x6
    40000552:	2fa50513          	addi	a0,a0,762 # 40006848 <P_array.1885+0x4b8>
    40000556:	2b3040ef          	jal	ra,40005008 <printf>
    4000055a:	4581                	li	a1,0
    4000055c:	8522                	mv	a0,s0
    4000055e:	7a0050ef          	jal	ra,40005cfe <main>
    40000562:	85aa                	mv	a1,a0
    40000564:	00006517          	auipc	a0,0x6
    40000568:	30450513          	addi	a0,a0,772 # 40006868 <P_array.1885+0x4d8>
    4000056c:	29d040ef          	jal	ra,40005008 <printf>
    40000570:	a001                	j	40000570 <_init+0xee>

0000000040000572 <printhex>:
    40000572:	7179                	addi	sp,sp,-48
    40000574:	f406                	sd	ra,40(sp)
    40000576:	4781                	li	a5,0
    40000578:	4825                	li	a6,9
    4000057a:	55c1                	li	a1,-16
    4000057c:	00f57613          	andi	a2,a0,15
    40000580:	0ff67713          	andi	a4,a2,255
    40000584:	03000693          	li	a3,48
    40000588:	00c87463          	bleu	a2,a6,40000590 <printhex+0x1e>
    4000058c:	05700693          	li	a3,87
    40000590:	0030                	addi	a2,sp,8
    40000592:	963e                	add	a2,a2,a5
    40000594:	9f35                	addw	a4,a4,a3
    40000596:	00e607a3          	sb	a4,15(a2)
    4000059a:	17fd                	addi	a5,a5,-1
    4000059c:	8111                	srli	a0,a0,0x4
    4000059e:	fcb79fe3          	bne	a5,a1,4000057c <printhex+0xa>
    400005a2:	0028                	addi	a0,sp,8
    400005a4:	00010c23          	sb	zero,24(sp)
    400005a8:	160000ef          	jal	ra,40000708 <hid_send_string>
    400005ac:	70a2                	ld	ra,40(sp)
    400005ae:	6145                	addi	sp,sp,48
    400005b0:	8082                	ret

00000000400005b2 <hid_console_putchar>:
    400005b2:	00007697          	auipc	a3,0x7
    400005b6:	a1a68693          	addi	a3,a3,-1510 # 40006fcc <addr_int>
    400005ba:	4729                	li	a4,10
    400005bc:	429c                	lw	a5,0(a3)
    400005be:	8836                	mv	a6,a3
    400005c0:	0ae50263          	beq	a0,a4,40000664 <hid_console_putchar+0xb2>
    400005c4:	08a76363          	bltu	a4,a0,4000064a <hid_console_putchar+0x98>
    400005c8:	4721                	li	a4,8
    400005ca:	0ce51d63          	bne	a0,a4,400006a4 <hid_console_putchar+0xf2>
    400005ce:	07f7f713          	andi	a4,a5,127
    400005d2:	c31d                	beqz	a4,400005f8 <hid_console_putchar+0x46>
    400005d4:	fff7871b          	addiw	a4,a5,-1
    400005d8:	00007797          	auipc	a5,0x7
    400005dc:	98078793          	addi	a5,a5,-1664 # 40006f58 <hid_vga_ptr>
    400005e0:	639c                	ld	a5,0(a5)
    400005e2:	00007697          	auipc	a3,0x7
    400005e6:	9ee6a523          	sw	a4,-1558(a3) # 40006fcc <addr_int>
    400005ea:	0706                	slli	a4,a4,0x1
    400005ec:	97ba                	add	a5,a5,a4
    400005ee:	6705                	lui	a4,0x1
    400005f0:	f207071b          	addiw	a4,a4,-224
    400005f4:	00e79023          	sh	a4,0(a5)
    400005f8:	00082703          	lw	a4,0(a6)
    400005fc:	6785                	lui	a5,0x1
    400005fe:	f7f78793          	addi	a5,a5,-129 # f7f <_tbss_end+0xf7f>
    40000602:	04e7d363          	ble	a4,a5,40000648 <hid_console_putchar+0x96>
    40000606:	00007717          	auipc	a4,0x7
    4000060a:	9c072323          	sw	zero,-1594(a4) # 40006fcc <addr_int>
    4000060e:	00007717          	auipc	a4,0x7
    40000612:	94a70713          	addi	a4,a4,-1718 # 40006f58 <hid_vga_ptr>
    40000616:	6318                	ld	a4,0(a4)
    40000618:	6605                	lui	a2,0x1
    4000061a:	4681                	li	a3,0
    4000061c:	6505                	lui	a0,0x1
    4000061e:	f206061b          	addiw	a2,a2,-224
    40000622:	0ad7e763          	bltu	a5,a3,400006d0 <hid_console_putchar+0x11e>
    40000626:	10075583          	lhu	a1,256(a4)
    4000062a:	15c2                	slli	a1,a1,0x30
    4000062c:	91c1                	srli	a1,a1,0x30
    4000062e:	00b71023          	sh	a1,0(a4)
    40000632:	0685                	addi	a3,a3,1
    40000634:	0709                	addi	a4,a4,2
    40000636:	fea696e3          	bne	a3,a0,40000622 <hid_console_putchar+0x70>
    4000063a:	6785                	lui	a5,0x1
    4000063c:	f007879b          	addiw	a5,a5,-256
    40000640:	00007717          	auipc	a4,0x7
    40000644:	98f72623          	sw	a5,-1652(a4) # 40006fcc <addr_int>
    40000648:	8082                	ret
    4000064a:	4735                	li	a4,13
    4000064c:	00e50563          	beq	a0,a4,40000656 <hid_console_putchar+0xa4>
    40000650:	07f00713          	li	a4,127
    40000654:	bf9d                	j	400005ca <hid_console_putchar+0x18>
    40000656:	f807f793          	andi	a5,a5,-128
    4000065a:	00007717          	auipc	a4,0x7
    4000065e:	96f72923          	sw	a5,-1678(a4) # 40006fcc <addr_int>
    40000662:	bf59                	j	400005f8 <hid_console_putchar+0x46>
    40000664:	00007717          	auipc	a4,0x7
    40000668:	8f470713          	addi	a4,a4,-1804 # 40006f58 <hid_vga_ptr>
    4000066c:	6585                	lui	a1,0x1
    4000066e:	00073883          	ld	a7,0(a4)
    40000672:	07f7e513          	ori	a0,a5,127
    40000676:	86be                	mv	a3,a5
    40000678:	4601                	li	a2,0
    4000067a:	4701                	li	a4,0
    4000067c:	f205859b          	addiw	a1,a1,-224
    40000680:	00d55863          	ble	a3,a0,40000690 <hid_console_putchar+0xde>
    40000684:	db35                	beqz	a4,400005f8 <hid_console_putchar+0x46>
    40000686:	00007797          	auipc	a5,0x7
    4000068a:	94d7a323          	sw	a3,-1722(a5) # 40006fcc <addr_int>
    4000068e:	b7ad                	j	400005f8 <hid_console_putchar+0x46>
    40000690:	00c78733          	add	a4,a5,a2
    40000694:	0706                	slli	a4,a4,0x1
    40000696:	9746                	add	a4,a4,a7
    40000698:	00b71023          	sh	a1,0(a4)
    4000069c:	2685                	addiw	a3,a3,1
    4000069e:	0605                	addi	a2,a2,1
    400006a0:	4705                	li	a4,1
    400006a2:	bff9                	j	40000680 <hid_console_putchar+0xce>
    400006a4:	0017871b          	addiw	a4,a5,1
    400006a8:	00007697          	auipc	a3,0x7
    400006ac:	92e6a223          	sw	a4,-1756(a3) # 40006fcc <addr_int>
    400006b0:	00007717          	auipc	a4,0x7
    400006b4:	8a870713          	addi	a4,a4,-1880 # 40006f58 <hid_vga_ptr>
    400006b8:	6318                	ld	a4,0(a4)
    400006ba:	0786                	slli	a5,a5,0x1
    400006bc:	97ba                	add	a5,a5,a4
    400006be:	6705                	lui	a4,0x1
    400006c0:	f0070713          	addi	a4,a4,-256 # f00 <_tbss_end+0xf00>
    400006c4:	8d59                	or	a0,a0,a4
    400006c6:	1542                	slli	a0,a0,0x30
    400006c8:	9141                	srli	a0,a0,0x30
    400006ca:	00a79023          	sh	a0,0(a5)
    400006ce:	b72d                	j	400005f8 <hid_console_putchar+0x46>
    400006d0:	00c71023          	sh	a2,0(a4)
    400006d4:	bfb9                	j	40000632 <hid_console_putchar+0x80>

00000000400006d6 <uart_console_putchar>:
    400006d6:	00007797          	auipc	a5,0x7
    400006da:	88a78793          	addi	a5,a5,-1910 # 40006f60 <uart_base>
    400006de:	6398                	ld	a4,0(a5)
    400006e0:	631c                	ld	a5,0(a4)
    400006e2:	4007f793          	andi	a5,a5,1024
    400006e6:	ffed                	bnez	a5,400006e0 <uart_console_putchar+0xa>
    400006e8:	e308                	sd	a0,0(a4)
    400006ea:	8082                	ret

00000000400006ec <hid_init>:
    400006ec:	8082                	ret

00000000400006ee <hid_send_irq>:
    400006ee:	8082                	ret

00000000400006f0 <hid_send>:
    400006f0:	1141                	addi	sp,sp,-16
    400006f2:	e022                	sd	s0,0(sp)
    400006f4:	e406                	sd	ra,8(sp)
    400006f6:	842a                	mv	s0,a0
    400006f8:	fdfff0ef          	jal	ra,400006d6 <uart_console_putchar>
    400006fc:	8522                	mv	a0,s0
    400006fe:	6402                	ld	s0,0(sp)
    40000700:	60a2                	ld	ra,8(sp)
    40000702:	0141                	addi	sp,sp,16
    40000704:	eafff06f          	j	400005b2 <hid_console_putchar>

0000000040000708 <hid_send_string>:
    40000708:	1141                	addi	sp,sp,-16
    4000070a:	e022                	sd	s0,0(sp)
    4000070c:	e406                	sd	ra,8(sp)
    4000070e:	842a                	mv	s0,a0
    40000710:	00044503          	lbu	a0,0(s0)
    40000714:	e509                	bnez	a0,4000071e <hid_send_string+0x16>
    40000716:	60a2                	ld	ra,8(sp)
    40000718:	6402                	ld	s0,0(sp)
    4000071a:	0141                	addi	sp,sp,16
    4000071c:	8082                	ret
    4000071e:	0405                	addi	s0,s0,1
    40000720:	fd1ff0ef          	jal	ra,400006f0 <hid_send>
    40000724:	b7f5                	j	40000710 <hid_send_string+0x8>

0000000040000726 <hid_send_buf>:
    40000726:	7179                	addi	sp,sp,-48
    40000728:	f022                	sd	s0,32(sp)
    4000072a:	ec26                	sd	s1,24(sp)
    4000072c:	f406                	sd	ra,40(sp)
    4000072e:	84aa                	mv	s1,a0
    40000730:	842a                	mv	s0,a0
    40000732:	409407bb          	subw	a5,s0,s1
    40000736:	00b7c763          	blt	a5,a1,40000744 <hid_send_buf+0x1e>
    4000073a:	70a2                	ld	ra,40(sp)
    4000073c:	7402                	ld	s0,32(sp)
    4000073e:	64e2                	ld	s1,24(sp)
    40000740:	6145                	addi	sp,sp,48
    40000742:	8082                	ret
    40000744:	00044503          	lbu	a0,0(s0)
    40000748:	e42e                	sd	a1,8(sp)
    4000074a:	0405                	addi	s0,s0,1
    4000074c:	fa5ff0ef          	jal	ra,400006f0 <hid_send>
    40000750:	65a2                	ld	a1,8(sp)
    40000752:	b7c5                	j	40000732 <hid_send_buf+0xc>

0000000040000754 <hid_recv>:
    40000754:	0ff00513          	li	a0,255
    40000758:	8082                	ret

000000004000075a <hid_check_read_irq>:
    4000075a:	00007797          	auipc	a5,0x7
    4000075e:	80678793          	addi	a5,a5,-2042 # 40006f60 <uart_base>
    40000762:	639c                	ld	a5,0(a5)
    40000764:	4501                	li	a0,0
    40000766:	6398                	ld	a4,0(a5)
    40000768:	6709                	lui	a4,0x2
    4000076a:	97ba                	add	a5,a5,a4
    4000076c:	639c                	ld	a5,0(a5)
    4000076e:	8082                	ret

0000000040000770 <hid_read_irq>:
    40000770:	1101                	addi	sp,sp,-32
    40000772:	e822                	sd	s0,16(sp)
    40000774:	e426                	sd	s1,8(sp)
    40000776:	ec06                	sd	ra,24(sp)
    40000778:	00006497          	auipc	s1,0x6
    4000077c:	7e848493          	addi	s1,s1,2024 # 40006f60 <uart_base>
    40000780:	6405                	lui	s0,0x1
    40000782:	fd9ff0ef          	jal	ra,4000075a <hid_check_read_irq>
    40000786:	dd75                	beqz	a0,40000782 <hid_read_irq+0x12>
    40000788:	609c                	ld	a5,0(s1)
    4000078a:	00878733          	add	a4,a5,s0
    4000078e:	00073023          	sd	zero,0(a4) # 2000 <_tbss_end+0x2000>
    40000792:	6388                	ld	a0,0(a5)
    40000794:	07f57513          	andi	a0,a0,127
    40000798:	d56d                	beqz	a0,40000782 <hid_read_irq+0x12>
    4000079a:	60e2                	ld	ra,24(sp)
    4000079c:	6442                	ld	s0,16(sp)
    4000079e:	64a2                	ld	s1,8(sp)
    400007a0:	6105                	addi	sp,sp,32
    400007a2:	8082                	ret

00000000400007a4 <hid_enable_read_irq>:
    400007a4:	8082                	ret

00000000400007a6 <hid_disable_read_irq>:
    400007a6:	8082                	ret

00000000400007a8 <putc>:
    400007a8:	1141                	addi	sp,sp,-16
    400007aa:	0ff57513          	andi	a0,a0,255
    400007ae:	e406                	sd	ra,8(sp)
    400007b0:	f41ff0ef          	jal	ra,400006f0 <hid_send>
    400007b4:	60a2                	ld	ra,8(sp)
    400007b6:	0141                	addi	sp,sp,16
    400007b8:	8082                	ret

00000000400007ba <puts>:
    400007ba:	1141                	addi	sp,sp,-16
    400007bc:	e022                	sd	s0,0(sp)
    400007be:	e406                	sd	ra,8(sp)
    400007c0:	842a                	mv	s0,a0
    400007c2:	00044503          	lbu	a0,0(s0) # 1000 <_tbss_end+0x1000>
    400007c6:	e909                	bnez	a0,400007d8 <puts+0x1e>
    400007c8:	4529                	li	a0,10
    400007ca:	f27ff0ef          	jal	ra,400006f0 <hid_send>
    400007ce:	60a2                	ld	ra,8(sp)
    400007d0:	6402                	ld	s0,0(sp)
    400007d2:	4501                	li	a0,0
    400007d4:	0141                	addi	sp,sp,16
    400007d6:	8082                	ret
    400007d8:	0405                	addi	s0,s0,1
    400007da:	f17ff0ef          	jal	ra,400006f0 <hid_send>
    400007de:	b7d5                	j	400007c2 <puts+0x8>

00000000400007e0 <get_bram_base>:
    400007e0:	40000537          	lui	a0,0x40000
    400007e4:	8082                	ret

00000000400007e6 <get_ddr_base>:
    400007e6:	4505                	li	a0,1
    400007e8:	057e                	slli	a0,a0,0x1f
    400007ea:	8082                	ret

00000000400007ec <get_ddr_size>:
    400007ec:	08000537          	lui	a0,0x8000
    400007f0:	8082                	ret

00000000400007f2 <get_flash_base>:
    400007f2:	4501                	li	a0,0
    400007f4:	8082                	ret

00000000400007f6 <write_led>:
    400007f6:	1502                	slli	a0,a0,0x20
    400007f8:	9101                	srli	a0,a0,0x20
    400007fa:	400107b7          	lui	a5,0x40010
    400007fe:	ffa8                	sd	a0,120(a5)
    40000800:	8082                	ret

0000000040000802 <get_sw>:
    40000802:	400107b7          	lui	a5,0x40010
    40000806:	7fe8                	ld	a0,248(a5)
    40000808:	2501                	sext.w	a0,a0
    4000080a:	8082                	ret

000000004000080c <memcmp>:
    4000080c:	962a                	add	a2,a2,a0
    4000080e:	00c50e63          	beq	a0,a2,4000082a <memcmp+0x1e>
    40000812:	00054783          	lbu	a5,0(a0) # 8000000 <_tbss_end+0x8000000>
    40000816:	0005c703          	lbu	a4,0(a1) # 1000 <_tbss_end+0x1000>
    4000081a:	00e78563          	beq	a5,a4,40000824 <memcmp+0x18>
    4000081e:	40e7853b          	subw	a0,a5,a4
    40000822:	8082                	ret
    40000824:	0505                	addi	a0,a0,1
    40000826:	0585                	addi	a1,a1,1
    40000828:	b7dd                	j	4000080e <memcmp+0x2>
    4000082a:	4501                	li	a0,0
    4000082c:	8082                	ret

000000004000082e <memset>:
    4000082e:	471d                	li	a4,7
    40000830:	87aa                	mv	a5,a0
    40000832:	04c77563          	bleu	a2,a4,4000087c <memset+0x4e>
    40000836:	0ff5f813          	andi	a6,a1,255
    4000083a:	00881693          	slli	a3,a6,0x8
    4000083e:	0106e6b3          	or	a3,a3,a6
    40000842:	01069713          	slli	a4,a3,0x10
    40000846:	8ed9                	or	a3,a3,a4
    40000848:	02069713          	slli	a4,a3,0x20
    4000084c:	8f55                	or	a4,a4,a3
    4000084e:	00c50333          	add	t1,a0,a2
    40000852:	0077f693          	andi	a3,a5,7
    40000856:	88be                	mv	a7,a5
    40000858:	40f30633          	sub	a2,t1,a5
    4000085c:	e685                	bnez	a3,40000884 <memset+0x56>
    4000085e:	00665693          	srli	a3,a2,0x6
    40000862:	8836                	mv	a6,a3
    40000864:	02081463          	bnez	a6,4000088c <memset+0x5e>
    40000868:	069a                	slli	a3,a3,0x6
    4000086a:	00365793          	srli	a5,a2,0x3
    4000086e:	96c6                	add	a3,a3,a7
    40000870:	8b9d                	andi	a5,a5,7
    40000872:	03079963          	bne	a5,a6,400008a4 <memset+0x76>
    40000876:	078e                	slli	a5,a5,0x3
    40000878:	97b6                	add	a5,a5,a3
    4000087a:	8a1d                	andi	a2,a2,7
    4000087c:	963e                	add	a2,a2,a5
    4000087e:	02c79a63          	bne	a5,a2,400008b2 <memset+0x84>
    40000882:	8082                	ret
    40000884:	01078023          	sb	a6,0(a5) # 40010000 <_end+0x7a98>
    40000888:	0785                	addi	a5,a5,1
    4000088a:	b7e1                	j	40000852 <memset+0x24>
    4000088c:	e398                	sd	a4,0(a5)
    4000088e:	e798                	sd	a4,8(a5)
    40000890:	eb98                	sd	a4,16(a5)
    40000892:	ef98                	sd	a4,24(a5)
    40000894:	f398                	sd	a4,32(a5)
    40000896:	f798                	sd	a4,40(a5)
    40000898:	fb98                	sd	a4,48(a5)
    4000089a:	ff98                	sd	a4,56(a5)
    4000089c:	187d                	addi	a6,a6,-1
    4000089e:	04078793          	addi	a5,a5,64
    400008a2:	b7c9                	j	40000864 <memset+0x36>
    400008a4:	00381893          	slli	a7,a6,0x3
    400008a8:	98b6                	add	a7,a7,a3
    400008aa:	00e8b023          	sd	a4,0(a7)
    400008ae:	0805                	addi	a6,a6,1
    400008b0:	b7c9                	j	40000872 <memset+0x44>
    400008b2:	00b78023          	sb	a1,0(a5)
    400008b6:	0785                	addi	a5,a5,1
    400008b8:	b7d9                	j	4000087e <memset+0x50>

00000000400008ba <strcmp>:
    400008ba:	0505                	addi	a0,a0,1
    400008bc:	fff54783          	lbu	a5,-1(a0)
    400008c0:	0585                	addi	a1,a1,1
    400008c2:	fff5c703          	lbu	a4,-1(a1)
    400008c6:	e781                	bnez	a5,400008ce <strcmp+0x14>
    400008c8:	40e0053b          	negw	a0,a4
    400008cc:	8082                	ret
    400008ce:	fee786e3          	beq	a5,a4,400008ba <strcmp>
    400008d2:	40e7853b          	subw	a0,a5,a4
    400008d6:	8082                	ret

00000000400008d8 <strcpy>:
    400008d8:	87aa                	mv	a5,a0
    400008da:	0005c703          	lbu	a4,0(a1)
    400008de:	0785                	addi	a5,a5,1
    400008e0:	0585                	addi	a1,a1,1
    400008e2:	fee78fa3          	sb	a4,-1(a5)
    400008e6:	fb75                	bnez	a4,400008da <strcpy+0x2>
    400008e8:	8082                	ret

00000000400008ea <strnlen>:
    400008ea:	c1a5                	beqz	a1,4000094a <strnlen+0x60>
    400008ec:	00b506b3          	add	a3,a0,a1
    400008f0:	00a6f363          	bleu	a0,a3,400008f6 <strnlen+0xc>
    400008f4:	56fd                	li	a3,-1
    400008f6:	85aa                	mv	a1,a0
    400008f8:	0075f793          	andi	a5,a1,7
    400008fc:	e3a1                	bnez	a5,4000093c <strnlen+0x52>
    400008fe:	87ae                	mv	a5,a1
    40000900:	00006817          	auipc	a6,0x6
    40000904:	61080813          	addi	a6,a6,1552 # 40006f10 <P_array.1885+0xb80>
    40000908:	00006897          	auipc	a7,0x6
    4000090c:	61088893          	addi	a7,a7,1552 # 40006f18 <P_array.1885+0xb88>
    40000910:	02d7f963          	bleu	a3,a5,40000942 <strnlen+0x58>
    40000914:	00878713          	addi	a4,a5,8
    40000918:	00083583          	ld	a1,0(a6)
    4000091c:	ff873603          	ld	a2,-8(a4)
    40000920:	962e                	add	a2,a2,a1
    40000922:	0008b583          	ld	a1,0(a7)
    40000926:	8e6d                	and	a2,a2,a1
    40000928:	ca2d                	beqz	a2,4000099a <strnlen+0xb0>
    4000092a:	ff874603          	lbu	a2,-8(a4)
    4000092e:	ca2d                	beqz	a2,400009a0 <strnlen+0xb6>
    40000930:	ff974603          	lbu	a2,-7(a4)
    40000934:	ee19                	bnez	a2,40000952 <strnlen+0x68>
    40000936:	00178593          	addi	a1,a5,1
    4000093a:	a021                	j	40000942 <strnlen+0x58>
    4000093c:	0005c783          	lbu	a5,0(a1)
    40000940:	e799                	bnez	a5,4000094e <strnlen+0x64>
    40000942:	00b6f363          	bleu	a1,a3,40000948 <strnlen+0x5e>
    40000946:	85b6                	mv	a1,a3
    40000948:	8d89                	sub	a1,a1,a0
    4000094a:	852e                	mv	a0,a1
    4000094c:	8082                	ret
    4000094e:	0585                	addi	a1,a1,1
    40000950:	b765                	j	400008f8 <strnlen+0xe>
    40000952:	ffa74603          	lbu	a2,-6(a4)
    40000956:	e601                	bnez	a2,4000095e <strnlen+0x74>
    40000958:	00278593          	addi	a1,a5,2
    4000095c:	b7dd                	j	40000942 <strnlen+0x58>
    4000095e:	ffb74603          	lbu	a2,-5(a4)
    40000962:	e601                	bnez	a2,4000096a <strnlen+0x80>
    40000964:	00378593          	addi	a1,a5,3
    40000968:	bfe9                	j	40000942 <strnlen+0x58>
    4000096a:	ffc74603          	lbu	a2,-4(a4)
    4000096e:	e601                	bnez	a2,40000976 <strnlen+0x8c>
    40000970:	00478593          	addi	a1,a5,4
    40000974:	b7f9                	j	40000942 <strnlen+0x58>
    40000976:	ffd74603          	lbu	a2,-3(a4)
    4000097a:	e601                	bnez	a2,40000982 <strnlen+0x98>
    4000097c:	00578593          	addi	a1,a5,5
    40000980:	b7c9                	j	40000942 <strnlen+0x58>
    40000982:	ffe74603          	lbu	a2,-2(a4)
    40000986:	e601                	bnez	a2,4000098e <strnlen+0xa4>
    40000988:	00678593          	addi	a1,a5,6
    4000098c:	bf5d                	j	40000942 <strnlen+0x58>
    4000098e:	fff74603          	lbu	a2,-1(a4)
    40000992:	e601                	bnez	a2,4000099a <strnlen+0xb0>
    40000994:	00778593          	addi	a1,a5,7
    40000998:	b76d                	j	40000942 <strnlen+0x58>
    4000099a:	85b6                	mv	a1,a3
    4000099c:	87ba                	mv	a5,a4
    4000099e:	bf8d                	j	40000910 <strnlen+0x26>
    400009a0:	85be                	mv	a1,a5
    400009a2:	b745                	j	40000942 <strnlen+0x58>

00000000400009a4 <_wordcopy_fwd_aligned>:
    400009a4:	00767793          	andi	a5,a2,7
    400009a8:	17fd                	addi	a5,a5,-1
    400009aa:	4719                	li	a4,6
    400009ac:	08f76163          	bltu	a4,a5,40000a2e <_wordcopy_fwd_aligned+0x8a>
    400009b0:	00006717          	auipc	a4,0x6
    400009b4:	84070713          	addi	a4,a4,-1984 # 400061f0 <scancode+0x330>
    400009b8:	078a                	slli	a5,a5,0x2
    400009ba:	97ba                	add	a5,a5,a4
    400009bc:	439c                	lw	a5,0(a5)
    400009be:	97ba                	add	a5,a5,a4
    400009c0:	8782                	jr	a5
    400009c2:	6198                	ld	a4,0(a1)
    400009c4:	fc850513          	addi	a0,a0,-56
    400009c8:	fd058593          	addi	a1,a1,-48
    400009cc:	0619                	addi	a2,a2,6
    400009ce:	7d9c                	ld	a5,56(a1)
    400009d0:	1661                	addi	a2,a2,-8
    400009d2:	fd18                	sd	a4,56(a0)
    400009d4:	04058593          	addi	a1,a1,64
    400009d8:	04050513          	addi	a0,a0,64
    400009dc:	e23d                	bnez	a2,40000a42 <_wordcopy_fwd_aligned+0x9e>
    400009de:	e11c                	sd	a5,0(a0)
    400009e0:	8082                	ret
    400009e2:	619c                	ld	a5,0(a1)
    400009e4:	fd050513          	addi	a0,a0,-48
    400009e8:	fd858593          	addi	a1,a1,-40
    400009ec:	0615                	addi	a2,a2,5
    400009ee:	7998                	ld	a4,48(a1)
    400009f0:	f91c                	sd	a5,48(a0)
    400009f2:	bff1                	j	400009ce <_wordcopy_fwd_aligned+0x2a>
    400009f4:	6198                	ld	a4,0(a1)
    400009f6:	fd850513          	addi	a0,a0,-40
    400009fa:	1581                	addi	a1,a1,-32
    400009fc:	0611                	addi	a2,a2,4
    400009fe:	759c                	ld	a5,40(a1)
    40000a00:	f518                	sd	a4,40(a0)
    40000a02:	b7f5                	j	400009ee <_wordcopy_fwd_aligned+0x4a>
    40000a04:	619c                	ld	a5,0(a1)
    40000a06:	1501                	addi	a0,a0,-32
    40000a08:	15a1                	addi	a1,a1,-24
    40000a0a:	060d                	addi	a2,a2,3
    40000a0c:	7198                	ld	a4,32(a1)
    40000a0e:	f11c                	sd	a5,32(a0)
    40000a10:	b7fd                	j	400009fe <_wordcopy_fwd_aligned+0x5a>
    40000a12:	6198                	ld	a4,0(a1)
    40000a14:	1521                	addi	a0,a0,-24
    40000a16:	15c1                	addi	a1,a1,-16
    40000a18:	0609                	addi	a2,a2,2
    40000a1a:	6d9c                	ld	a5,24(a1)
    40000a1c:	ed18                	sd	a4,24(a0)
    40000a1e:	b7fd                	j	40000a0c <_wordcopy_fwd_aligned+0x68>
    40000a20:	619c                	ld	a5,0(a1)
    40000a22:	1541                	addi	a0,a0,-16
    40000a24:	15e1                	addi	a1,a1,-8
    40000a26:	0605                	addi	a2,a2,1
    40000a28:	6998                	ld	a4,16(a1)
    40000a2a:	e91c                	sd	a5,16(a0)
    40000a2c:	b7fd                	j	40000a1a <_wordcopy_fwd_aligned+0x76>
    40000a2e:	da4d                	beqz	a2,400009e0 <_wordcopy_fwd_aligned+0x3c>
    40000a30:	6198                	ld	a4,0(a1)
    40000a32:	1561                	addi	a0,a0,-8
    40000a34:	659c                	ld	a5,8(a1)
    40000a36:	e518                	sd	a4,8(a0)
    40000a38:	bfc5                	j	40000a28 <_wordcopy_fwd_aligned+0x84>
    40000a3a:	167d                	addi	a2,a2,-1
    40000a3c:	619c                	ld	a5,0(a1)
    40000a3e:	d245                	beqz	a2,400009de <_wordcopy_fwd_aligned+0x3a>
    40000a40:	05a1                	addi	a1,a1,8
    40000a42:	6198                	ld	a4,0(a1)
    40000a44:	e11c                	sd	a5,0(a0)
    40000a46:	b7fd                	j	40000a34 <_wordcopy_fwd_aligned+0x90>

0000000040000a48 <_wordcopy_fwd_dest_aligned>:
    40000a48:	0075f313          	andi	t1,a1,7
    40000a4c:	00331e1b          	slliw	t3,t1,0x3
    40000a50:	04000693          	li	a3,64
    40000a54:	00367793          	andi	a5,a2,3
    40000a58:	4709                	li	a4,2
    40000a5a:	41c6833b          	subw	t1,a3,t3
    40000a5e:	99e1                	andi	a1,a1,-8
    40000a60:	02e78663          	beq	a5,a4,40000a8c <_wordcopy_fwd_dest_aligned+0x44>
    40000a64:	470d                	li	a4,3
    40000a66:	04e78f63          	beq	a5,a4,40000ac4 <_wordcopy_fwd_dest_aligned+0x7c>
    40000a6a:	4705                	li	a4,1
    40000a6c:	06e79c63          	bne	a5,a4,40000ae4 <_wordcopy_fwd_dest_aligned+0x9c>
    40000a70:	167d                	addi	a2,a2,-1
    40000a72:	619c                	ld	a5,0(a1)
    40000a74:	6594                	ld	a3,8(a1)
    40000a76:	c221                	beqz	a2,40000ab6 <_wordcopy_fwd_dest_aligned+0x6e>
    40000a78:	05c1                	addi	a1,a1,16
    40000a7a:	01c7d733          	srl	a4,a5,t3
    40000a7e:	006697b3          	sll	a5,a3,t1
    40000a82:	8f5d                	or	a4,a4,a5
    40000a84:	0005b883          	ld	a7,0(a1)
    40000a88:	e118                	sd	a4,0(a0)
    40000a8a:	a09d                	j	40000af0 <_wordcopy_fwd_dest_aligned+0xa8>
    40000a8c:	0005b803          	ld	a6,0(a1)
    40000a90:	659c                	ld	a5,8(a1)
    40000a92:	1521                	addi	a0,a0,-24
    40000a94:	15e1                	addi	a1,a1,-8
    40000a96:	0609                	addi	a2,a2,2
    40000a98:	01c85833          	srl	a6,a6,t3
    40000a9c:	00679733          	sll	a4,a5,t1
    40000aa0:	00e86833          	or	a6,a6,a4
    40000aa4:	6d94                	ld	a3,24(a1)
    40000aa6:	1671                	addi	a2,a2,-4
    40000aa8:	01053c23          	sd	a6,24(a0)
    40000aac:	02058593          	addi	a1,a1,32
    40000ab0:	02050513          	addi	a0,a0,32
    40000ab4:	f279                	bnez	a2,40000a7a <_wordcopy_fwd_dest_aligned+0x32>
    40000ab6:	01c7d7b3          	srl	a5,a5,t3
    40000aba:	006696b3          	sll	a3,a3,t1
    40000abe:	8fd5                	or	a5,a5,a3
    40000ac0:	e11c                	sd	a5,0(a0)
    40000ac2:	8082                	ret
    40000ac4:	0005b883          	ld	a7,0(a1)
    40000ac8:	0085b803          	ld	a6,8(a1)
    40000acc:	1541                	addi	a0,a0,-16
    40000ace:	0605                	addi	a2,a2,1
    40000ad0:	01c8d8b3          	srl	a7,a7,t3
    40000ad4:	00681733          	sll	a4,a6,t1
    40000ad8:	00e8e8b3          	or	a7,a7,a4
    40000adc:	699c                	ld	a5,16(a1)
    40000ade:	01153823          	sd	a7,16(a0)
    40000ae2:	bf5d                	j	40000a98 <_wordcopy_fwd_dest_aligned+0x50>
    40000ae4:	de79                	beqz	a2,40000ac2 <_wordcopy_fwd_dest_aligned+0x7a>
    40000ae6:	6194                	ld	a3,0(a1)
    40000ae8:	0085b883          	ld	a7,8(a1)
    40000aec:	1561                	addi	a0,a0,-8
    40000aee:	05a1                	addi	a1,a1,8
    40000af0:	01c6d733          	srl	a4,a3,t3
    40000af4:	006896b3          	sll	a3,a7,t1
    40000af8:	8f55                	or	a4,a4,a3
    40000afa:	0085b803          	ld	a6,8(a1)
    40000afe:	e518                	sd	a4,8(a0)
    40000b00:	bfc1                	j	40000ad0 <_wordcopy_fwd_dest_aligned+0x88>

0000000040000b02 <_wordcopy_bwd_aligned>:
    40000b02:	00767793          	andi	a5,a2,7
    40000b06:	17fd                	addi	a5,a5,-1
    40000b08:	4719                	li	a4,6
    40000b0a:	08f76a63          	bltu	a4,a5,40000b9e <_wordcopy_bwd_aligned+0x9c>
    40000b0e:	00005717          	auipc	a4,0x5
    40000b12:	6fe70713          	addi	a4,a4,1790 # 4000620c <scancode+0x34c>
    40000b16:	078a                	slli	a5,a5,0x2
    40000b18:	97ba                	add	a5,a5,a4
    40000b1a:	439c                	lw	a5,0(a5)
    40000b1c:	97ba                	add	a5,a5,a4
    40000b1e:	8782                	jr	a5
    40000b20:	ff85b683          	ld	a3,-8(a1)
    40000b24:	ff058793          	addi	a5,a1,-16
    40000b28:	1561                	addi	a0,a0,-8
    40000b2a:	0619                	addi	a2,a2,6
    40000b2c:	6398                	ld	a4,0(a5)
    40000b2e:	1661                	addi	a2,a2,-8
    40000b30:	e114                	sd	a3,0(a0)
    40000b32:	fc078793          	addi	a5,a5,-64
    40000b36:	fc050513          	addi	a0,a0,-64
    40000b3a:	e641                	bnez	a2,40000bc2 <_wordcopy_bwd_aligned+0xc0>
    40000b3c:	fd18                	sd	a4,56(a0)
    40000b3e:	8082                	ret
    40000b40:	ff85b703          	ld	a4,-8(a1)
    40000b44:	fe858793          	addi	a5,a1,-24
    40000b48:	1541                	addi	a0,a0,-16
    40000b4a:	0615                	addi	a2,a2,5
    40000b4c:	6794                	ld	a3,8(a5)
    40000b4e:	e518                	sd	a4,8(a0)
    40000b50:	bff1                	j	40000b2c <_wordcopy_bwd_aligned+0x2a>
    40000b52:	ff85b683          	ld	a3,-8(a1)
    40000b56:	fe058793          	addi	a5,a1,-32
    40000b5a:	1521                	addi	a0,a0,-24
    40000b5c:	0611                	addi	a2,a2,4
    40000b5e:	6b98                	ld	a4,16(a5)
    40000b60:	e914                	sd	a3,16(a0)
    40000b62:	b7ed                	j	40000b4c <_wordcopy_bwd_aligned+0x4a>
    40000b64:	ff85b703          	ld	a4,-8(a1)
    40000b68:	fd858793          	addi	a5,a1,-40
    40000b6c:	1501                	addi	a0,a0,-32
    40000b6e:	060d                	addi	a2,a2,3
    40000b70:	6f94                	ld	a3,24(a5)
    40000b72:	ed18                	sd	a4,24(a0)
    40000b74:	b7ed                	j	40000b5e <_wordcopy_bwd_aligned+0x5c>
    40000b76:	ff85b683          	ld	a3,-8(a1)
    40000b7a:	fd058793          	addi	a5,a1,-48
    40000b7e:	fd850513          	addi	a0,a0,-40
    40000b82:	0609                	addi	a2,a2,2
    40000b84:	7398                	ld	a4,32(a5)
    40000b86:	f114                	sd	a3,32(a0)
    40000b88:	b7e5                	j	40000b70 <_wordcopy_bwd_aligned+0x6e>
    40000b8a:	ff85b703          	ld	a4,-8(a1)
    40000b8e:	fc858793          	addi	a5,a1,-56
    40000b92:	fd050513          	addi	a0,a0,-48
    40000b96:	0605                	addi	a2,a2,1
    40000b98:	7794                	ld	a3,40(a5)
    40000b9a:	f518                	sd	a4,40(a0)
    40000b9c:	b7e5                	j	40000b84 <_wordcopy_bwd_aligned+0x82>
    40000b9e:	d245                	beqz	a2,40000b3e <_wordcopy_bwd_aligned+0x3c>
    40000ba0:	ff85b683          	ld	a3,-8(a1)
    40000ba4:	fc058793          	addi	a5,a1,-64
    40000ba8:	fc850513          	addi	a0,a0,-56
    40000bac:	7b98                	ld	a4,48(a5)
    40000bae:	f914                	sd	a3,48(a0)
    40000bb0:	b7e5                	j	40000b98 <_wordcopy_bwd_aligned+0x96>
    40000bb2:	167d                	addi	a2,a2,-1
    40000bb4:	fc050513          	addi	a0,a0,-64
    40000bb8:	ff85b703          	ld	a4,-8(a1)
    40000bbc:	d241                	beqz	a2,40000b3c <_wordcopy_bwd_aligned+0x3a>
    40000bbe:	fb858793          	addi	a5,a1,-72
    40000bc2:	7f94                	ld	a3,56(a5)
    40000bc4:	fd18                	sd	a4,56(a0)
    40000bc6:	b7dd                	j	40000bac <_wordcopy_bwd_aligned+0xaa>

0000000040000bc8 <_wordcopy_bwd_dest_aligned>:
    40000bc8:	0075f713          	andi	a4,a1,7
    40000bcc:	00371e1b          	slliw	t3,a4,0x3
    40000bd0:	04000813          	li	a6,64
    40000bd4:	00367793          	andi	a5,a2,3
    40000bd8:	4709                	li	a4,2
    40000bda:	41c8083b          	subw	a6,a6,t3
    40000bde:	99e1                	andi	a1,a1,-8
    40000be0:	02e78963          	beq	a5,a4,40000c12 <_wordcopy_bwd_dest_aligned+0x4a>
    40000be4:	470d                	li	a4,3
    40000be6:	06e78263          	beq	a5,a4,40000c4a <_wordcopy_bwd_dest_aligned+0x82>
    40000bea:	4705                	li	a4,1
    40000bec:	08e79163          	bne	a5,a4,40000c6e <_wordcopy_bwd_dest_aligned+0xa6>
    40000bf0:	167d                	addi	a2,a2,-1
    40000bf2:	1501                	addi	a0,a0,-32
    40000bf4:	6198                	ld	a4,0(a1)
    40000bf6:	ff85b783          	ld	a5,-8(a1)
    40000bfa:	c229                	beqz	a2,40000c3c <_wordcopy_bwd_dest_aligned+0x74>
    40000bfc:	fd858693          	addi	a3,a1,-40
    40000c00:	01c7d5b3          	srl	a1,a5,t3
    40000c04:	01071733          	sll	a4,a4,a6
    40000c08:	8f4d                	or	a4,a4,a1
    40000c0a:	0186b303          	ld	t1,24(a3)
    40000c0e:	ed18                	sd	a4,24(a0)
    40000c10:	a0b5                	j	40000c7c <_wordcopy_bwd_dest_aligned+0xb4>
    40000c12:	0005b883          	ld	a7,0(a1)
    40000c16:	ff85b703          	ld	a4,-8(a1)
    40000c1a:	ff058693          	addi	a3,a1,-16
    40000c1e:	1561                	addi	a0,a0,-8
    40000c20:	0609                	addi	a2,a2,2
    40000c22:	01c755b3          	srl	a1,a4,t3
    40000c26:	010898b3          	sll	a7,a7,a6
    40000c2a:	0115e8b3          	or	a7,a1,a7
    40000c2e:	629c                	ld	a5,0(a3)
    40000c30:	1671                	addi	a2,a2,-4
    40000c32:	01153023          	sd	a7,0(a0)
    40000c36:	1681                	addi	a3,a3,-32
    40000c38:	1501                	addi	a0,a0,-32
    40000c3a:	f279                	bnez	a2,40000c00 <_wordcopy_bwd_dest_aligned+0x38>
    40000c3c:	01c7d7b3          	srl	a5,a5,t3
    40000c40:	01071733          	sll	a4,a4,a6
    40000c44:	8fd9                	or	a5,a5,a4
    40000c46:	ed1c                	sd	a5,24(a0)
    40000c48:	8082                	ret
    40000c4a:	0005b303          	ld	t1,0(a1)
    40000c4e:	ff85b883          	ld	a7,-8(a1)
    40000c52:	fe858693          	addi	a3,a1,-24
    40000c56:	1541                	addi	a0,a0,-16
    40000c58:	0605                	addi	a2,a2,1
    40000c5a:	01c8d7b3          	srl	a5,a7,t3
    40000c5e:	01031333          	sll	t1,t1,a6
    40000c62:	0067e333          	or	t1,a5,t1
    40000c66:	6698                	ld	a4,8(a3)
    40000c68:	00653423          	sd	t1,8(a0)
    40000c6c:	bf5d                	j	40000c22 <_wordcopy_bwd_dest_aligned+0x5a>
    40000c6e:	de69                	beqz	a2,40000c48 <_wordcopy_bwd_dest_aligned+0x80>
    40000c70:	619c                	ld	a5,0(a1)
    40000c72:	ff85b303          	ld	t1,-8(a1)
    40000c76:	fe058693          	addi	a3,a1,-32
    40000c7a:	1521                	addi	a0,a0,-24
    40000c7c:	01c355b3          	srl	a1,t1,t3
    40000c80:	01079733          	sll	a4,a5,a6
    40000c84:	00e5e7b3          	or	a5,a1,a4
    40000c88:	0106b883          	ld	a7,16(a3)
    40000c8c:	e91c                	sd	a5,16(a0)
    40000c8e:	b7f1                	j	40000c5a <_wordcopy_bwd_dest_aligned+0x92>

0000000040000c90 <load_elf>:
    40000c90:	04000793          	li	a5,64
    40000c94:	12b7f463          	bleu	a1,a5,40000dbc <load_elf+0x12c>
    40000c98:	00056683          	lwu	a3,0(a0)
    40000c9c:	464c4737          	lui	a4,0x464c4
    40000ca0:	57f70713          	addi	a4,a4,1407 # 464c457f <_end+0x64bc017>
    40000ca4:	4789                	li	a5,2
    40000ca6:	10e69c63          	bne	a3,a4,40000dbe <load_elf+0x12e>
    40000caa:	00454683          	lbu	a3,4(a0)
    40000cae:	4709                	li	a4,2
    40000cb0:	10e69763          	bne	a3,a4,40000dbe <load_elf+0x12e>
    40000cb4:	03855703          	lhu	a4,56(a0)
    40000cb8:	03800793          	li	a5,56
    40000cbc:	7159                	addi	sp,sp,-112
    40000cbe:	02f70733          	mul	a4,a4,a5
    40000cc2:	f0a2                	sd	s0,96(sp)
    40000cc4:	7100                	ld	s0,32(a0)
    40000cc6:	fc56                	sd	s5,56(sp)
    40000cc8:	02059a93          	slli	s5,a1,0x20
    40000ccc:	f486                	sd	ra,104(sp)
    40000cce:	eca6                	sd	s1,88(sp)
    40000cd0:	e8ca                	sd	s2,80(sp)
    40000cd2:	e4ce                	sd	s3,72(sp)
    40000cd4:	e0d2                	sd	s4,64(sp)
    40000cd6:	f85a                	sd	s6,48(sp)
    40000cd8:	f45e                	sd	s7,40(sp)
    40000cda:	f062                	sd	s8,32(sp)
    40000cdc:	ec66                	sd	s9,24(sp)
    40000cde:	e86a                	sd	s10,16(sp)
    40000ce0:	e46e                	sd	s11,8(sp)
    40000ce2:	020ada93          	srli	s5,s5,0x20
    40000ce6:	9722                	add	a4,a4,s0
    40000ce8:	478d                	li	a5,3
    40000cea:	06eae663          	bltu	s5,a4,40000d56 <load_elf+0xc6>
    40000cee:	892e                	mv	s2,a1
    40000cf0:	84aa                	mv	s1,a0
    40000cf2:	942a                	add	s0,s0,a0
    40000cf4:	4a01                	li	s4,0
    40000cf6:	4b05                	li	s6,1
    40000cf8:	00006b97          	auipc	s7,0x6
    40000cfc:	b90b8b93          	addi	s7,s7,-1136 # 40006888 <P_array.1885+0x4f8>
    40000d00:	00006c17          	auipc	s8,0x6
    40000d04:	bd0c0c13          	addi	s8,s8,-1072 # 400068d0 <P_array.1885+0x540>
    40000d08:	00006c97          	auipc	s9,0x6
    40000d0c:	bb0c8c93          	addi	s9,s9,-1104 # 400068b8 <P_array.1885+0x528>
    40000d10:	0384d783          	lhu	a5,56(s1)
    40000d14:	00fa6463          	bltu	s4,a5,40000d1c <load_elf+0x8c>
    40000d18:	4781                	li	a5,0
    40000d1a:	a835                	j	40000d56 <load_elf+0xc6>
    40000d1c:	401c                	lw	a5,0(s0)
    40000d1e:	09679b63          	bne	a5,s6,40000db4 <load_elf+0x124>
    40000d22:	741c                	ld	a5,40(s0)
    40000d24:	cbc1                	beqz	a5,40000db4 <load_elf+0x124>
    40000d26:	85d2                	mv	a1,s4
    40000d28:	855e                	mv	a0,s7
    40000d2a:	2de040ef          	jal	ra,40005008 <printf>
    40000d2e:	02043983          	ld	s3,32(s0)
    40000d32:	04098d63          	beqz	s3,40000d8c <load_elf+0xfc>
    40000d36:	640c                	ld	a1,8(s0)
    40000d38:	01843d03          	ld	s10,24(s0)
    40000d3c:	00b48db3          	add	s11,s1,a1
    40000d40:	95ce                	add	a1,a1,s3
    40000d42:	02bafa63          	bleu	a1,s5,40000d76 <load_elf+0xe6>
    40000d46:	864a                	mv	a2,s2
    40000d48:	00006517          	auipc	a0,0x6
    40000d4c:	b5050513          	addi	a0,a0,-1200 # 40006898 <P_array.1885+0x508>
    40000d50:	2b8040ef          	jal	ra,40005008 <printf>
    40000d54:	478d                	li	a5,3
    40000d56:	70a6                	ld	ra,104(sp)
    40000d58:	7406                	ld	s0,96(sp)
    40000d5a:	64e6                	ld	s1,88(sp)
    40000d5c:	6946                	ld	s2,80(sp)
    40000d5e:	69a6                	ld	s3,72(sp)
    40000d60:	6a06                	ld	s4,64(sp)
    40000d62:	7ae2                	ld	s5,56(sp)
    40000d64:	7b42                	ld	s6,48(sp)
    40000d66:	7ba2                	ld	s7,40(sp)
    40000d68:	7c02                	ld	s8,32(sp)
    40000d6a:	6ce2                	ld	s9,24(sp)
    40000d6c:	6d42                	ld	s10,16(sp)
    40000d6e:	6da2                	ld	s11,8(sp)
    40000d70:	853e                	mv	a0,a5
    40000d72:	6165                	addi	sp,sp,112
    40000d74:	8082                	ret
    40000d76:	866e                	mv	a2,s11
    40000d78:	85ea                	mv	a1,s10
    40000d7a:	86ce                	mv	a3,s3
    40000d7c:	8566                	mv	a0,s9
    40000d7e:	28a040ef          	jal	ra,40005008 <printf>
    40000d82:	864e                	mv	a2,s3
    40000d84:	85ee                	mv	a1,s11
    40000d86:	856a                	mv	a0,s10
    40000d88:	367040ef          	jal	ra,400058ee <memcpy>
    40000d8c:	02843983          	ld	s3,40(s0)
    40000d90:	701c                	ld	a5,32(s0)
    40000d92:	0337f163          	bleu	s3,a5,40000db4 <load_elf+0x124>
    40000d96:	01843d03          	ld	s10,24(s0)
    40000d9a:	40f989b3          	sub	s3,s3,a5
    40000d9e:	864e                	mv	a2,s3
    40000da0:	9d3e                	add	s10,s10,a5
    40000da2:	85ea                	mv	a1,s10
    40000da4:	8562                	mv	a0,s8
    40000da6:	262040ef          	jal	ra,40005008 <printf>
    40000daa:	864e                	mv	a2,s3
    40000dac:	4581                	li	a1,0
    40000dae:	856a                	mv	a0,s10
    40000db0:	a7fff0ef          	jal	ra,4000082e <memset>
    40000db4:	2a05                	addiw	s4,s4,1
    40000db6:	03840413          	addi	s0,s0,56
    40000dba:	bf99                	j	40000d10 <load_elf+0x80>
    40000dbc:	4785                	li	a5,1
    40000dbe:	853e                	mv	a0,a5
    40000dc0:	8082                	ret

0000000040000dc2 <LD_DWORD>:
    40000dc2:	00154783          	lbu	a5,1(a0)
    40000dc6:	00054703          	lbu	a4,0(a0)
    40000dca:	07a2                	slli	a5,a5,0x8
    40000dcc:	8f5d                	or	a4,a4,a5
    40000dce:	00254783          	lbu	a5,2(a0)
    40000dd2:	00354503          	lbu	a0,3(a0)
    40000dd6:	07c2                	slli	a5,a5,0x10
    40000dd8:	8fd9                	or	a5,a5,a4
    40000dda:	0562                	slli	a0,a0,0x18
    40000ddc:	8d5d                	or	a0,a0,a5
    40000dde:	2501                	sext.w	a0,a0
    40000de0:	8082                	ret

0000000040000de2 <mem_cpy>:
    40000de2:	57fd                	li	a5,-1
    40000de4:	367d                	addiw	a2,a2,-1
    40000de6:	00f61363          	bne	a2,a5,40000dec <mem_cpy+0xa>
    40000dea:	8082                	ret
    40000dec:	0005c703          	lbu	a4,0(a1)
    40000df0:	0505                	addi	a0,a0,1
    40000df2:	0585                	addi	a1,a1,1
    40000df4:	fee50fa3          	sb	a4,-1(a0)
    40000df8:	b7f5                	j	40000de4 <mem_cpy+0x2>

0000000040000dfa <mem_set>:
    40000dfa:	57fd                	li	a5,-1
    40000dfc:	367d                	addiw	a2,a2,-1
    40000dfe:	00f61363          	bne	a2,a5,40000e04 <mem_set+0xa>
    40000e02:	8082                	ret
    40000e04:	00b50023          	sb	a1,0(a0)
    40000e08:	0505                	addi	a0,a0,1
    40000e0a:	bfcd                	j	40000dfc <mem_set+0x2>

0000000040000e0c <get_fileinfo>:
    40000e0c:	495c                	lw	a5,20(a0)
    40000e0e:	1101                	addi	sp,sp,-32
    40000e10:	e822                	sd	s0,16(sp)
    40000e12:	ec06                	sd	ra,24(sp)
    40000e14:	e426                	sd	s1,8(sp)
    40000e16:	e04a                	sd	s2,0(sp)
    40000e18:	00958413          	addi	s0,a1,9
    40000e1c:	cfa5                	beqz	a5,40000e94 <get_fileinfo+0x88>
    40000e1e:	01853903          	ld	s2,24(a0)
    40000e22:	4781                	li	a5,0
    40000e24:	02000513          	li	a0,32
    40000e28:	86ca                	mv	a3,s2
    40000e2a:	4815                	li	a6,5
    40000e2c:	48a5                	li	a7,9
    40000e2e:	02e00313          	li	t1,46
    40000e32:	462d                	li	a2,11
    40000e34:	0006c703          	lbu	a4,0(a3)
    40000e38:	2785                	addiw	a5,a5,1
    40000e3a:	00a70e63          	beq	a4,a0,40000e56 <get_fileinfo+0x4a>
    40000e3e:	01071463          	bne	a4,a6,40000e46 <get_fileinfo+0x3a>
    40000e42:	0e500713          	li	a4,229
    40000e46:	01179563          	bne	a5,a7,40000e50 <get_fileinfo+0x44>
    40000e4a:	00640023          	sb	t1,0(s0)
    40000e4e:	0405                	addi	s0,s0,1
    40000e50:	00e40023          	sb	a4,0(s0)
    40000e54:	0405                	addi	s0,s0,1
    40000e56:	0685                	addi	a3,a3,1
    40000e58:	fcc79ee3          	bne	a5,a2,40000e34 <get_fileinfo+0x28>
    40000e5c:	00b94783          	lbu	a5,11(s2)
    40000e60:	01c90513          	addi	a0,s2,28
    40000e64:	84ae                	mv	s1,a1
    40000e66:	00f58423          	sb	a5,8(a1)
    40000e6a:	f59ff0ef          	jal	ra,40000dc2 <LD_DWORD>
    40000e6e:	c088                	sw	a0,0(s1)
    40000e70:	01994783          	lbu	a5,25(s2)
    40000e74:	01894703          	lbu	a4,24(s2)
    40000e78:	0087979b          	slliw	a5,a5,0x8
    40000e7c:	8fd9                	or	a5,a5,a4
    40000e7e:	00f49223          	sh	a5,4(s1)
    40000e82:	01794783          	lbu	a5,23(s2)
    40000e86:	01694703          	lbu	a4,22(s2)
    40000e8a:	0087979b          	slliw	a5,a5,0x8
    40000e8e:	8fd9                	or	a5,a5,a4
    40000e90:	00f49323          	sh	a5,6(s1)
    40000e94:	00040023          	sb	zero,0(s0)
    40000e98:	60e2                	ld	ra,24(sp)
    40000e9a:	6442                	ld	s0,16(sp)
    40000e9c:	64a2                	ld	s1,8(sp)
    40000e9e:	6902                	ld	s2,0(sp)
    40000ea0:	6105                	addi	sp,sp,32
    40000ea2:	8082                	ret

0000000040000ea4 <get_ldnumber>:
    40000ea4:	611c                	ld	a5,0(a0)
    40000ea6:	873e                	mv	a4,a5
    40000ea8:	cf99                	beqz	a5,40000ec6 <get_ldnumber+0x22>
    40000eaa:	02000593          	li	a1,32
    40000eae:	03a00613          	li	a2,58
    40000eb2:	00074683          	lbu	a3,0(a4)
    40000eb6:	02d5fc63          	bleu	a3,a1,40000eee <get_ldnumber+0x4a>
    40000eba:	00c69863          	bne	a3,a2,40000eca <get_ldnumber+0x26>
    40000ebe:	00178693          	addi	a3,a5,1
    40000ec2:	00d70663          	beq	a4,a3,40000ece <get_ldnumber+0x2a>
    40000ec6:	577d                	li	a4,-1
    40000ec8:	a00d                	j	40000eea <get_ldnumber+0x46>
    40000eca:	0705                	addi	a4,a4,1
    40000ecc:	b7dd                	j	40000eb2 <get_ldnumber+0xe>
    40000ece:	0007c683          	lbu	a3,0(a5)
    40000ed2:	4605                	li	a2,1
    40000ed4:	577d                	li	a4,-1
    40000ed6:	fd06869b          	addiw	a3,a3,-48
    40000eda:	0ff6f593          	andi	a1,a3,255
    40000ede:	00b66663          	bltu	a2,a1,40000eea <get_ldnumber+0x46>
    40000ee2:	0789                	addi	a5,a5,2
    40000ee4:	0006871b          	sext.w	a4,a3
    40000ee8:	e11c                	sd	a5,0(a0)
    40000eea:	853a                	mv	a0,a4
    40000eec:	8082                	ret
    40000eee:	00006717          	auipc	a4,0x6
    40000ef2:	11674703          	lbu	a4,278(a4) # 40007004 <CurrVol>
    40000ef6:	bfd5                	j	40000eea <get_ldnumber+0x46>

0000000040000ef8 <validate>:
    40000ef8:	c915                	beqz	a0,40000f2c <validate+0x34>
    40000efa:	611c                	ld	a5,0(a0)
    40000efc:	cb85                	beqz	a5,40000f2c <validate+0x34>
    40000efe:	0007c703          	lbu	a4,0(a5)
    40000f02:	c70d                	beqz	a4,40000f2c <validate+0x34>
    40000f04:	0067d683          	lhu	a3,6(a5)
    40000f08:	00855703          	lhu	a4,8(a0)
    40000f0c:	02e69063          	bne	a3,a4,40000f2c <validate+0x34>
    40000f10:	1141                	addi	sp,sp,-16
    40000f12:	e406                	sd	ra,8(sp)
    40000f14:	0017c503          	lbu	a0,1(a5)
    40000f18:	29d040ef          	jal	ra,400059b4 <disk_status>
    40000f1c:	00157793          	andi	a5,a0,1
    40000f20:	4501                	li	a0,0
    40000f22:	c391                	beqz	a5,40000f26 <validate+0x2e>
    40000f24:	4525                	li	a0,9
    40000f26:	60a2                	ld	ra,8(sp)
    40000f28:	0141                	addi	sp,sp,16
    40000f2a:	8082                	ret
    40000f2c:	4525                	li	a0,9
    40000f2e:	8082                	ret

0000000040000f30 <ld_clust.isra.0>:
    40000f30:	01b5c783          	lbu	a5,27(a1)
    40000f34:	01a5c703          	lbu	a4,26(a1)
    40000f38:	468d                	li	a3,3
    40000f3a:	0087979b          	slliw	a5,a5,0x8
    40000f3e:	8f5d                	or	a4,a4,a5
    40000f40:	0007079b          	sext.w	a5,a4
    40000f44:	00d51d63          	bne	a0,a3,40000f5e <ld_clust.isra.0+0x2e>
    40000f48:	0155c783          	lbu	a5,21(a1)
    40000f4c:	0145c683          	lbu	a3,20(a1)
    40000f50:	0087979b          	slliw	a5,a5,0x8
    40000f54:	8fd5                	or	a5,a5,a3
    40000f56:	0107979b          	slliw	a5,a5,0x10
    40000f5a:	8fd9                	or	a5,a5,a4
    40000f5c:	2781                	sext.w	a5,a5
    40000f5e:	853e                	mv	a0,a5
    40000f60:	8082                	ret

0000000040000f62 <sync_window.part.2>:
    40000f62:	7179                	addi	sp,sp,-48
    40000f64:	f022                	sd	s0,32(sp)
    40000f66:	ec26                	sd	s1,24(sp)
    40000f68:	e44e                	sd	s3,8(sp)
    40000f6a:	5904                	lw	s1,48(a0)
    40000f6c:	f406                	sd	ra,40(sp)
    40000f6e:	e84a                	sd	s2,16(sp)
    40000f70:	e052                	sd	s4,0(sp)
    40000f72:	03450993          	addi	s3,a0,52
    40000f76:	842a                	mv	s0,a0
    40000f78:	00154503          	lbu	a0,1(a0)
    40000f7c:	4685                	li	a3,1
    40000f7e:	8626                	mv	a2,s1
    40000f80:	85ce                	mv	a1,s3
    40000f82:	2a7040ef          	jal	ra,40005a28 <disk_write>
    40000f86:	2501                	sext.w	a0,a0
    40000f88:	e131                	bnez	a0,40000fcc <sync_window.part.2+0x6a>
    40000f8a:	505c                	lw	a5,36(s0)
    40000f8c:	4c58                	lw	a4,28(s0)
    40000f8e:	00040223          	sb	zero,4(s0)
    40000f92:	40f487bb          	subw	a5,s1,a5
    40000f96:	00e7eb63          	bltu	a5,a4,40000fac <sync_window.part.2+0x4a>
    40000f9a:	4501                	li	a0,0
    40000f9c:	70a2                	ld	ra,40(sp)
    40000f9e:	7402                	ld	s0,32(sp)
    40000fa0:	64e2                	ld	s1,24(sp)
    40000fa2:	6942                	ld	s2,16(sp)
    40000fa4:	69a2                	ld	s3,8(sp)
    40000fa6:	6a02                	ld	s4,0(sp)
    40000fa8:	6145                	addi	sp,sp,48
    40000faa:	8082                	ret
    40000fac:	00344903          	lbu	s2,3(s0)
    40000fb0:	4a05                	li	s4,1
    40000fb2:	ff2a74e3          	bleu	s2,s4,40000f9a <sync_window.part.2+0x38>
    40000fb6:	4c5c                	lw	a5,28(s0)
    40000fb8:	00144503          	lbu	a0,1(s0)
    40000fbc:	4685                	li	a3,1
    40000fbe:	9cbd                	addw	s1,s1,a5
    40000fc0:	8626                	mv	a2,s1
    40000fc2:	85ce                	mv	a1,s3
    40000fc4:	265040ef          	jal	ra,40005a28 <disk_write>
    40000fc8:	397d                	addiw	s2,s2,-1
    40000fca:	b7e5                	j	40000fb2 <sync_window.part.2+0x50>
    40000fcc:	4505                	li	a0,1
    40000fce:	b7f9                	j	40000f9c <sync_window.part.2+0x3a>

0000000040000fd0 <sync_window>:
    40000fd0:	00454783          	lbu	a5,4(a0)
    40000fd4:	c399                	beqz	a5,40000fda <sync_window+0xa>
    40000fd6:	f8dff06f          	j	40000f62 <sync_window.part.2>
    40000fda:	4501                	li	a0,0
    40000fdc:	8082                	ret

0000000040000fde <move_window>:
    40000fde:	591c                	lw	a5,48(a0)
    40000fe0:	1101                	addi	sp,sp,-32
    40000fe2:	e822                	sd	s0,16(sp)
    40000fe4:	ec06                	sd	ra,24(sp)
    40000fe6:	e426                	sd	s1,8(sp)
    40000fe8:	e04a                	sd	s2,0(sp)
    40000fea:	4401                	li	s0,0
    40000fec:	02b78763          	beq	a5,a1,4000101a <move_window+0x3c>
    40000ff0:	84aa                	mv	s1,a0
    40000ff2:	892e                	mv	s2,a1
    40000ff4:	fddff0ef          	jal	ra,40000fd0 <sync_window>
    40000ff8:	0005041b          	sext.w	s0,a0
    40000ffc:	ec19                	bnez	s0,4000101a <move_window+0x3c>
    40000ffe:	0014c503          	lbu	a0,1(s1)
    40001002:	4685                	li	a3,1
    40001004:	864a                	mv	a2,s2
    40001006:	03448593          	addi	a1,s1,52
    4000100a:	1bb040ef          	jal	ra,400059c4 <disk_read>
    4000100e:	2501                	sext.w	a0,a0
    40001010:	c119                	beqz	a0,40001016 <move_window+0x38>
    40001012:	4405                	li	s0,1
    40001014:	597d                	li	s2,-1
    40001016:	0324a823          	sw	s2,48(s1)
    4000101a:	8522                	mv	a0,s0
    4000101c:	60e2                	ld	ra,24(sp)
    4000101e:	6442                	ld	s0,16(sp)
    40001020:	64a2                	ld	s1,8(sp)
    40001022:	6902                	ld	s2,0(sp)
    40001024:	6105                	addi	sp,sp,32
    40001026:	8082                	ret

0000000040001028 <check_fs>:
    40001028:	1101                	addi	sp,sp,-32
    4000102a:	e822                	sd	s0,16(sp)
    4000102c:	ec06                	sd	ra,24(sp)
    4000102e:	e426                	sd	s1,8(sp)
    40001030:	e04a                	sd	s2,0(sp)
    40001032:	57fd                	li	a5,-1
    40001034:	00050223          	sb	zero,4(a0)
    40001038:	d91c                	sw	a5,48(a0)
    4000103a:	842a                	mv	s0,a0
    4000103c:	fa3ff0ef          	jal	ra,40000fde <move_window>
    40001040:	2501                	sext.w	a0,a0
    40001042:	e52d                	bnez	a0,400010ac <check_fs+0x84>
    40001044:	23344783          	lbu	a5,563(s0)
    40001048:	23244703          	lbu	a4,562(s0)
    4000104c:	4509                	li	a0,2
    4000104e:	0087979b          	slliw	a5,a5,0x8
    40001052:	8fd9                	or	a5,a5,a4
    40001054:	0107979b          	slliw	a5,a5,0x10
    40001058:	776d                	lui	a4,0xffffb
    4000105a:	4107d79b          	sraiw	a5,a5,0x10
    4000105e:	a5570713          	addi	a4,a4,-1451 # ffffffffffffaa55 <_end+0xffffffffbfff24ed>
    40001062:	02f71f63          	bne	a4,a5,400010a0 <check_fs+0x78>
    40001066:	06a40513          	addi	a0,s0,106
    4000106a:	d59ff0ef          	jal	ra,40000dc2 <LD_DWORD>
    4000106e:	0005079b          	sext.w	a5,a0
    40001072:	01000537          	lui	a0,0x1000
    40001076:	fff50913          	addi	s2,a0,-1 # ffffff <_tbss_end+0xffffff>
    4000107a:	00544537          	lui	a0,0x544
    4000107e:	14650493          	addi	s1,a0,326 # 544146 <_tbss_end+0x544146>
    40001082:	0127f7b3          	and	a5,a5,s2
    40001086:	4501                	li	a0,0
    40001088:	00978c63          	beq	a5,s1,400010a0 <check_fs+0x78>
    4000108c:	08640513          	addi	a0,s0,134
    40001090:	d33ff0ef          	jal	ra,40000dc2 <LD_DWORD>
    40001094:	2501                	sext.w	a0,a0
    40001096:	01257533          	and	a0,a0,s2
    4000109a:	8d05                	sub	a0,a0,s1
    4000109c:	00a03533          	snez	a0,a0
    400010a0:	60e2                	ld	ra,24(sp)
    400010a2:	6442                	ld	s0,16(sp)
    400010a4:	64a2                	ld	s1,8(sp)
    400010a6:	6902                	ld	s2,0(sp)
    400010a8:	6105                	addi	sp,sp,32
    400010aa:	8082                	ret
    400010ac:	450d                	li	a0,3
    400010ae:	bfcd                	j	400010a0 <check_fs+0x78>

00000000400010b0 <find_volume>:
    400010b0:	715d                	addi	sp,sp,-80
    400010b2:	f84a                	sd	s2,48(sp)
    400010b4:	f44e                	sd	s3,40(sp)
    400010b6:	e486                	sd	ra,72(sp)
    400010b8:	e0a2                	sd	s0,64(sp)
    400010ba:	fc26                	sd	s1,56(sp)
    400010bc:	f052                	sd	s4,32(sp)
    400010be:	ec56                	sd	s5,24(sp)
    400010c0:	e85a                	sd	s6,16(sp)
    400010c2:	00053023          	sd	zero,0(a0)
    400010c6:	89aa                	mv	s3,a0
    400010c8:	852e                	mv	a0,a1
    400010ca:	8932                	mv	s2,a2
    400010cc:	dd9ff0ef          	jal	ra,40000ea4 <get_ldnumber>
    400010d0:	47ad                	li	a5,11
    400010d2:	02054e63          	bltz	a0,4000110e <find_volume+0x5e>
    400010d6:	00351713          	slli	a4,a0,0x3
    400010da:	00007797          	auipc	a5,0x7
    400010de:	1c678793          	addi	a5,a5,454 # 400082a0 <FatFs>
    400010e2:	97ba                	add	a5,a5,a4
    400010e4:	6380                	ld	s0,0(a5)
    400010e6:	84aa                	mv	s1,a0
    400010e8:	47b1                	li	a5,12
    400010ea:	c015                	beqz	s0,4000110e <find_volume+0x5e>
    400010ec:	0089b023          	sd	s0,0(s3)
    400010f0:	00044783          	lbu	a5,0(s0)
    400010f4:	cb85                	beqz	a5,40001124 <find_volume+0x74>
    400010f6:	00144503          	lbu	a0,1(s0)
    400010fa:	0bb040ef          	jal	ra,400059b4 <disk_status>
    400010fe:	00157793          	andi	a5,a0,1
    40001102:	e38d                	bnez	a5,40001124 <find_volume+0x74>
    40001104:	00090563          	beqz	s2,4000110e <find_volume+0x5e>
    40001108:	8911                	andi	a0,a0,4
    4000110a:	c111                	beqz	a0,4000110e <find_volume+0x5e>
    4000110c:	47a9                	li	a5,10
    4000110e:	60a6                	ld	ra,72(sp)
    40001110:	6406                	ld	s0,64(sp)
    40001112:	74e2                	ld	s1,56(sp)
    40001114:	7942                	ld	s2,48(sp)
    40001116:	79a2                	ld	s3,40(sp)
    40001118:	7a02                	ld	s4,32(sp)
    4000111a:	6ae2                	ld	s5,24(sp)
    4000111c:	6b42                	ld	s6,16(sp)
    4000111e:	853e                	mv	a0,a5
    40001120:	6161                	addi	sp,sp,80
    40001122:	8082                	ret
    40001124:	0ff4f513          	andi	a0,s1,255
    40001128:	00040023          	sb	zero,0(s0)
    4000112c:	00a400a3          	sb	a0,1(s0)
    40001130:	047040ef          	jal	ra,40005976 <disk_initialize>
    40001134:	00157713          	andi	a4,a0,1
    40001138:	478d                	li	a5,3
    4000113a:	fb71                	bnez	a4,4000110e <find_volume+0x5e>
    4000113c:	00090463          	beqz	s2,40001144 <find_volume+0x94>
    40001140:	8911                	andi	a0,a0,4
    40001142:	f569                	bnez	a0,4000110c <find_volume+0x5c>
    40001144:	4581                	li	a1,0
    40001146:	8522                	mv	a0,s0
    40001148:	ee1ff0ef          	jal	ra,40001028 <check_fs>
    4000114c:	4785                	li	a5,1
    4000114e:	04f51a63          	bne	a0,a5,400011a2 <find_volume+0xf2>
    40001152:	848a                	mv	s1,sp
    40001154:	1fa40913          	addi	s2,s0,506
    40001158:	23a40a13          	addi	s4,s0,570
    4000115c:	89a6                	mv	s3,s1
    4000115e:	ffc94783          	lbu	a5,-4(s2)
    40001162:	4501                	li	a0,0
    40001164:	c789                	beqz	a5,4000116e <find_volume+0xbe>
    40001166:	854a                	mv	a0,s2
    40001168:	c5bff0ef          	jal	ra,40000dc2 <LD_DWORD>
    4000116c:	2501                	sext.w	a0,a0
    4000116e:	00a9a023          	sw	a0,0(s3)
    40001172:	0941                	addi	s2,s2,16
    40001174:	0991                	addi	s3,s3,4
    40001176:	ff2a14e3          	bne	s4,s2,4000115e <find_volume+0xae>
    4000117a:	01048913          	addi	s2,s1,16
    4000117e:	0004aa83          	lw	s5,0(s1)
    40001182:	4509                	li	a0,2
    40001184:	000a8763          	beqz	s5,40001192 <find_volume+0xe2>
    40001188:	85d6                	mv	a1,s5
    4000118a:	8522                	mv	a0,s0
    4000118c:	e9dff0ef          	jal	ra,40001028 <check_fs>
    40001190:	c10d                	beqz	a0,400011b2 <find_volume+0x102>
    40001192:	0491                	addi	s1,s1,4
    40001194:	fe9915e3          	bne	s2,s1,4000117e <find_volume+0xce>
    40001198:	470d                	li	a4,3
    4000119a:	4785                	li	a5,1
    4000119c:	00e51963          	bne	a0,a4,400011ae <find_volume+0xfe>
    400011a0:	b7bd                	j	4000110e <find_volume+0x5e>
    400011a2:	470d                	li	a4,3
    400011a4:	4785                	li	a5,1
    400011a6:	f6e504e3          	beq	a0,a4,4000110e <find_volume+0x5e>
    400011aa:	4a81                	li	s5,0
    400011ac:	c119                	beqz	a0,400011b2 <find_volume+0x102>
    400011ae:	47b5                	li	a5,13
    400011b0:	bfb9                	j	4000110e <find_volume+0x5e>
    400011b2:	04044783          	lbu	a5,64(s0)
    400011b6:	03f44703          	lbu	a4,63(s0)
    400011ba:	0087979b          	slliw	a5,a5,0x8
    400011be:	8fd9                	or	a5,a5,a4
    400011c0:	0107979b          	slliw	a5,a5,0x10
    400011c4:	4107d79b          	sraiw	a5,a5,0x10
    400011c8:	20000713          	li	a4,512
    400011cc:	fef711e3          	bne	a4,a5,400011ae <find_volume+0xfe>
    400011d0:	04b44983          	lbu	s3,75(s0)
    400011d4:	04a44783          	lbu	a5,74(s0)
    400011d8:	0089999b          	slliw	s3,s3,0x8
    400011dc:	00f9e9b3          	or	s3,s3,a5
    400011e0:	1a098663          	beqz	s3,4000138c <find_volume+0x2dc>
    400011e4:	2981                	sext.w	s3,s3
    400011e6:	04444903          	lbu	s2,68(s0)
    400011ea:	01342e23          	sw	s3,28(s0)
    400011ee:	4705                	li	a4,1
    400011f0:	fff9079b          	addiw	a5,s2,-1
    400011f4:	012401a3          	sb	s2,3(s0)
    400011f8:	0ff7f793          	andi	a5,a5,255
    400011fc:	faf769e3          	bltu	a4,a5,400011ae <find_volume+0xfe>
    40001200:	04144b03          	lbu	s6,65(s0)
    40001204:	01640123          	sb	s6,2(s0)
    40001208:	fa0b03e3          	beqz	s6,400011ae <find_volume+0xfe>
    4000120c:	fffb079b          	addiw	a5,s6,-1
    40001210:	00fb77b3          	and	a5,s6,a5
    40001214:	ffc9                	bnez	a5,400011ae <find_volume+0xfe>
    40001216:	04644a03          	lbu	s4,70(s0)
    4000121a:	04544783          	lbu	a5,69(s0)
    4000121e:	008a1a1b          	slliw	s4,s4,0x8
    40001222:	00fa6a33          	or	s4,s4,a5
    40001226:	01441423          	sh	s4,8(s0)
    4000122a:	00fa7793          	andi	a5,s4,15
    4000122e:	f3c1                	bnez	a5,400011ae <find_volume+0xfe>
    40001230:	04844503          	lbu	a0,72(s0)
    40001234:	04744483          	lbu	s1,71(s0)
    40001238:	0085151b          	slliw	a0,a0,0x8
    4000123c:	8d45                	or	a0,a0,s1
    4000123e:	14050e63          	beqz	a0,4000139a <find_volume+0x2ea>
    40001242:	04344783          	lbu	a5,67(s0)
    40001246:	04244703          	lbu	a4,66(s0)
    4000124a:	2501                	sext.w	a0,a0
    4000124c:	0087979b          	slliw	a5,a5,0x8
    40001250:	8fd9                	or	a5,a5,a4
    40001252:	dfb1                	beqz	a5,400011ae <find_volume+0xfe>
    40001254:	033906bb          	mulw	a3,s2,s3
    40001258:	2781                	sext.w	a5,a5
    4000125a:	004a571b          	srliw	a4,s4,0x4
    4000125e:	9f3d                	addw	a4,a4,a5
    40001260:	00d7063b          	addw	a2,a4,a3
    40001264:	8732                	mv	a4,a2
    40001266:	f4c564e3          	bltu	a0,a2,400011ae <find_volume+0xfe>
    4000126a:	40c504bb          	subw	s1,a0,a2
    4000126e:	0364d5bb          	divuw	a1,s1,s6
    40001272:	84ae                	mv	s1,a1
    40001274:	dd8d                	beqz	a1,400011ae <find_volume+0xfe>
    40001276:	6905                	lui	s2,0x1
    40001278:	1955                	addi	s2,s2,-11
    4000127a:	6641                	lui	a2,0x10
    4000127c:	00b93933          	sltu	s2,s2,a1
    40001280:	1655                	addi	a2,a2,-11
    40001282:	0905                	addi	s2,s2,1
    40001284:	00b67363          	bleu	a1,a2,4000128a <find_volume+0x1da>
    40001288:	490d                	li	s2,3
    4000128a:	00ea873b          	addw	a4,s5,a4
    4000128e:	2489                	addiw	s1,s1,2
    40001290:	015787bb          	addw	a5,a5,s5
    40001294:	d458                	sw	a4,44(s0)
    40001296:	cc04                	sw	s1,24(s0)
    40001298:	03542023          	sw	s5,32(s0)
    4000129c:	d05c                	sw	a5,36(s0)
    4000129e:	470d                	li	a4,3
    400012a0:	10e91263          	bne	s2,a4,400013a4 <find_volume+0x2f4>
    400012a4:	f00a15e3          	bnez	s4,400011ae <find_volume+0xfe>
    400012a8:	06040513          	addi	a0,s0,96
    400012ac:	b17ff0ef          	jal	ra,40000dc2 <LD_DWORD>
    400012b0:	d408                	sw	a0,40(s0)
    400012b2:	0024949b          	slliw	s1,s1,0x2
    400012b6:	1ff4849b          	addiw	s1,s1,511
    400012ba:	0094d49b          	srliw	s1,s1,0x9
    400012be:	2481                	sext.w	s1,s1
    400012c0:	ee99e7e3          	bltu	s3,s1,400011ae <find_volume+0xfe>
    400012c4:	57fd                	li	a5,-1
    400012c6:	c81c                	sw	a5,16(s0)
    400012c8:	c45c                	sw	a5,12(s0)
    400012ca:	f8000793          	li	a5,-128
    400012ce:	00f402a3          	sb	a5,5(s0)
    400012d2:	478d                	li	a5,3
    400012d4:	08f91963          	bne	s2,a5,40001366 <find_volume+0x2b6>
    400012d8:	06544783          	lbu	a5,101(s0)
    400012dc:	06444703          	lbu	a4,100(s0)
    400012e0:	0087979b          	slliw	a5,a5,0x8
    400012e4:	8fd9                	or	a5,a5,a4
    400012e6:	0107979b          	slliw	a5,a5,0x10
    400012ea:	4107d79b          	sraiw	a5,a5,0x10
    400012ee:	4705                	li	a4,1
    400012f0:	06f71b63          	bne	a4,a5,40001366 <find_volume+0x2b6>
    400012f4:	001a859b          	addiw	a1,s5,1
    400012f8:	8522                	mv	a0,s0
    400012fa:	ce5ff0ef          	jal	ra,40000fde <move_window>
    400012fe:	2501                	sext.w	a0,a0
    40001300:	e13d                	bnez	a0,40001366 <find_volume+0x2b6>
    40001302:	23344783          	lbu	a5,563(s0)
    40001306:	23244703          	lbu	a4,562(s0)
    4000130a:	000402a3          	sb	zero,5(s0)
    4000130e:	0087979b          	slliw	a5,a5,0x8
    40001312:	8fd9                	or	a5,a5,a4
    40001314:	0107979b          	slliw	a5,a5,0x10
    40001318:	776d                	lui	a4,0xffffb
    4000131a:	4107d79b          	sraiw	a5,a5,0x10
    4000131e:	a5570713          	addi	a4,a4,-1451 # ffffffffffffaa55 <_end+0xffffffffbfff24ed>
    40001322:	04f71263          	bne	a4,a5,40001366 <find_volume+0x2b6>
    40001326:	03440513          	addi	a0,s0,52
    4000132a:	a99ff0ef          	jal	ra,40000dc2 <LD_DWORD>
    4000132e:	416157b7          	lui	a5,0x41615
    40001332:	2501                	sext.w	a0,a0
    40001334:	25278793          	addi	a5,a5,594 # 41615252 <_end+0x160ccea>
    40001338:	02f51763          	bne	a0,a5,40001366 <find_volume+0x2b6>
    4000133c:	21840513          	addi	a0,s0,536
    40001340:	a83ff0ef          	jal	ra,40000dc2 <LD_DWORD>
    40001344:	614177b7          	lui	a5,0x61417
    40001348:	2501                	sext.w	a0,a0
    4000134a:	27278793          	addi	a5,a5,626 # 61417272 <_end+0x2140ed0a>
    4000134e:	00f51c63          	bne	a0,a5,40001366 <find_volume+0x2b6>
    40001352:	21c40513          	addi	a0,s0,540
    40001356:	a6dff0ef          	jal	ra,40000dc2 <LD_DWORD>
    4000135a:	c808                	sw	a0,16(s0)
    4000135c:	22040513          	addi	a0,s0,544
    40001360:	a63ff0ef          	jal	ra,40000dc2 <LD_DWORD>
    40001364:	c448                	sw	a0,12(s0)
    40001366:	00006797          	auipc	a5,0x6
    4000136a:	ca07d783          	lhu	a5,-864(a5) # 40007006 <Fsid>
    4000136e:	2785                	addiw	a5,a5,1
    40001370:	17c2                	slli	a5,a5,0x30
    40001372:	93c1                	srli	a5,a5,0x30
    40001374:	00006717          	auipc	a4,0x6
    40001378:	c8f71923          	sh	a5,-878(a4) # 40007006 <Fsid>
    4000137c:	00f41323          	sh	a5,6(s0)
    40001380:	01240023          	sb	s2,0(s0)
    40001384:	00042a23          	sw	zero,20(s0)
    40001388:	4781                	li	a5,0
    4000138a:	b351                	j	4000110e <find_volume+0x5e>
    4000138c:	05840513          	addi	a0,s0,88
    40001390:	a33ff0ef          	jal	ra,40000dc2 <LD_DWORD>
    40001394:	0005099b          	sext.w	s3,a0
    40001398:	b5b9                	j	400011e6 <find_volume+0x136>
    4000139a:	05440513          	addi	a0,s0,84
    4000139e:	a25ff0ef          	jal	ra,40000dc2 <LD_DWORD>
    400013a2:	b545                	j	40001242 <find_volume+0x192>
    400013a4:	e00a05e3          	beqz	s4,400011ae <find_volume+0xfe>
    400013a8:	9fb5                	addw	a5,a5,a3
    400013aa:	d41c                	sw	a5,40(s0)
    400013ac:	4789                	li	a5,2
    400013ae:	00f91563          	bne	s2,a5,400013b8 <find_volume+0x308>
    400013b2:	0014949b          	slliw	s1,s1,0x1
    400013b6:	b701                	j	400012b6 <find_volume+0x206>
    400013b8:	478d                	li	a5,3
    400013ba:	029787bb          	mulw	a5,a5,s1
    400013be:	8885                	andi	s1,s1,1
    400013c0:	0017d79b          	srliw	a5,a5,0x1
    400013c4:	9cbd                	addw	s1,s1,a5
    400013c6:	bdc5                	j	400012b6 <find_volume+0x206>

00000000400013c8 <sync_fs>:
    400013c8:	1101                	addi	sp,sp,-32
    400013ca:	e822                	sd	s0,16(sp)
    400013cc:	ec06                	sd	ra,24(sp)
    400013ce:	e426                	sd	s1,8(sp)
    400013d0:	842a                	mv	s0,a0
    400013d2:	bffff0ef          	jal	ra,40000fd0 <sync_window>
    400013d6:	2501                	sext.w	a0,a0
    400013d8:	ed69                	bnez	a0,400014b2 <sync_fs+0xea>
    400013da:	00044703          	lbu	a4,0(s0)
    400013de:	478d                	li	a5,3
    400013e0:	0cf71063          	bne	a4,a5,400014a0 <sync_fs+0xd8>
    400013e4:	00544703          	lbu	a4,5(s0)
    400013e8:	4785                	li	a5,1
    400013ea:	0af71b63          	bne	a4,a5,400014a0 <sync_fs+0xd8>
    400013ee:	03440493          	addi	s1,s0,52
    400013f2:	20000613          	li	a2,512
    400013f6:	4581                	li	a1,0
    400013f8:	8526                	mv	a0,s1
    400013fa:	a01ff0ef          	jal	ra,40000dfa <mem_set>
    400013fe:	05500793          	li	a5,85
    40001402:	22f40923          	sb	a5,562(s0)
    40001406:	faa00793          	li	a5,-86
    4000140a:	22f409a3          	sb	a5,563(s0)
    4000140e:	05200793          	li	a5,82
    40001412:	02f40a23          	sb	a5,52(s0)
    40001416:	02f40aa3          	sb	a5,53(s0)
    4000141a:	06100793          	li	a5,97
    4000141e:	02f40b23          	sb	a5,54(s0)
    40001422:	20f40da3          	sb	a5,539(s0)
    40001426:	481c                	lw	a5,16(s0)
    40001428:	04100713          	li	a4,65
    4000142c:	02e40ba3          	sb	a4,55(s0)
    40001430:	20e40d23          	sb	a4,538(s0)
    40001434:	0107971b          	slliw	a4,a5,0x10
    40001438:	0107571b          	srliw	a4,a4,0x10
    4000143c:	0087571b          	srliw	a4,a4,0x8
    40001440:	20f40e23          	sb	a5,540(s0)
    40001444:	20e40ea3          	sb	a4,541(s0)
    40001448:	0107d71b          	srliw	a4,a5,0x10
    4000144c:	0187d79b          	srliw	a5,a5,0x18
    40001450:	20f40fa3          	sb	a5,543(s0)
    40001454:	445c                	lw	a5,12(s0)
    40001456:	20e40f23          	sb	a4,542(s0)
    4000145a:	5010                	lw	a2,32(s0)
    4000145c:	0107971b          	slliw	a4,a5,0x10
    40001460:	0107571b          	srliw	a4,a4,0x10
    40001464:	0087571b          	srliw	a4,a4,0x8
    40001468:	00144503          	lbu	a0,1(s0)
    4000146c:	07200693          	li	a3,114
    40001470:	22f40023          	sb	a5,544(s0)
    40001474:	22e400a3          	sb	a4,545(s0)
    40001478:	2605                	addiw	a2,a2,1
    4000147a:	0107d71b          	srliw	a4,a5,0x10
    4000147e:	0187d79b          	srliw	a5,a5,0x18
    40001482:	20d40c23          	sb	a3,536(s0)
    40001486:	20d40ca3          	sb	a3,537(s0)
    4000148a:	22e40123          	sb	a4,546(s0)
    4000148e:	22f401a3          	sb	a5,547(s0)
    40001492:	d810                	sw	a2,48(s0)
    40001494:	4685                	li	a3,1
    40001496:	85a6                	mv	a1,s1
    40001498:	590040ef          	jal	ra,40005a28 <disk_write>
    4000149c:	000402a3          	sb	zero,5(s0)
    400014a0:	00144503          	lbu	a0,1(s0)
    400014a4:	4601                	li	a2,0
    400014a6:	4581                	li	a1,0
    400014a8:	640040ef          	jal	ra,40005ae8 <disk_ioctl>
    400014ac:	2501                	sext.w	a0,a0
    400014ae:	00a03533          	snez	a0,a0
    400014b2:	60e2                	ld	ra,24(sp)
    400014b4:	6442                	ld	s0,16(sp)
    400014b6:	64a2                	ld	s1,8(sp)
    400014b8:	6105                	addi	sp,sp,32
    400014ba:	8082                	ret

00000000400014bc <clust2sect>:
    400014bc:	4d1c                	lw	a5,24(a0)
    400014be:	ffe5869b          	addiw	a3,a1,-2
    400014c2:	37f9                	addiw	a5,a5,-2
    400014c4:	00f6f963          	bleu	a5,a3,400014d6 <clust2sect+0x1a>
    400014c8:	00254583          	lbu	a1,2(a0)
    400014cc:	5548                	lw	a0,44(a0)
    400014ce:	02d585bb          	mulw	a1,a1,a3
    400014d2:	9d2d                	addw	a0,a0,a1
    400014d4:	8082                	ret
    400014d6:	4501                	li	a0,0
    400014d8:	8082                	ret

00000000400014da <get_fat>:
    400014da:	4785                	li	a5,1
    400014dc:	0eb7f763          	bleu	a1,a5,400015ca <get_fat+0xf0>
    400014e0:	4d18                	lw	a4,24(a0)
    400014e2:	7179                	addi	sp,sp,-48
    400014e4:	e84a                	sd	s2,16(sp)
    400014e6:	f406                	sd	ra,40(sp)
    400014e8:	f022                	sd	s0,32(sp)
    400014ea:	ec26                	sd	s1,24(sp)
    400014ec:	e44e                	sd	s3,8(sp)
    400014ee:	892a                	mv	s2,a0
    400014f0:	02e5f963          	bleu	a4,a1,40001522 <get_fat+0x48>
    400014f4:	00054703          	lbu	a4,0(a0)
    400014f8:	4689                	li	a3,2
    400014fa:	842e                	mv	s0,a1
    400014fc:	06d70c63          	beq	a4,a3,40001574 <get_fat+0x9a>
    40001500:	468d                	li	a3,3
    40001502:	08d70e63          	beq	a4,a3,4000159e <get_fat+0xc4>
    40001506:	00f71e63          	bne	a4,a5,40001522 <get_fat+0x48>
    4000150a:	0015d49b          	srliw	s1,a1,0x1
    4000150e:	515c                	lw	a5,36(a0)
    40001510:	9cad                	addw	s1,s1,a1
    40001512:	0094d59b          	srliw	a1,s1,0x9
    40001516:	9dbd                	addw	a1,a1,a5
    40001518:	ac7ff0ef          	jal	ra,40000fde <move_window>
    4000151c:	2501                	sext.w	a0,a0
    4000151e:	c911                	beqz	a0,40001532 <get_fat+0x58>
    40001520:	57fd                	li	a5,-1
    40001522:	70a2                	ld	ra,40(sp)
    40001524:	7402                	ld	s0,32(sp)
    40001526:	64e2                	ld	s1,24(sp)
    40001528:	6942                	ld	s2,16(sp)
    4000152a:	69a2                	ld	s3,8(sp)
    4000152c:	853e                	mv	a0,a5
    4000152e:	6145                	addi	sp,sp,48
    40001530:	8082                	ret
    40001532:	02492783          	lw	a5,36(s2) # 1024 <_tbss_end+0x1024>
    40001536:	0014899b          	addiw	s3,s1,1
    4000153a:	0099d59b          	srliw	a1,s3,0x9
    4000153e:	1ff4f493          	andi	s1,s1,511
    40001542:	94ca                	add	s1,s1,s2
    40001544:	9dbd                	addw	a1,a1,a5
    40001546:	854a                	mv	a0,s2
    40001548:	0344c483          	lbu	s1,52(s1)
    4000154c:	a93ff0ef          	jal	ra,40000fde <move_window>
    40001550:	2501                	sext.w	a0,a0
    40001552:	f579                	bnez	a0,40001520 <get_fat+0x46>
    40001554:	1ff9f993          	andi	s3,s3,511
    40001558:	994e                	add	s2,s2,s3
    4000155a:	03494783          	lbu	a5,52(s2)
    4000155e:	8805                	andi	s0,s0,1
    40001560:	0087979b          	slliw	a5,a5,0x8
    40001564:	8fc5                	or	a5,a5,s1
    40001566:	c019                	beqz	s0,4000156c <get_fat+0x92>
    40001568:	8391                	srli	a5,a5,0x4
    4000156a:	bf65                	j	40001522 <get_fat+0x48>
    4000156c:	6505                	lui	a0,0x1
    4000156e:	157d                	addi	a0,a0,-1
    40001570:	8fe9                	and	a5,a5,a0
    40001572:	bf45                	j	40001522 <get_fat+0x48>
    40001574:	515c                	lw	a5,36(a0)
    40001576:	0085d59b          	srliw	a1,a1,0x8
    4000157a:	9dbd                	addw	a1,a1,a5
    4000157c:	a63ff0ef          	jal	ra,40000fde <move_window>
    40001580:	2501                	sext.w	a0,a0
    40001582:	fd59                	bnez	a0,40001520 <get_fat+0x46>
    40001584:	0014141b          	slliw	s0,s0,0x1
    40001588:	1fe47413          	andi	s0,s0,510
    4000158c:	9922                	add	s2,s2,s0
    4000158e:	03594783          	lbu	a5,53(s2)
    40001592:	03494503          	lbu	a0,52(s2)
    40001596:	0087979b          	slliw	a5,a5,0x8
    4000159a:	8fc9                	or	a5,a5,a0
    4000159c:	b759                	j	40001522 <get_fat+0x48>
    4000159e:	515c                	lw	a5,36(a0)
    400015a0:	0075d59b          	srliw	a1,a1,0x7
    400015a4:	9dbd                	addw	a1,a1,a5
    400015a6:	a39ff0ef          	jal	ra,40000fde <move_window>
    400015aa:	2501                	sext.w	a0,a0
    400015ac:	f935                	bnez	a0,40001520 <get_fat+0x46>
    400015ae:	0024151b          	slliw	a0,s0,0x2
    400015b2:	1fc57513          	andi	a0,a0,508
    400015b6:	03450513          	addi	a0,a0,52 # 1034 <_tbss_end+0x1034>
    400015ba:	954a                	add	a0,a0,s2
    400015bc:	807ff0ef          	jal	ra,40000dc2 <LD_DWORD>
    400015c0:	100007b7          	lui	a5,0x10000
    400015c4:	2501                	sext.w	a0,a0
    400015c6:	17fd                	addi	a5,a5,-1
    400015c8:	b765                	j	40001570 <get_fat+0x96>
    400015ca:	4785                	li	a5,1
    400015cc:	853e                	mv	a0,a5
    400015ce:	8082                	ret

00000000400015d0 <dir_sdi>:
    400015d0:	7139                	addi	sp,sp,-64
    400015d2:	f822                	sd	s0,48(sp)
    400015d4:	4540                	lw	s0,12(a0)
    400015d6:	f04a                	sd	s2,32(sp)
    400015d8:	fc06                	sd	ra,56(sp)
    400015da:	f426                	sd	s1,40(sp)
    400015dc:	ec4e                	sd	s3,24(sp)
    400015de:	e852                	sd	s4,16(sp)
    400015e0:	e456                	sd	s5,8(sp)
    400015e2:	00b51523          	sh	a1,10(a0)
    400015e6:	4785                	li	a5,1
    400015e8:	892a                	mv	s2,a0
    400015ea:	00f41c63          	bne	s0,a5,40001602 <dir_sdi+0x32>
    400015ee:	4509                	li	a0,2
    400015f0:	70e2                	ld	ra,56(sp)
    400015f2:	7442                	ld	s0,48(sp)
    400015f4:	74a2                	ld	s1,40(sp)
    400015f6:	7902                	ld	s2,32(sp)
    400015f8:	69e2                	ld	s3,24(sp)
    400015fa:	6a42                	ld	s4,16(sp)
    400015fc:	6aa2                	ld	s5,8(sp)
    400015fe:	6121                	addi	sp,sp,64
    40001600:	8082                	ret
    40001602:	611c                	ld	a5,0(a0)
    40001604:	4f98                	lw	a4,24(a5)
    40001606:	fee474e3          	bleu	a4,s0,400015ee <dir_sdi+0x1e>
    4000160a:	84ae                	mv	s1,a1
    4000160c:	e021                	bnez	s0,4000164c <dir_sdi+0x7c>
    4000160e:	0007c683          	lbu	a3,0(a5) # 10000000 <_tbss_end+0x10000000>
    40001612:	470d                	li	a4,3
    40001614:	00e69463          	bne	a3,a4,4000161c <dir_sdi+0x4c>
    40001618:	5798                	lw	a4,40(a5)
    4000161a:	eb15                	bnez	a4,4000164e <dir_sdi+0x7e>
    4000161c:	0087d703          	lhu	a4,8(a5)
    40001620:	fce4f7e3          	bleu	a4,s1,400015ee <dir_sdi+0x1e>
    40001624:	5788                	lw	a0,40(a5)
    40001626:	00892823          	sw	s0,16(s2)
    4000162a:	d171                	beqz	a0,400015ee <dir_sdi+0x1e>
    4000162c:	0044d79b          	srliw	a5,s1,0x4
    40001630:	9d3d                	addw	a0,a0,a5
    40001632:	00093783          	ld	a5,0(s2)
    40001636:	88bd                	andi	s1,s1,15
    40001638:	0496                	slli	s1,s1,0x5
    4000163a:	03478793          	addi	a5,a5,52
    4000163e:	94be                	add	s1,s1,a5
    40001640:	00a92a23          	sw	a0,20(s2)
    40001644:	00993c23          	sd	s1,24(s2)
    40001648:	4501                	li	a0,0
    4000164a:	b75d                	j	400015f0 <dir_sdi+0x20>
    4000164c:	8722                	mv	a4,s0
    4000164e:	0027c983          	lbu	s3,2(a5)
    40001652:	843a                	mv	s0,a4
    40001654:	5a7d                	li	s4,-1
    40001656:	0992                	slli	s3,s3,0x4
    40001658:	4a85                	li	s5,1
    4000165a:	00093503          	ld	a0,0(s2)
    4000165e:	85a2                	mv	a1,s0
    40001660:	0134f663          	bleu	s3,s1,4000166c <dir_sdi+0x9c>
    40001664:	e59ff0ef          	jal	ra,400014bc <clust2sect>
    40001668:	2501                	sext.w	a0,a0
    4000166a:	bf75                	j	40001626 <dir_sdi+0x56>
    4000166c:	e6fff0ef          	jal	ra,400014da <get_fat>
    40001670:	0005041b          	sext.w	s0,a0
    40001674:	01440c63          	beq	s0,s4,4000168c <dir_sdi+0xbc>
    40001678:	f68afbe3          	bleu	s0,s5,400015ee <dir_sdi+0x1e>
    4000167c:	00093783          	ld	a5,0(s2)
    40001680:	4f9c                	lw	a5,24(a5)
    40001682:	f6f476e3          	bleu	a5,s0,400015ee <dir_sdi+0x1e>
    40001686:	413484bb          	subw	s1,s1,s3
    4000168a:	bfc1                	j	4000165a <dir_sdi+0x8a>
    4000168c:	4505                	li	a0,1
    4000168e:	b78d                	j	400015f0 <dir_sdi+0x20>

0000000040001690 <dir_remove>:
    40001690:	00a55583          	lhu	a1,10(a0)
    40001694:	1101                	addi	sp,sp,-32
    40001696:	e822                	sd	s0,16(sp)
    40001698:	e426                	sd	s1,8(sp)
    4000169a:	ec06                	sd	ra,24(sp)
    4000169c:	842a                	mv	s0,a0
    4000169e:	f33ff0ef          	jal	ra,400015d0 <dir_sdi>
    400016a2:	0005049b          	sext.w	s1,a0
    400016a6:	e495                	bnez	s1,400016d2 <dir_remove+0x42>
    400016a8:	484c                	lw	a1,20(s0)
    400016aa:	6008                	ld	a0,0(s0)
    400016ac:	933ff0ef          	jal	ra,40000fde <move_window>
    400016b0:	0005049b          	sext.w	s1,a0
    400016b4:	ec99                	bnez	s1,400016d2 <dir_remove+0x42>
    400016b6:	6c08                	ld	a0,24(s0)
    400016b8:	02000613          	li	a2,32
    400016bc:	4581                	li	a1,0
    400016be:	f3cff0ef          	jal	ra,40000dfa <mem_set>
    400016c2:	6c1c                	ld	a5,24(s0)
    400016c4:	5715                	li	a4,-27
    400016c6:	00e78023          	sb	a4,0(a5)
    400016ca:	601c                	ld	a5,0(s0)
    400016cc:	4705                	li	a4,1
    400016ce:	00e78223          	sb	a4,4(a5)
    400016d2:	60e2                	ld	ra,24(sp)
    400016d4:	6442                	ld	s0,16(sp)
    400016d6:	8526                	mv	a0,s1
    400016d8:	64a2                	ld	s1,8(sp)
    400016da:	6105                	addi	sp,sp,32
    400016dc:	8082                	ret

00000000400016de <put_fat>:
    400016de:	7139                	addi	sp,sp,-64
    400016e0:	e852                	sd	s4,16(sp)
    400016e2:	fc06                	sd	ra,56(sp)
    400016e4:	f822                	sd	s0,48(sp)
    400016e6:	f426                	sd	s1,40(sp)
    400016e8:	f04a                	sd	s2,32(sp)
    400016ea:	ec4e                	sd	s3,24(sp)
    400016ec:	e456                	sd	s5,8(sp)
    400016ee:	4a05                	li	s4,1
    400016f0:	16ba7563          	bleu	a1,s4,4000185a <put_fat+0x17c>
    400016f4:	4d1c                	lw	a5,24(a0)
    400016f6:	84aa                	mv	s1,a0
    400016f8:	4989                	li	s3,2
    400016fa:	0af5f063          	bleu	a5,a1,4000179a <put_fat+0xbc>
    400016fe:	00054783          	lbu	a5,0(a0)
    40001702:	4709                	li	a4,2
    40001704:	8932                	mv	s2,a2
    40001706:	842e                	mv	s0,a1
    40001708:	0ae78f63          	beq	a5,a4,400017c6 <put_fat+0xe8>
    4000170c:	470d                	li	a4,3
    4000170e:	0ee78863          	beq	a5,a4,400017fe <put_fat+0x120>
    40001712:	15479463          	bne	a5,s4,4000185a <put_fat+0x17c>
    40001716:	0015da1b          	srliw	s4,a1,0x1
    4000171a:	515c                	lw	a5,36(a0)
    4000171c:	00ba0a3b          	addw	s4,s4,a1
    40001720:	009a559b          	srliw	a1,s4,0x9
    40001724:	9dbd                	addw	a1,a1,a5
    40001726:	8b9ff0ef          	jal	ra,40000fde <move_window>
    4000172a:	0005099b          	sext.w	s3,a0
    4000172e:	06099663          	bnez	s3,4000179a <put_fat+0xbc>
    40001732:	8805                	andi	s0,s0,1
    40001734:	001a0a9b          	addiw	s5,s4,1
    40001738:	0ff97793          	andi	a5,s2,255
    4000173c:	1ffa7a13          	andi	s4,s4,511
    40001740:	cc19                	beqz	s0,4000175e <put_fat+0x80>
    40001742:	014487b3          	add	a5,s1,s4
    40001746:	0347c783          	lbu	a5,52(a5)
    4000174a:	6685                	lui	a3,0x1
    4000174c:	16c1                	addi	a3,a3,-16
    4000174e:	00f7f713          	andi	a4,a5,15
    40001752:	0049179b          	slliw	a5,s2,0x4
    40001756:	8ff5                	and	a5,a5,a3
    40001758:	8fd9                	or	a5,a5,a4
    4000175a:	0ff7f793          	andi	a5,a5,255
    4000175e:	9a26                	add	s4,s4,s1
    40001760:	02fa0a23          	sb	a5,52(s4)
    40001764:	4785                	li	a5,1
    40001766:	00f48223          	sb	a5,4(s1)
    4000176a:	50dc                	lw	a5,36(s1)
    4000176c:	009ad59b          	srliw	a1,s5,0x9
    40001770:	8526                	mv	a0,s1
    40001772:	9dbd                	addw	a1,a1,a5
    40001774:	86bff0ef          	jal	ra,40000fde <move_window>
    40001778:	0005099b          	sext.w	s3,a0
    4000177c:	00099f63          	bnez	s3,4000179a <put_fat+0xbc>
    40001780:	1ffafa93          	andi	s5,s5,511
    40001784:	c40d                	beqz	s0,400017ae <put_fat+0xd0>
    40001786:	0049591b          	srliw	s2,s2,0x4
    4000178a:	0ff97913          	andi	s2,s2,255
    4000178e:	9aa6                	add	s5,s5,s1
    40001790:	032a8a23          	sb	s2,52(s5)
    40001794:	4785                	li	a5,1
    40001796:	00f48223          	sb	a5,4(s1)
    4000179a:	70e2                	ld	ra,56(sp)
    4000179c:	7442                	ld	s0,48(sp)
    4000179e:	854e                	mv	a0,s3
    400017a0:	74a2                	ld	s1,40(sp)
    400017a2:	7902                	ld	s2,32(sp)
    400017a4:	69e2                	ld	s3,24(sp)
    400017a6:	6a42                	ld	s4,16(sp)
    400017a8:	6aa2                	ld	s5,8(sp)
    400017aa:	6121                	addi	sp,sp,64
    400017ac:	8082                	ret
    400017ae:	015487b3          	add	a5,s1,s5
    400017b2:	0347c783          	lbu	a5,52(a5)
    400017b6:	0089591b          	srliw	s2,s2,0x8
    400017ba:	00f97913          	andi	s2,s2,15
    400017be:	9bc1                	andi	a5,a5,-16
    400017c0:	0127e933          	or	s2,a5,s2
    400017c4:	b7e9                	j	4000178e <put_fat+0xb0>
    400017c6:	515c                	lw	a5,36(a0)
    400017c8:	0085d59b          	srliw	a1,a1,0x8
    400017cc:	9dbd                	addw	a1,a1,a5
    400017ce:	811ff0ef          	jal	ra,40000fde <move_window>
    400017d2:	0005099b          	sext.w	s3,a0
    400017d6:	fc0992e3          	bnez	s3,4000179a <put_fat+0xbc>
    400017da:	0014141b          	slliw	s0,s0,0x1
    400017de:	1fe47413          	andi	s0,s0,510
    400017e2:	9426                	add	s0,s0,s1
    400017e4:	03240a23          	sb	s2,52(s0)
    400017e8:	0109191b          	slliw	s2,s2,0x10
    400017ec:	0109591b          	srliw	s2,s2,0x10
    400017f0:	0089591b          	srliw	s2,s2,0x8
    400017f4:	03240aa3          	sb	s2,53(s0)
    400017f8:	01448223          	sb	s4,4(s1)
    400017fc:	bf79                	j	4000179a <put_fat+0xbc>
    400017fe:	515c                	lw	a5,36(a0)
    40001800:	0075d59b          	srliw	a1,a1,0x7
    40001804:	9dbd                	addw	a1,a1,a5
    40001806:	fd8ff0ef          	jal	ra,40000fde <move_window>
    4000180a:	0005099b          	sext.w	s3,a0
    4000180e:	f80996e3          	bnez	s3,4000179a <put_fat+0xbc>
    40001812:	0024141b          	slliw	s0,s0,0x2
    40001816:	1fc47413          	andi	s0,s0,508
    4000181a:	03440a93          	addi	s5,s0,52
    4000181e:	9aa6                	add	s5,s5,s1
    40001820:	8556                	mv	a0,s5
    40001822:	da0ff0ef          	jal	ra,40000dc2 <LD_DWORD>
    40001826:	2501                	sext.w	a0,a0
    40001828:	f0000637          	lui	a2,0xf0000
    4000182c:	8d71                	and	a0,a0,a2
    4000182e:	01256933          	or	s2,a0,s2
    40001832:	0109179b          	slliw	a5,s2,0x10
    40001836:	9426                	add	s0,s0,s1
    40001838:	0107d79b          	srliw	a5,a5,0x10
    4000183c:	03240a23          	sb	s2,52(s0)
    40001840:	0087d79b          	srliw	a5,a5,0x8
    40001844:	00fa80a3          	sb	a5,1(s5)
    40001848:	0109579b          	srliw	a5,s2,0x10
    4000184c:	0189591b          	srliw	s2,s2,0x18
    40001850:	00fa8123          	sb	a5,2(s5)
    40001854:	012a81a3          	sb	s2,3(s5)
    40001858:	b745                	j	400017f8 <put_fat+0x11a>
    4000185a:	4989                	li	s3,2
    4000185c:	bf3d                	j	4000179a <put_fat+0xbc>

000000004000185e <create_chain>:
    4000185e:	7139                	addi	sp,sp,-64
    40001860:	f426                	sd	s1,40(sp)
    40001862:	ec4e                	sd	s3,24(sp)
    40001864:	fc06                	sd	ra,56(sp)
    40001866:	f822                	sd	s0,48(sp)
    40001868:	f04a                	sd	s2,32(sp)
    4000186a:	e852                	sd	s4,16(sp)
    4000186c:	e456                	sd	s5,8(sp)
    4000186e:	84aa                	mv	s1,a0
    40001870:	89ae                	mv	s3,a1
    40001872:	e19d                	bnez	a1,40001898 <create_chain+0x3a>
    40001874:	00c52903          	lw	s2,12(a0)
    40001878:	04090a63          	beqz	s2,400018cc <create_chain+0x6e>
    4000187c:	4d1c                	lw	a5,24(a0)
    4000187e:	04f97763          	bleu	a5,s2,400018cc <create_chain+0x6e>
    40001882:	844a                	mv	s0,s2
    40001884:	4a05                	li	s4,1
    40001886:	5afd                	li	s5,-1
    40001888:	4c9c                	lw	a5,24(s1)
    4000188a:	2405                	addiw	s0,s0,1
    4000188c:	04f46363          	bltu	s0,a5,400018d2 <create_chain+0x74>
    40001890:	052a6063          	bltu	s4,s2,400018d0 <create_chain+0x72>
    40001894:	4401                	li	s0,0
    40001896:	a821                	j	400018ae <create_chain+0x50>
    40001898:	c43ff0ef          	jal	ra,400014da <get_fat>
    4000189c:	0005041b          	sext.w	s0,a0
    400018a0:	4785                	li	a5,1
    400018a2:	0887f863          	bleu	s0,a5,40001932 <create_chain+0xd4>
    400018a6:	57fd                	li	a5,-1
    400018a8:	00f41d63          	bne	s0,a5,400018c2 <create_chain+0x64>
    400018ac:	547d                	li	s0,-1
    400018ae:	8522                	mv	a0,s0
    400018b0:	70e2                	ld	ra,56(sp)
    400018b2:	7442                	ld	s0,48(sp)
    400018b4:	74a2                	ld	s1,40(sp)
    400018b6:	7902                	ld	s2,32(sp)
    400018b8:	69e2                	ld	s3,24(sp)
    400018ba:	6a42                	ld	s4,16(sp)
    400018bc:	6aa2                	ld	s5,8(sp)
    400018be:	6121                	addi	sp,sp,64
    400018c0:	8082                	ret
    400018c2:	4c9c                	lw	a5,24(s1)
    400018c4:	894e                	mv	s2,s3
    400018c6:	faf47ee3          	bleu	a5,s0,40001882 <create_chain+0x24>
    400018ca:	b7d5                	j	400018ae <create_chain+0x50>
    400018cc:	4905                	li	s2,1
    400018ce:	bf55                	j	40001882 <create_chain+0x24>
    400018d0:	4409                	li	s0,2
    400018d2:	85a2                	mv	a1,s0
    400018d4:	8526                	mv	a0,s1
    400018d6:	c05ff0ef          	jal	ra,400014da <get_fat>
    400018da:	2501                	sext.w	a0,a0
    400018dc:	c901                	beqz	a0,400018ec <create_chain+0x8e>
    400018de:	fd5507e3          	beq	a0,s5,400018ac <create_chain+0x4e>
    400018e2:	05450863          	beq	a0,s4,40001932 <create_chain+0xd4>
    400018e6:	fb2411e3          	bne	s0,s2,40001888 <create_chain+0x2a>
    400018ea:	b76d                	j	40001894 <create_chain+0x36>
    400018ec:	10000637          	lui	a2,0x10000
    400018f0:	167d                	addi	a2,a2,-1
    400018f2:	85a2                	mv	a1,s0
    400018f4:	8526                	mv	a0,s1
    400018f6:	de9ff0ef          	jal	ra,400016de <put_fat>
    400018fa:	2501                	sext.w	a0,a0
    400018fc:	e905                	bnez	a0,4000192c <create_chain+0xce>
    400018fe:	02099063          	bnez	s3,4000191e <create_chain+0xc0>
    40001902:	489c                	lw	a5,16(s1)
    40001904:	c4c0                	sw	s0,12(s1)
    40001906:	577d                	li	a4,-1
    40001908:	fae783e3          	beq	a5,a4,400018ae <create_chain+0x50>
    4000190c:	37fd                	addiw	a5,a5,-1
    4000190e:	c89c                	sw	a5,16(s1)
    40001910:	0054c783          	lbu	a5,5(s1)
    40001914:	0017e793          	ori	a5,a5,1
    40001918:	00f482a3          	sb	a5,5(s1)
    4000191c:	bf49                	j	400018ae <create_chain+0x50>
    4000191e:	8622                	mv	a2,s0
    40001920:	85ce                	mv	a1,s3
    40001922:	8526                	mv	a0,s1
    40001924:	dbbff0ef          	jal	ra,400016de <put_fat>
    40001928:	2501                	sext.w	a0,a0
    4000192a:	dd61                	beqz	a0,40001902 <create_chain+0xa4>
    4000192c:	4785                	li	a5,1
    4000192e:	f6f50fe3          	beq	a0,a5,400018ac <create_chain+0x4e>
    40001932:	4405                	li	s0,1
    40001934:	bfad                	j	400018ae <create_chain+0x50>

0000000040001936 <dir_next>:
    40001936:	7139                	addi	sp,sp,-64
    40001938:	f04a                	sd	s2,32(sp)
    4000193a:	00a55903          	lhu	s2,10(a0)
    4000193e:	fc06                	sd	ra,56(sp)
    40001940:	f822                	sd	s0,48(sp)
    40001942:	2905                	addiw	s2,s2,1
    40001944:	03091793          	slli	a5,s2,0x30
    40001948:	f426                	sd	s1,40(sp)
    4000194a:	ec4e                	sd	s3,24(sp)
    4000194c:	e852                	sd	s4,16(sp)
    4000194e:	e456                	sd	s5,8(sp)
    40001950:	93c1                	srli	a5,a5,0x30
    40001952:	eb99                	bnez	a5,40001968 <dir_next+0x32>
    40001954:	4511                	li	a0,4
    40001956:	70e2                	ld	ra,56(sp)
    40001958:	7442                	ld	s0,48(sp)
    4000195a:	74a2                	ld	s1,40(sp)
    4000195c:	7902                	ld	s2,32(sp)
    4000195e:	69e2                	ld	s3,24(sp)
    40001960:	6a42                	ld	s4,16(sp)
    40001962:	6aa2                	ld	s5,8(sp)
    40001964:	6121                	addi	sp,sp,64
    40001966:	8082                	ret
    40001968:	495c                	lw	a5,20(a0)
    4000196a:	d7ed                	beqz	a5,40001954 <dir_next+0x1e>
    4000196c:	00f97993          	andi	s3,s2,15
    40001970:	8a2e                	mv	s4,a1
    40001972:	842a                	mv	s0,a0
    40001974:	00099d63          	bnez	s3,4000198e <dir_next+0x58>
    40001978:	480c                	lw	a1,16(s0)
    4000197a:	2785                	addiw	a5,a5,1
    4000197c:	6108                	ld	a0,0(a0)
    4000197e:	c85c                	sw	a5,20(s0)
    40001980:	e18d                	bnez	a1,400019a2 <dir_next+0x6c>
    40001982:	00855783          	lhu	a5,8(a0)
    40001986:	0009071b          	sext.w	a4,s2
    4000198a:	fcf775e3          	bleu	a5,a4,40001954 <dir_next+0x1e>
    4000198e:	601c                	ld	a5,0(s0)
    40001990:	0996                	slli	s3,s3,0x5
    40001992:	01241523          	sh	s2,10(s0)
    40001996:	03478793          	addi	a5,a5,52
    4000199a:	97ce                	add	a5,a5,s3
    4000199c:	ec1c                	sd	a5,24(s0)
    4000199e:	4501                	li	a0,0
    400019a0:	bf5d                	j	40001956 <dir_next+0x20>
    400019a2:	00254783          	lbu	a5,2(a0)
    400019a6:	00495a9b          	srliw	s5,s2,0x4
    400019aa:	37fd                	addiw	a5,a5,-1
    400019ac:	0157fab3          	and	s5,a5,s5
    400019b0:	fc0a9fe3          	bnez	s5,4000198e <dir_next+0x58>
    400019b4:	b27ff0ef          	jal	ra,400014da <get_fat>
    400019b8:	0005049b          	sext.w	s1,a0
    400019bc:	4785                	li	a5,1
    400019be:	0097e463          	bltu	a5,s1,400019c6 <dir_next+0x90>
    400019c2:	4509                	li	a0,2
    400019c4:	bf49                	j	40001956 <dir_next+0x20>
    400019c6:	57fd                	li	a5,-1
    400019c8:	00f49463          	bne	s1,a5,400019d0 <dir_next+0x9a>
    400019cc:	4505                	li	a0,1
    400019ce:	b761                	j	40001956 <dir_next+0x20>
    400019d0:	6008                	ld	a0,0(s0)
    400019d2:	4d1c                	lw	a5,24(a0)
    400019d4:	06f4e063          	bltu	s1,a5,40001a34 <dir_next+0xfe>
    400019d8:	f60a0ee3          	beqz	s4,40001954 <dir_next+0x1e>
    400019dc:	480c                	lw	a1,16(s0)
    400019de:	e81ff0ef          	jal	ra,4000185e <create_chain>
    400019e2:	0005049b          	sext.w	s1,a0
    400019e6:	451d                	li	a0,7
    400019e8:	d4bd                	beqz	s1,40001956 <dir_next+0x20>
    400019ea:	4785                	li	a5,1
    400019ec:	fcf48be3          	beq	s1,a5,400019c2 <dir_next+0x8c>
    400019f0:	57fd                	li	a5,-1
    400019f2:	fcf48de3          	beq	s1,a5,400019cc <dir_next+0x96>
    400019f6:	6008                	ld	a0,0(s0)
    400019f8:	dd8ff0ef          	jal	ra,40000fd0 <sync_window>
    400019fc:	2501                	sext.w	a0,a0
    400019fe:	f579                	bnez	a0,400019cc <dir_next+0x96>
    40001a00:	6008                	ld	a0,0(s0)
    40001a02:	20000613          	li	a2,512
    40001a06:	4581                	li	a1,0
    40001a08:	03450513          	addi	a0,a0,52
    40001a0c:	beeff0ef          	jal	ra,40000dfa <mem_set>
    40001a10:	00043a03          	ld	s4,0(s0)
    40001a14:	85a6                	mv	a1,s1
    40001a16:	8552                	mv	a0,s4
    40001a18:	aa5ff0ef          	jal	ra,400014bc <clust2sect>
    40001a1c:	02aa2823          	sw	a0,48(s4)
    40001a20:	4a05                	li	s4,1
    40001a22:	6008                	ld	a0,0(s0)
    40001a24:	00254783          	lbu	a5,2(a0)
    40001a28:	00faed63          	bltu	s5,a5,40001a42 <dir_next+0x10c>
    40001a2c:	591c                	lw	a5,48(a0)
    40001a2e:	415787bb          	subw	a5,a5,s5
    40001a32:	d91c                	sw	a5,48(a0)
    40001a34:	6008                	ld	a0,0(s0)
    40001a36:	c804                	sw	s1,16(s0)
    40001a38:	85a6                	mv	a1,s1
    40001a3a:	a83ff0ef          	jal	ra,400014bc <clust2sect>
    40001a3e:	c848                	sw	a0,20(s0)
    40001a40:	b7b9                	j	4000198e <dir_next+0x58>
    40001a42:	01450223          	sb	s4,4(a0)
    40001a46:	d1cff0ef          	jal	ra,40000f62 <sync_window.part.2>
    40001a4a:	2501                	sext.w	a0,a0
    40001a4c:	f141                	bnez	a0,400019cc <dir_next+0x96>
    40001a4e:	6018                	ld	a4,0(s0)
    40001a50:	2a85                	addiw	s5,s5,1
    40001a52:	5b1c                	lw	a5,48(a4)
    40001a54:	2785                	addiw	a5,a5,1
    40001a56:	db1c                	sw	a5,48(a4)
    40001a58:	b7e9                	j	40001a22 <dir_next+0xec>

0000000040001a5a <follow_path>:
    40001a5a:	7139                	addi	sp,sp,-64
    40001a5c:	f822                	sd	s0,48(sp)
    40001a5e:	f426                	sd	s1,40(sp)
    40001a60:	fc06                	sd	ra,56(sp)
    40001a62:	f04a                	sd	s2,32(sp)
    40001a64:	ec4e                	sd	s3,24(sp)
    40001a66:	e852                	sd	s4,16(sp)
    40001a68:	e456                	sd	s5,8(sp)
    40001a6a:	e05a                	sd	s6,0(sp)
    40001a6c:	0005c783          	lbu	a5,0(a1)
    40001a70:	02f00713          	li	a4,47
    40001a74:	84aa                	mv	s1,a0
    40001a76:	842e                	mv	s0,a1
    40001a78:	00e78663          	beq	a5,a4,40001a84 <follow_path+0x2a>
    40001a7c:	05c00713          	li	a4,92
    40001a80:	0ce79063          	bne	a5,a4,40001b40 <follow_path+0xe6>
    40001a84:	0405                	addi	s0,s0,1
    40001a86:	0004a623          	sw	zero,12(s1)
    40001a8a:	00044703          	lbu	a4,0(s0)
    40001a8e:	47fd                	li	a5,31
    40001a90:	0ae7fc63          	bleu	a4,a5,40001b48 <follow_path+0xee>
    40001a94:	02f00a13          	li	s4,47
    40001a98:	05c00a93          	li	s5,92
    40001a9c:	02e00993          	li	s3,46
    40001aa0:	4b21                	li	s6,8
    40001aa2:	00044783          	lbu	a5,0(s0)
    40001aa6:	0d478263          	beq	a5,s4,40001b6a <follow_path+0x110>
    40001aaa:	0d578063          	beq	a5,s5,40001b6a <follow_path+0x110>
    40001aae:	0204b903          	ld	s2,32(s1)
    40001ab2:	462d                	li	a2,11
    40001ab4:	02000593          	li	a1,32
    40001ab8:	854a                	mv	a0,s2
    40001aba:	b40ff0ef          	jal	ra,40000dfa <mem_set>
    40001abe:	00044783          	lbu	a5,0(s0)
    40001ac2:	0d379263          	bne	a5,s3,40001b86 <follow_path+0x12c>
    40001ac6:	01390023          	sb	s3,0(s2)
    40001aca:	00144783          	lbu	a5,1(s0)
    40001ace:	0b379063          	bne	a5,s3,40001b6e <follow_path+0x114>
    40001ad2:	02e00793          	li	a5,46
    40001ad6:	00f900a3          	sb	a5,1(s2)
    40001ada:	00244783          	lbu	a5,2(s0)
    40001ade:	1b378e63          	beq	a5,s3,40001c9a <follow_path+0x240>
    40001ae2:	470d                	li	a4,3
    40001ae4:	09479763          	bne	a5,s4,40001b72 <follow_path+0x118>
    40001ae8:	943a                	add	s0,s0,a4
    40001aea:	02000793          	li	a5,32
    40001aee:	00f905a3          	sb	a5,11(s2)
    40001af2:	4581                	li	a1,0
    40001af4:	8526                	mv	a0,s1
    40001af6:	adbff0ef          	jal	ra,400015d0 <dir_sdi>
    40001afa:	2501                	sext.w	a0,a0
    40001afc:	10051063          	bnez	a0,40001bfc <follow_path+0x1a2>
    40001b00:	48cc                	lw	a1,20(s1)
    40001b02:	6088                	ld	a0,0(s1)
    40001b04:	cdaff0ef          	jal	ra,40000fde <move_window>
    40001b08:	2501                	sext.w	a0,a0
    40001b0a:	e96d                	bnez	a0,40001bfc <follow_path+0x1a2>
    40001b0c:	6c98                	ld	a4,24(s1)
    40001b0e:	00074783          	lbu	a5,0(a4)
    40001b12:	c7e5                	beqz	a5,40001bfa <follow_path+0x1a0>
    40001b14:	00b74783          	lbu	a5,11(a4)
    40001b18:	8ba1                	andi	a5,a5,8
    40001b1a:	ef91                	bnez	a5,40001b36 <follow_path+0xdc>
    40001b1c:	709c                	ld	a5,32(s1)
    40001b1e:	00b78593          	addi	a1,a5,11
    40001b22:	0cb78d63          	beq	a5,a1,40001bfc <follow_path+0x1a2>
    40001b26:	0705                	addi	a4,a4,1
    40001b28:	0785                	addi	a5,a5,1
    40001b2a:	fff74603          	lbu	a2,-1(a4)
    40001b2e:	fff7c683          	lbu	a3,-1(a5)
    40001b32:	fed608e3          	beq	a2,a3,40001b22 <follow_path+0xc8>
    40001b36:	4581                	li	a1,0
    40001b38:	8526                	mv	a0,s1
    40001b3a:	dfdff0ef          	jal	ra,40001936 <dir_next>
    40001b3e:	bf75                	j	40001afa <follow_path+0xa0>
    40001b40:	611c                	ld	a5,0(a0)
    40001b42:	4bdc                	lw	a5,20(a5)
    40001b44:	c55c                	sw	a5,12(a0)
    40001b46:	b791                	j	40001a8a <follow_path+0x30>
    40001b48:	4581                	li	a1,0
    40001b4a:	8526                	mv	a0,s1
    40001b4c:	a85ff0ef          	jal	ra,400015d0 <dir_sdi>
    40001b50:	2501                	sext.w	a0,a0
    40001b52:	0004bc23          	sd	zero,24(s1)
    40001b56:	70e2                	ld	ra,56(sp)
    40001b58:	7442                	ld	s0,48(sp)
    40001b5a:	74a2                	ld	s1,40(sp)
    40001b5c:	7902                	ld	s2,32(sp)
    40001b5e:	69e2                	ld	s3,24(sp)
    40001b60:	6a42                	ld	s4,16(sp)
    40001b62:	6aa2                	ld	s5,8(sp)
    40001b64:	6b02                	ld	s6,0(sp)
    40001b66:	6121                	addi	sp,sp,64
    40001b68:	8082                	ret
    40001b6a:	0405                	addi	s0,s0,1
    40001b6c:	bf1d                	j	40001aa2 <follow_path+0x48>
    40001b6e:	4709                	li	a4,2
    40001b70:	bf95                	j	40001ae4 <follow_path+0x8a>
    40001b72:	f7578be3          	beq	a5,s5,40001ae8 <follow_path+0x8e>
    40001b76:	02000693          	li	a3,32
    40001b7a:	12f6e063          	bltu	a3,a5,40001c9a <follow_path+0x240>
    40001b7e:	943a                	add	s0,s0,a4
    40001b80:	02400793          	li	a5,36
    40001b84:	b7ad                	j	40001aee <follow_path+0x94>
    40001b86:	4681                	li	a3,0
    40001b88:	4701                	li	a4,0
    40001b8a:	45a1                	li	a1,8
    40001b8c:	4781                	li	a5,0
    40001b8e:	02000313          	li	t1,32
    40001b92:	4865                	li	a6,25
    40001b94:	a0d1                	j	40001c58 <follow_path+0x1fe>
    40001b96:	0505                	addi	a0,a0,1
    40001b98:	a8dd                	j	40001c8e <follow_path+0x234>
    40001b9a:	0027e793          	ori	a5,a5,2
    40001b9e:	02069513          	slli	a0,a3,0x20
    40001ba2:	9101                	srli	a0,a0,0x20
    40001ba4:	954a                	add	a0,a0,s2
    40001ba6:	00e50023          	sb	a4,0(a0)
    40001baa:	2685                	addiw	a3,a3,1
    40001bac:	a06d                	j	40001c56 <follow_path+0x1fc>
    40001bae:	4711                	li	a4,4
    40001bb0:	c6ed                	beqz	a3,40001c9a <follow_path+0x240>
    40001bb2:	00094503          	lbu	a0,0(s2)
    40001bb6:	0e500693          	li	a3,229
    40001bba:	00d51563          	bne	a0,a3,40001bc4 <follow_path+0x16a>
    40001bbe:	4695                	li	a3,5
    40001bc0:	00d90023          	sb	a3,0(s2)
    40001bc4:	01659663          	bne	a1,s6,40001bd0 <follow_path+0x176>
    40001bc8:	0027979b          	slliw	a5,a5,0x2
    40001bcc:	0ff7f793          	andi	a5,a5,255
    40001bd0:	0037f693          	andi	a3,a5,3
    40001bd4:	4585                	li	a1,1
    40001bd6:	00b69463          	bne	a3,a1,40001bde <follow_path+0x184>
    40001bda:	01076713          	ori	a4,a4,16
    40001bde:	8bb1                	andi	a5,a5,12
    40001be0:	4691                	li	a3,4
    40001be2:	00d79463          	bne	a5,a3,40001bea <follow_path+0x190>
    40001be6:	00876713          	ori	a4,a4,8
    40001bea:	1602                	slli	a2,a2,0x20
    40001bec:	9201                	srli	a2,a2,0x20
    40001bee:	9432                	add	s0,s0,a2
    40001bf0:	00e905a3          	sb	a4,11(s2)
    40001bf4:	bdfd                	j	40001af2 <follow_path+0x98>
    40001bf6:	4701                	li	a4,0
    40001bf8:	bf65                	j	40001bb0 <follow_path+0x156>
    40001bfa:	4511                	li	a0,4
    40001bfc:	709c                	ld	a5,32(s1)
    40001bfe:	00b7c783          	lbu	a5,11(a5)
    40001c02:	c505                	beqz	a0,40001c2a <follow_path+0x1d0>
    40001c04:	4711                	li	a4,4
    40001c06:	f4e518e3          	bne	a0,a4,40001b56 <follow_path+0xfc>
    40001c0a:	0047f713          	andi	a4,a5,4
    40001c0e:	0207f793          	andi	a5,a5,32
    40001c12:	cb89                	beqz	a5,40001c24 <follow_path+0x1ca>
    40001c14:	0004a623          	sw	zero,12(s1)
    40001c18:	0004bc23          	sd	zero,24(s1)
    40001c1c:	e80703e3          	beqz	a4,40001aa2 <follow_path+0x48>
    40001c20:	4501                	li	a0,0
    40001c22:	bf15                	j	40001b56 <follow_path+0xfc>
    40001c24:	fb0d                	bnez	a4,40001b56 <follow_path+0xfc>
    40001c26:	4515                	li	a0,5
    40001c28:	b73d                	j	40001b56 <follow_path+0xfc>
    40001c2a:	8b91                	andi	a5,a5,4
    40001c2c:	fbf5                	bnez	a5,40001c20 <follow_path+0x1c6>
    40001c2e:	6c8c                	ld	a1,24(s1)
    40001c30:	00b5c783          	lbu	a5,11(a1)
    40001c34:	8bc1                	andi	a5,a5,16
    40001c36:	dbe5                	beqz	a5,40001c26 <follow_path+0x1cc>
    40001c38:	609c                	ld	a5,0(s1)
    40001c3a:	0007c503          	lbu	a0,0(a5)
    40001c3e:	af2ff0ef          	jal	ra,40000f30 <ld_clust.isra.0>
    40001c42:	c4c8                	sw	a0,12(s1)
    40001c44:	bdb9                	j	40001aa2 <follow_path+0x48>
    40001c46:	05659a63          	bne	a1,s6,40001c9a <follow_path+0x240>
    40001c4a:	0027979b          	slliw	a5,a5,0x2
    40001c4e:	0ff7f793          	andi	a5,a5,255
    40001c52:	46a1                	li	a3,8
    40001c54:	45ad                	li	a1,11
    40001c56:	8732                	mv	a4,a2
    40001c58:	0017061b          	addiw	a2,a4,1
    40001c5c:	1702                	slli	a4,a4,0x20
    40001c5e:	9301                	srli	a4,a4,0x20
    40001c60:	9722                	add	a4,a4,s0
    40001c62:	00074703          	lbu	a4,0(a4)
    40001c66:	f4e374e3          	bleu	a4,t1,40001bae <follow_path+0x154>
    40001c6a:	f94706e3          	beq	a4,s4,40001bf6 <follow_path+0x19c>
    40001c6e:	f95704e3          	beq	a4,s5,40001bf6 <follow_path+0x19c>
    40001c72:	fd370ae3          	beq	a4,s3,40001c46 <follow_path+0x1ec>
    40001c76:	02b6f263          	bleu	a1,a3,40001c9a <follow_path+0x240>
    40001c7a:	0187151b          	slliw	a0,a4,0x18
    40001c7e:	4185551b          	sraiw	a0,a0,0x18
    40001c82:	00054c63          	bltz	a0,40001c9a <follow_path+0x240>
    40001c86:	00005517          	auipc	a0,0x5
    40001c8a:	c6250513          	addi	a0,a0,-926 # 400068e8 <P_array.1885+0x558>
    40001c8e:	00054883          	lbu	a7,0(a0)
    40001c92:	00088663          	beqz	a7,40001c9e <follow_path+0x244>
    40001c96:	f11710e3          	bne	a4,a7,40001b96 <follow_path+0x13c>
    40001c9a:	4519                	li	a0,6
    40001c9c:	bd6d                	j	40001b56 <follow_path+0xfc>
    40001c9e:	fbf7051b          	addiw	a0,a4,-65
    40001ca2:	0ff57513          	andi	a0,a0,255
    40001ca6:	eea87ae3          	bleu	a0,a6,40001b9a <follow_path+0x140>
    40001caa:	f9f7051b          	addiw	a0,a4,-97
    40001cae:	0ff57513          	andi	a0,a0,255
    40001cb2:	eea866e3          	bltu	a6,a0,40001b9e <follow_path+0x144>
    40001cb6:	3701                	addiw	a4,a4,-32
    40001cb8:	0017e793          	ori	a5,a5,1
    40001cbc:	0ff77713          	andi	a4,a4,255
    40001cc0:	bdf9                	j	40001b9e <follow_path+0x144>

0000000040001cc2 <dir_read>:
    40001cc2:	7179                	addi	sp,sp,-48
    40001cc4:	f022                	sd	s0,32(sp)
    40001cc6:	ec26                	sd	s1,24(sp)
    40001cc8:	e84a                	sd	s2,16(sp)
    40001cca:	e44e                	sd	s3,8(sp)
    40001ccc:	842a                	mv	s0,a0
    40001cce:	f406                	sd	ra,40(sp)
    40001cd0:	84ae                	mv	s1,a1
    40001cd2:	4511                	li	a0,4
    40001cd4:	0e500913          	li	s2,229
    40001cd8:	49bd                	li	s3,15
    40001cda:	484c                	lw	a1,20(s0)
    40001cdc:	e199                	bnez	a1,40001ce2 <dir_read+0x20>
    40001cde:	c90d                	beqz	a0,40001d10 <dir_read+0x4e>
    40001ce0:	a0b1                	j	40001d2c <dir_read+0x6a>
    40001ce2:	6008                	ld	a0,0(s0)
    40001ce4:	afaff0ef          	jal	ra,40000fde <move_window>
    40001ce8:	2501                	sext.w	a0,a0
    40001cea:	e129                	bnez	a0,40001d2c <dir_read+0x6a>
    40001cec:	6c1c                	ld	a5,24(s0)
    40001cee:	0007c703          	lbu	a4,0(a5)
    40001cf2:	c321                	beqz	a4,40001d32 <dir_read+0x70>
    40001cf4:	00b7c783          	lbu	a5,11(a5)
    40001cf8:	03f7f793          	andi	a5,a5,63
    40001cfc:	03270263          	beq	a4,s2,40001d20 <dir_read+0x5e>
    40001d00:	03378063          	beq	a5,s3,40001d20 <dir_read+0x5e>
    40001d04:	8bfd                	andi	a5,a5,31
    40001d06:	17e1                	addi	a5,a5,-8
    40001d08:	0017b793          	seqz	a5,a5
    40001d0c:	00979a63          	bne	a5,s1,40001d20 <dir_read+0x5e>
    40001d10:	4501                	li	a0,0
    40001d12:	70a2                	ld	ra,40(sp)
    40001d14:	7402                	ld	s0,32(sp)
    40001d16:	64e2                	ld	s1,24(sp)
    40001d18:	6942                	ld	s2,16(sp)
    40001d1a:	69a2                	ld	s3,8(sp)
    40001d1c:	6145                	addi	sp,sp,48
    40001d1e:	8082                	ret
    40001d20:	4581                	li	a1,0
    40001d22:	8522                	mv	a0,s0
    40001d24:	c13ff0ef          	jal	ra,40001936 <dir_next>
    40001d28:	2501                	sext.w	a0,a0
    40001d2a:	d945                	beqz	a0,40001cda <dir_read+0x18>
    40001d2c:	00042a23          	sw	zero,20(s0)
    40001d30:	b7cd                	j	40001d12 <dir_read+0x50>
    40001d32:	4511                	li	a0,4
    40001d34:	bfe5                	j	40001d2c <dir_read+0x6a>

0000000040001d36 <dir_alloc.constprop.12>:
    40001d36:	1101                	addi	sp,sp,-32
    40001d38:	4581                	li	a1,0
    40001d3a:	e822                	sd	s0,16(sp)
    40001d3c:	ec06                	sd	ra,24(sp)
    40001d3e:	e426                	sd	s1,8(sp)
    40001d40:	842a                	mv	s0,a0
    40001d42:	88fff0ef          	jal	ra,400015d0 <dir_sdi>
    40001d46:	2501                	sext.w	a0,a0
    40001d48:	e50d                	bnez	a0,40001d72 <dir_alloc.constprop.12+0x3c>
    40001d4a:	0e500493          	li	s1,229
    40001d4e:	484c                	lw	a1,20(s0)
    40001d50:	6008                	ld	a0,0(s0)
    40001d52:	a8cff0ef          	jal	ra,40000fde <move_window>
    40001d56:	2501                	sext.w	a0,a0
    40001d58:	ed09                	bnez	a0,40001d72 <dir_alloc.constprop.12+0x3c>
    40001d5a:	6c1c                	ld	a5,24(s0)
    40001d5c:	0007c783          	lbu	a5,0(a5)
    40001d60:	00978d63          	beq	a5,s1,40001d7a <dir_alloc.constprop.12+0x44>
    40001d64:	cb99                	beqz	a5,40001d7a <dir_alloc.constprop.12+0x44>
    40001d66:	4585                	li	a1,1
    40001d68:	8522                	mv	a0,s0
    40001d6a:	bcdff0ef          	jal	ra,40001936 <dir_next>
    40001d6e:	2501                	sext.w	a0,a0
    40001d70:	dd79                	beqz	a0,40001d4e <dir_alloc.constprop.12+0x18>
    40001d72:	4791                	li	a5,4
    40001d74:	00f51363          	bne	a0,a5,40001d7a <dir_alloc.constprop.12+0x44>
    40001d78:	451d                	li	a0,7
    40001d7a:	60e2                	ld	ra,24(sp)
    40001d7c:	6442                	ld	s0,16(sp)
    40001d7e:	64a2                	ld	s1,8(sp)
    40001d80:	6105                	addi	sp,sp,32
    40001d82:	8082                	ret

0000000040001d84 <dir_register>:
    40001d84:	1101                	addi	sp,sp,-32
    40001d86:	e822                	sd	s0,16(sp)
    40001d88:	e426                	sd	s1,8(sp)
    40001d8a:	ec06                	sd	ra,24(sp)
    40001d8c:	842a                	mv	s0,a0
    40001d8e:	fa9ff0ef          	jal	ra,40001d36 <dir_alloc.constprop.12>
    40001d92:	0005049b          	sext.w	s1,a0
    40001d96:	e49d                	bnez	s1,40001dc4 <dir_register+0x40>
    40001d98:	484c                	lw	a1,20(s0)
    40001d9a:	6008                	ld	a0,0(s0)
    40001d9c:	a42ff0ef          	jal	ra,40000fde <move_window>
    40001da0:	0005049b          	sext.w	s1,a0
    40001da4:	e085                	bnez	s1,40001dc4 <dir_register+0x40>
    40001da6:	6c08                	ld	a0,24(s0)
    40001da8:	02000613          	li	a2,32
    40001dac:	4581                	li	a1,0
    40001dae:	84cff0ef          	jal	ra,40000dfa <mem_set>
    40001db2:	700c                	ld	a1,32(s0)
    40001db4:	6c08                	ld	a0,24(s0)
    40001db6:	462d                	li	a2,11
    40001db8:	82aff0ef          	jal	ra,40000de2 <mem_cpy>
    40001dbc:	601c                	ld	a5,0(s0)
    40001dbe:	4705                	li	a4,1
    40001dc0:	00e78223          	sb	a4,4(a5)
    40001dc4:	60e2                	ld	ra,24(sp)
    40001dc6:	6442                	ld	s0,16(sp)
    40001dc8:	8526                	mv	a0,s1
    40001dca:	64a2                	ld	s1,8(sp)
    40001dcc:	6105                	addi	sp,sp,32
    40001dce:	8082                	ret

0000000040001dd0 <remove_chain>:
    40001dd0:	4785                	li	a5,1
    40001dd2:	00b7ed63          	bltu	a5,a1,40001dec <remove_chain+0x1c>
    40001dd6:	4509                	li	a0,2
    40001dd8:	8082                	ret
    40001dda:	4509                	li	a0,2
    40001ddc:	70a2                	ld	ra,40(sp)
    40001dde:	7402                	ld	s0,32(sp)
    40001de0:	64e2                	ld	s1,24(sp)
    40001de2:	6942                	ld	s2,16(sp)
    40001de4:	69a2                	ld	s3,8(sp)
    40001de6:	6a02                	ld	s4,0(sp)
    40001de8:	6145                	addi	sp,sp,48
    40001dea:	8082                	ret
    40001dec:	4d1c                	lw	a5,24(a0)
    40001dee:	7179                	addi	sp,sp,-48
    40001df0:	f022                	sd	s0,32(sp)
    40001df2:	ec26                	sd	s1,24(sp)
    40001df4:	f406                	sd	ra,40(sp)
    40001df6:	e84a                	sd	s2,16(sp)
    40001df8:	e44e                	sd	s3,8(sp)
    40001dfa:	e052                	sd	s4,0(sp)
    40001dfc:	842a                	mv	s0,a0
    40001dfe:	84ae                	mv	s1,a1
    40001e00:	fcf5fde3          	bleu	a5,a1,40001dda <remove_chain+0xa>
    40001e04:	4a05                	li	s4,1
    40001e06:	59fd                	li	s3,-1
    40001e08:	4c1c                	lw	a5,24(s0)
    40001e0a:	00f4fa63          	bleu	a5,s1,40001e1e <remove_chain+0x4e>
    40001e0e:	85a6                	mv	a1,s1
    40001e10:	8522                	mv	a0,s0
    40001e12:	ec8ff0ef          	jal	ra,400014da <get_fat>
    40001e16:	0005091b          	sext.w	s2,a0
    40001e1a:	00091463          	bnez	s2,40001e22 <remove_chain+0x52>
    40001e1e:	4501                	li	a0,0
    40001e20:	bf75                	j	40001ddc <remove_chain+0xc>
    40001e22:	fb490ce3          	beq	s2,s4,40001dda <remove_chain+0xa>
    40001e26:	03390763          	beq	s2,s3,40001e54 <remove_chain+0x84>
    40001e2a:	4601                	li	a2,0
    40001e2c:	85a6                	mv	a1,s1
    40001e2e:	8522                	mv	a0,s0
    40001e30:	8afff0ef          	jal	ra,400016de <put_fat>
    40001e34:	2501                	sext.w	a0,a0
    40001e36:	f15d                	bnez	a0,40001ddc <remove_chain+0xc>
    40001e38:	481c                	lw	a5,16(s0)
    40001e3a:	01378a63          	beq	a5,s3,40001e4e <remove_chain+0x7e>
    40001e3e:	2785                	addiw	a5,a5,1
    40001e40:	c81c                	sw	a5,16(s0)
    40001e42:	00544783          	lbu	a5,5(s0)
    40001e46:	0017e793          	ori	a5,a5,1
    40001e4a:	00f402a3          	sb	a5,5(s0)
    40001e4e:	0009049b          	sext.w	s1,s2
    40001e52:	bf5d                	j	40001e08 <remove_chain+0x38>
    40001e54:	4505                	li	a0,1
    40001e56:	b759                	j	40001ddc <remove_chain+0xc>

0000000040001e58 <f_mount>:
    40001e58:	7139                	addi	sp,sp,-64
    40001e5a:	ec2a                	sd	a0,24(sp)
    40001e5c:	1028                	addi	a0,sp,40
    40001e5e:	fc06                	sd	ra,56(sp)
    40001e60:	e82e                	sd	a1,16(sp)
    40001e62:	e432                	sd	a2,8(sp)
    40001e64:	f42e                	sd	a1,40(sp)
    40001e66:	83eff0ef          	jal	ra,40000ea4 <get_ldnumber>
    40001e6a:	04054263          	bltz	a0,40001eae <f_mount+0x56>
    40001e6e:	00006797          	auipc	a5,0x6
    40001e72:	43278793          	addi	a5,a5,1074 # 400082a0 <FatFs>
    40001e76:	050e                	slli	a0,a0,0x3
    40001e78:	00a78733          	add	a4,a5,a0
    40001e7c:	6318                	ld	a4,0(a4)
    40001e7e:	6622                	ld	a2,8(sp)
    40001e80:	c319                	beqz	a4,40001e86 <f_mount+0x2e>
    40001e82:	00070023          	sb	zero,0(a4)
    40001e86:	6762                	ld	a4,24(sp)
    40001e88:	c319                	beqz	a4,40001e8e <f_mount+0x36>
    40001e8a:	00070023          	sb	zero,0(a4)
    40001e8e:	97aa                	add	a5,a5,a0
    40001e90:	e398                	sd	a4,0(a5)
    40001e92:	4501                	li	a0,0
    40001e94:	cb11                	beqz	a4,40001ea8 <f_mount+0x50>
    40001e96:	4785                	li	a5,1
    40001e98:	00f61863          	bne	a2,a5,40001ea8 <f_mount+0x50>
    40001e9c:	4601                	li	a2,0
    40001e9e:	080c                	addi	a1,sp,16
    40001ea0:	0828                	addi	a0,sp,24
    40001ea2:	a0eff0ef          	jal	ra,400010b0 <find_volume>
    40001ea6:	2501                	sext.w	a0,a0
    40001ea8:	70e2                	ld	ra,56(sp)
    40001eaa:	6121                	addi	sp,sp,64
    40001eac:	8082                	ret
    40001eae:	452d                	li	a0,11
    40001eb0:	bfe5                	j	40001ea8 <f_mount+0x50>

0000000040001eb2 <f_open>:
    40001eb2:	7175                	addi	sp,sp,-144
    40001eb4:	f8ca                	sd	s2,112(sp)
    40001eb6:	e506                	sd	ra,136(sp)
    40001eb8:	e122                	sd	s0,128(sp)
    40001eba:	fca6                	sd	s1,120(sp)
    40001ebc:	f4ce                	sd	s3,104(sp)
    40001ebe:	f0d2                	sd	s4,96(sp)
    40001ec0:	ecd6                	sd	s5,88(sp)
    40001ec2:	e8da                	sd	s6,80(sp)
    40001ec4:	e42e                	sd	a1,8(sp)
    40001ec6:	4925                	li	s2,9
    40001ec8:	14050d63          	beqz	a0,40002022 <f_open+0x170>
    40001ecc:	00053023          	sd	zero,0(a0)
    40001ed0:	89b2                	mv	s3,a2
    40001ed2:	84aa                	mv	s1,a0
    40001ed4:	8a79                	andi	a2,a2,30
    40001ed6:	002c                	addi	a1,sp,8
    40001ed8:	1028                	addi	a0,sp,40
    40001eda:	9d6ff0ef          	jal	ra,400010b0 <find_volume>
    40001ede:	0005091b          	sext.w	s2,a0
    40001ee2:	14091063          	bnez	s2,40002022 <f_open+0x170>
    40001ee6:	65a2                	ld	a1,8(sp)
    40001ee8:	083c                	addi	a5,sp,24
    40001eea:	1028                	addi	a0,sp,40
    40001eec:	e4be                	sd	a5,72(sp)
    40001eee:	b6dff0ef          	jal	ra,40001a5a <follow_path>
    40001ef2:	2501                	sext.w	a0,a0
    40001ef4:	6406                	ld	s0,64(sp)
    40001ef6:	e119                	bnez	a0,40001efc <f_open+0x4a>
    40001ef8:	e011                	bnez	s0,40001efc <f_open+0x4a>
    40001efa:	4519                	li	a0,6
    40001efc:	01c9f793          	andi	a5,s3,28
    40001f00:	01f9fa13          	andi	s4,s3,31
    40001f04:	c3e1                	beqz	a5,40001fc4 <f_open+0x112>
    40001f06:	c54d                	beqz	a0,40001fb0 <f_open+0xfe>
    40001f08:	4791                	li	a5,4
    40001f0a:	00f51663          	bne	a0,a5,40001f16 <f_open+0x64>
    40001f0e:	1028                	addi	a0,sp,40
    40001f10:	e75ff0ef          	jal	ra,40001d84 <dir_register>
    40001f14:	2501                	sext.w	a0,a0
    40001f16:	008a6a13          	ori	s4,s4,8
    40001f1a:	e949                	bnez	a0,40001fac <f_open+0xfa>
    40001f1c:	6406                	ld	s0,64(sp)
    40001f1e:	008a7793          	andi	a5,s4,8
    40001f22:	cfcd                	beqz	a5,40001fdc <f_open+0x12a>
    40001f24:	7aa2                	ld	s5,40(sp)
    40001f26:	04600793          	li	a5,70
    40001f2a:	02100713          	li	a4,33
    40001f2e:	00f408a3          	sb	a5,17(s0)
    40001f32:	00f40ca3          	sb	a5,25(s0)
    40001f36:	00040723          	sb	zero,14(s0)
    40001f3a:	000407a3          	sb	zero,15(s0)
    40001f3e:	00e40823          	sb	a4,16(s0)
    40001f42:	00040b23          	sb	zero,22(s0)
    40001f46:	00040ba3          	sb	zero,23(s0)
    40001f4a:	00e40c23          	sb	a4,24(s0)
    40001f4e:	000405a3          	sb	zero,11(s0)
    40001f52:	00040e23          	sb	zero,28(s0)
    40001f56:	00040ea3          	sb	zero,29(s0)
    40001f5a:	00040f23          	sb	zero,30(s0)
    40001f5e:	00040fa3          	sb	zero,31(s0)
    40001f62:	000ac503          	lbu	a0,0(s5)
    40001f66:	85a2                	mv	a1,s0
    40001f68:	fc9fe0ef          	jal	ra,40000f30 <ld_clust.isra.0>
    40001f6c:	4785                	li	a5,1
    40001f6e:	00040d23          	sb	zero,26(s0)
    40001f72:	00040da3          	sb	zero,27(s0)
    40001f76:	00040a23          	sb	zero,20(s0)
    40001f7a:	00040aa3          	sb	zero,21(s0)
    40001f7e:	0005099b          	sext.w	s3,a0
    40001f82:	00fa8223          	sb	a5,4(s5)
    40001f86:	04098b63          	beqz	s3,40001fdc <f_open+0x12a>
    40001f8a:	85ce                	mv	a1,s3
    40001f8c:	8556                	mv	a0,s5
    40001f8e:	030aab03          	lw	s6,48(s5)
    40001f92:	e3fff0ef          	jal	ra,40001dd0 <remove_chain>
    40001f96:	2501                	sext.w	a0,a0
    40001f98:	e911                	bnez	a0,40001fac <f_open+0xfa>
    40001f9a:	7522                	ld	a0,40(sp)
    40001f9c:	39fd                	addiw	s3,s3,-1
    40001f9e:	85da                	mv	a1,s6
    40001fa0:	01352623          	sw	s3,12(a0)
    40001fa4:	83aff0ef          	jal	ra,40000fde <move_window>
    40001fa8:	2501                	sext.w	a0,a0
    40001faa:	c90d                	beqz	a0,40001fdc <f_open+0x12a>
    40001fac:	892a                	mv	s2,a0
    40001fae:	a895                	j	40002022 <f_open+0x170>
    40001fb0:	00b44783          	lbu	a5,11(s0)
    40001fb4:	8bc5                	andi	a5,a5,17
    40001fb6:	e3d9                	bnez	a5,4000203c <f_open+0x18a>
    40001fb8:	0049f993          	andi	s3,s3,4
    40001fbc:	f60981e3          	beqz	s3,40001f1e <f_open+0x6c>
    40001fc0:	4921                	li	s2,8
    40001fc2:	a085                	j	40002022 <f_open+0x170>
    40001fc4:	f565                	bnez	a0,40001fac <f_open+0xfa>
    40001fc6:	00b44783          	lbu	a5,11(s0)
    40001fca:	0107f713          	andi	a4,a5,16
    40001fce:	e72d                	bnez	a4,40002038 <f_open+0x186>
    40001fd0:	0029f993          	andi	s3,s3,2
    40001fd4:	00098463          	beqz	s3,40001fdc <f_open+0x12a>
    40001fd8:	8b85                	andi	a5,a5,1
    40001fda:	e3ad                	bnez	a5,4000203c <f_open+0x18a>
    40001fdc:	008a7793          	andi	a5,s4,8
    40001fe0:	c399                	beqz	a5,40001fe6 <f_open+0x134>
    40001fe2:	020a6a13          	ori	s4,s4,32
    40001fe6:	79a2                	ld	s3,40(sp)
    40001fe8:	85a2                	mv	a1,s0
    40001fea:	0309a783          	lw	a5,48(s3)
    40001fee:	f480                	sd	s0,40(s1)
    40001ff0:	01448523          	sb	s4,10(s1)
    40001ff4:	d09c                	sw	a5,32(s1)
    40001ff6:	000485a3          	sb	zero,11(s1)
    40001ffa:	0009c503          	lbu	a0,0(s3)
    40001ffe:	f33fe0ef          	jal	ra,40000f30 <ld_clust.isra.0>
    40002002:	c8c8                	sw	a0,20(s1)
    40002004:	01c40513          	addi	a0,s0,28
    40002008:	dbbfe0ef          	jal	ra,40000dc2 <LD_DWORD>
    4000200c:	0069d783          	lhu	a5,6(s3)
    40002010:	c888                	sw	a0,16(s1)
    40002012:	0004a623          	sw	zero,12(s1)
    40002016:	0004ae23          	sw	zero,28(s1)
    4000201a:	0134b023          	sd	s3,0(s1)
    4000201e:	00f49423          	sh	a5,8(s1)
    40002022:	60aa                	ld	ra,136(sp)
    40002024:	640a                	ld	s0,128(sp)
    40002026:	854a                	mv	a0,s2
    40002028:	74e6                	ld	s1,120(sp)
    4000202a:	7946                	ld	s2,112(sp)
    4000202c:	79a6                	ld	s3,104(sp)
    4000202e:	7a06                	ld	s4,96(sp)
    40002030:	6ae6                	ld	s5,88(sp)
    40002032:	6b46                	ld	s6,80(sp)
    40002034:	6149                	addi	sp,sp,144
    40002036:	8082                	ret
    40002038:	4911                	li	s2,4
    4000203a:	b7e5                	j	40002022 <f_open+0x170>
    4000203c:	491d                	li	s2,7
    4000203e:	b7d5                	j	40002022 <f_open+0x170>

0000000040002040 <f_read>:
    40002040:	7119                	addi	sp,sp,-128
    40002042:	f8a2                	sd	s0,112(sp)
    40002044:	ecce                	sd	s3,88(sp)
    40002046:	e8d2                	sd	s4,80(sp)
    40002048:	e4d6                	sd	s5,72(sp)
    4000204a:	fc86                	sd	ra,120(sp)
    4000204c:	f4a6                	sd	s1,104(sp)
    4000204e:	f0ca                	sd	s2,96(sp)
    40002050:	e0da                	sd	s6,64(sp)
    40002052:	fc5e                	sd	s7,56(sp)
    40002054:	f862                	sd	s8,48(sp)
    40002056:	f466                	sd	s9,40(sp)
    40002058:	f06a                	sd	s10,32(sp)
    4000205a:	ec6e                	sd	s11,24(sp)
    4000205c:	0006a023          	sw	zero,0(a3) # 1000 <_tbss_end+0x1000>
    40002060:	842a                	mv	s0,a0
    40002062:	8a2e                	mv	s4,a1
    40002064:	e432                	sd	a2,8(sp)
    40002066:	8ab6                	mv	s5,a3
    40002068:	e91fe0ef          	jal	ra,40000ef8 <validate>
    4000206c:	0005099b          	sext.w	s3,a0
    40002070:	00099863          	bnez	s3,40002080 <f_read+0x40>
    40002074:	00b44783          	lbu	a5,11(s0)
    40002078:	6622                	ld	a2,8(sp)
    4000207a:	c39d                	beqz	a5,400020a0 <f_read+0x60>
    4000207c:	0007899b          	sext.w	s3,a5
    40002080:	70e6                	ld	ra,120(sp)
    40002082:	7446                	ld	s0,112(sp)
    40002084:	854e                	mv	a0,s3
    40002086:	74a6                	ld	s1,104(sp)
    40002088:	7906                	ld	s2,96(sp)
    4000208a:	69e6                	ld	s3,88(sp)
    4000208c:	6a46                	ld	s4,80(sp)
    4000208e:	6aa6                	ld	s5,72(sp)
    40002090:	6b06                	ld	s6,64(sp)
    40002092:	7be2                	ld	s7,56(sp)
    40002094:	7c42                	ld	s8,48(sp)
    40002096:	7ca2                	ld	s9,40(sp)
    40002098:	7d02                	ld	s10,32(sp)
    4000209a:	6de2                	ld	s11,24(sp)
    4000209c:	6109                	addi	sp,sp,128
    4000209e:	8082                	ret
    400020a0:	00a44783          	lbu	a5,10(s0)
    400020a4:	8b85                	andi	a5,a5,1
    400020a6:	16078963          	beqz	a5,40002218 <f_read+0x1d8>
    400020aa:	01042903          	lw	s2,16(s0)
    400020ae:	445c                	lw	a5,12(s0)
    400020b0:	40f907bb          	subw	a5,s2,a5
    400020b4:	893e                	mv	s2,a5
    400020b6:	00f67463          	bleu	a5,a2,400020be <f_read+0x7e>
    400020ba:	0006091b          	sext.w	s2,a2
    400020be:	20000b93          	li	s7,512
    400020c2:	03040b13          	addi	s6,s0,48
    400020c6:	5c7d                	li	s8,-1
    400020c8:	fa090ce3          	beqz	s2,40002080 <f_read+0x40>
    400020cc:	4458                	lw	a4,12(s0)
    400020ce:	1ff77793          	andi	a5,a4,511
    400020d2:	12079063          	bnez	a5,400021f2 <f_read+0x1b2>
    400020d6:	6008                	ld	a0,0(s0)
    400020d8:	00975c9b          	srliw	s9,a4,0x9
    400020dc:	00254783          	lbu	a5,2(a0)
    400020e0:	37fd                	addiw	a5,a5,-1
    400020e2:	0197fcb3          	and	s9,a5,s9
    400020e6:	0ffcfc93          	andi	s9,s9,255
    400020ea:	020c9963          	bnez	s9,4000211c <f_read+0xdc>
    400020ee:	eb11                	bnez	a4,40002102 <f_read+0xc2>
    400020f0:	4848                	lw	a0,20(s0)
    400020f2:	4785                	li	a5,1
    400020f4:	00a7ec63          	bltu	a5,a0,4000210c <f_read+0xcc>
    400020f8:	4789                	li	a5,2
    400020fa:	00f405a3          	sb	a5,11(s0)
    400020fe:	4989                	li	s3,2
    40002100:	b741                	j	40002080 <f_read+0x40>
    40002102:	4c0c                	lw	a1,24(s0)
    40002104:	bd6ff0ef          	jal	ra,400014da <get_fat>
    40002108:	2501                	sext.w	a0,a0
    4000210a:	b7e5                	j	400020f2 <f_read+0xb2>
    4000210c:	01851763          	bne	a0,s8,4000211a <f_read+0xda>
    40002110:	4785                	li	a5,1
    40002112:	00f405a3          	sb	a5,11(s0)
    40002116:	4985                	li	s3,1
    40002118:	b7a5                	j	40002080 <f_read+0x40>
    4000211a:	cc08                	sw	a0,24(s0)
    4000211c:	00043d83          	ld	s11,0(s0)
    40002120:	4c0c                	lw	a1,24(s0)
    40002122:	856e                	mv	a0,s11
    40002124:	b98ff0ef          	jal	ra,400014bc <clust2sect>
    40002128:	2501                	sext.w	a0,a0
    4000212a:	d579                	beqz	a0,400020f8 <f_read+0xb8>
    4000212c:	000c861b          	sext.w	a2,s9
    40002130:	0099579b          	srliw	a5,s2,0x9
    40002134:	00a6073b          	addw	a4,a2,a0
    40002138:	0007849b          	sext.w	s1,a5
    4000213c:	8d3a                	mv	s10,a4
    4000213e:	c4b5                	beqz	s1,400021aa <f_read+0x16a>
    40002140:	002dc683          	lbu	a3,2(s11)
    40002144:	9fb1                	addw	a5,a5,a2
    40002146:	00f6f463          	bleu	a5,a3,4000214e <f_read+0x10e>
    4000214a:	419684bb          	subw	s1,a3,s9
    4000214e:	001dc503          	lbu	a0,1(s11)
    40002152:	86a6                	mv	a3,s1
    40002154:	863a                	mv	a2,a4
    40002156:	85d2                	mv	a1,s4
    40002158:	06d030ef          	jal	ra,400059c4 <disk_read>
    4000215c:	2501                	sext.w	a0,a0
    4000215e:	f94d                	bnez	a0,40002110 <f_read+0xd0>
    40002160:	00a44783          	lbu	a5,10(s0)
    40002164:	0407f793          	andi	a5,a5,64
    40002168:	c385                	beqz	a5,40002188 <f_read+0x148>
    4000216a:	4c48                	lw	a0,28(s0)
    4000216c:	41a507bb          	subw	a5,a0,s10
    40002170:	0097fc63          	bleu	s1,a5,40002188 <f_read+0x148>
    40002174:	0097951b          	slliw	a0,a5,0x9
    40002178:	1502                	slli	a0,a0,0x20
    4000217a:	9101                	srli	a0,a0,0x20
    4000217c:	20000613          	li	a2,512
    40002180:	85da                	mv	a1,s6
    40002182:	9552                	add	a0,a0,s4
    40002184:	c5ffe0ef          	jal	ra,40000de2 <mem_cpy>
    40002188:	0094949b          	slliw	s1,s1,0x9
    4000218c:	02049793          	slli	a5,s1,0x20
    40002190:	9381                	srli	a5,a5,0x20
    40002192:	9a3e                	add	s4,s4,a5
    40002194:	445c                	lw	a5,12(s0)
    40002196:	4099093b          	subw	s2,s2,s1
    4000219a:	9fa5                	addw	a5,a5,s1
    4000219c:	c45c                	sw	a5,12(s0)
    4000219e:	000aa783          	lw	a5,0(s5)
    400021a2:	9fa5                	addw	a5,a5,s1
    400021a4:	00faa023          	sw	a5,0(s5)
    400021a8:	b705                	j	400020c8 <f_read+0x88>
    400021aa:	4c50                	lw	a2,28(s0)
    400021ac:	04e60163          	beq	a2,a4,400021ee <f_read+0x1ae>
    400021b0:	00a44783          	lbu	a5,10(s0)
    400021b4:	0407f793          	andi	a5,a5,64
    400021b8:	c38d                	beqz	a5,400021da <f_read+0x19a>
    400021ba:	001dc503          	lbu	a0,1(s11)
    400021be:	4685                	li	a3,1
    400021c0:	85da                	mv	a1,s6
    400021c2:	e43a                	sd	a4,8(sp)
    400021c4:	065030ef          	jal	ra,40005a28 <disk_write>
    400021c8:	2501                	sext.w	a0,a0
    400021ca:	f139                	bnez	a0,40002110 <f_read+0xd0>
    400021cc:	00a44783          	lbu	a5,10(s0)
    400021d0:	6722                	ld	a4,8(sp)
    400021d2:	fbf7f793          	andi	a5,a5,-65
    400021d6:	00f40523          	sb	a5,10(s0)
    400021da:	601c                	ld	a5,0(s0)
    400021dc:	4685                	li	a3,1
    400021de:	863a                	mv	a2,a4
    400021e0:	0017c503          	lbu	a0,1(a5)
    400021e4:	85da                	mv	a1,s6
    400021e6:	7de030ef          	jal	ra,400059c4 <disk_read>
    400021ea:	2501                	sext.w	a0,a0
    400021ec:	f115                	bnez	a0,40002110 <f_read+0xd0>
    400021ee:	01a42e23          	sw	s10,28(s0)
    400021f2:	444c                	lw	a1,12(s0)
    400021f4:	0009049b          	sext.w	s1,s2
    400021f8:	1ff5f593          	andi	a1,a1,511
    400021fc:	40bb87bb          	subw	a5,s7,a1
    40002200:	0127f463          	bleu	s2,a5,40002208 <f_read+0x1c8>
    40002204:	0007849b          	sext.w	s1,a5
    40002208:	03058593          	addi	a1,a1,48
    4000220c:	8626                	mv	a2,s1
    4000220e:	95a2                	add	a1,a1,s0
    40002210:	8552                	mv	a0,s4
    40002212:	bd1fe0ef          	jal	ra,40000de2 <mem_cpy>
    40002216:	bf9d                	j	4000218c <f_read+0x14c>
    40002218:	499d                	li	s3,7
    4000221a:	b59d                	j	40002080 <f_read+0x40>

000000004000221c <f_write>:
    4000221c:	7159                	addi	sp,sp,-112
    4000221e:	f0a2                	sd	s0,96(sp)
    40002220:	e8ca                	sd	s2,80(sp)
    40002222:	e4ce                	sd	s3,72(sp)
    40002224:	e0d2                	sd	s4,64(sp)
    40002226:	fc56                	sd	s5,56(sp)
    40002228:	f486                	sd	ra,104(sp)
    4000222a:	eca6                	sd	s1,88(sp)
    4000222c:	f85a                	sd	s6,48(sp)
    4000222e:	f45e                	sd	s7,40(sp)
    40002230:	f062                	sd	s8,32(sp)
    40002232:	ec66                	sd	s9,24(sp)
    40002234:	e86a                	sd	s10,16(sp)
    40002236:	e46e                	sd	s11,8(sp)
    40002238:	0006a023          	sw	zero,0(a3)
    4000223c:	842a                	mv	s0,a0
    4000223e:	8a2e                	mv	s4,a1
    40002240:	8932                	mv	s2,a2
    40002242:	8ab6                	mv	s5,a3
    40002244:	cb5fe0ef          	jal	ra,40000ef8 <validate>
    40002248:	0005099b          	sext.w	s3,a0
    4000224c:	00099763          	bnez	s3,4000225a <f_write+0x3e>
    40002250:	00b44783          	lbu	a5,11(s0)
    40002254:	c39d                	beqz	a5,4000227a <f_write+0x5e>
    40002256:	0007899b          	sext.w	s3,a5
    4000225a:	70a6                	ld	ra,104(sp)
    4000225c:	7406                	ld	s0,96(sp)
    4000225e:	854e                	mv	a0,s3
    40002260:	64e6                	ld	s1,88(sp)
    40002262:	6946                	ld	s2,80(sp)
    40002264:	69a6                	ld	s3,72(sp)
    40002266:	6a06                	ld	s4,64(sp)
    40002268:	7ae2                	ld	s5,56(sp)
    4000226a:	7b42                	ld	s6,48(sp)
    4000226c:	7ba2                	ld	s7,40(sp)
    4000226e:	7c02                	ld	s8,32(sp)
    40002270:	6ce2                	ld	s9,24(sp)
    40002272:	6d42                	ld	s10,16(sp)
    40002274:	6da2                	ld	s11,8(sp)
    40002276:	6165                	addi	sp,sp,112
    40002278:	8082                	ret
    4000227a:	00a44783          	lbu	a5,10(s0)
    4000227e:	8b89                	andi	a5,a5,2
    40002280:	18078f63          	beqz	a5,4000241e <f_write+0x202>
    40002284:	445c                	lw	a5,12(s0)
    40002286:	0127873b          	addw	a4,a5,s2
    4000228a:	04f76c63          	bltu	a4,a5,400022e2 <f_write+0xc6>
    4000228e:	20000b93          	li	s7,512
    40002292:	03040b13          	addi	s6,s0,48
    40002296:	5c7d                	li	s8,-1
    40002298:	4458                	lw	a4,12(s0)
    4000229a:	04090463          	beqz	s2,400022e2 <f_write+0xc6>
    4000229e:	1ff77793          	andi	a5,a4,511
    400022a2:	14079363          	bnez	a5,400023e8 <f_write+0x1cc>
    400022a6:	6008                	ld	a0,0(s0)
    400022a8:	00975c9b          	srliw	s9,a4,0x9
    400022ac:	00254783          	lbu	a5,2(a0)
    400022b0:	37fd                	addiw	a5,a5,-1
    400022b2:	0197fcb3          	and	s9,a5,s9
    400022b6:	0ffcfc93          	andi	s9,s9,255
    400022ba:	040c9a63          	bnez	s9,4000230e <f_write+0xf2>
    400022be:	ef01                	bnez	a4,400022d6 <f_write+0xba>
    400022c0:	485c                	lw	a5,20(s0)
    400022c2:	4581                	li	a1,0
    400022c4:	cb91                	beqz	a5,400022d8 <f_write+0xbc>
    400022c6:	4705                	li	a4,1
    400022c8:	02e79863          	bne	a5,a4,400022f8 <f_write+0xdc>
    400022cc:	4789                	li	a5,2
    400022ce:	00f405a3          	sb	a5,11(s0)
    400022d2:	4989                	li	s3,2
    400022d4:	b759                	j	4000225a <f_write+0x3e>
    400022d6:	4c0c                	lw	a1,24(s0)
    400022d8:	d86ff0ef          	jal	ra,4000185e <create_chain>
    400022dc:	0005079b          	sext.w	a5,a0
    400022e0:	f3fd                	bnez	a5,400022c6 <f_write+0xaa>
    400022e2:	445c                	lw	a5,12(s0)
    400022e4:	4818                	lw	a4,16(s0)
    400022e6:	12f76a63          	bltu	a4,a5,4000241a <f_write+0x1fe>
    400022ea:	00a44783          	lbu	a5,10(s0)
    400022ee:	0207e793          	ori	a5,a5,32
    400022f2:	00f40523          	sb	a5,10(s0)
    400022f6:	b795                	j	4000225a <f_write+0x3e>
    400022f8:	01879763          	bne	a5,s8,40002306 <f_write+0xea>
    400022fc:	4785                	li	a5,1
    400022fe:	00f405a3          	sb	a5,11(s0)
    40002302:	4985                	li	s3,1
    40002304:	bf99                	j	4000225a <f_write+0x3e>
    40002306:	4858                	lw	a4,20(s0)
    40002308:	cc1c                	sw	a5,24(s0)
    4000230a:	e311                	bnez	a4,4000230e <f_write+0xf2>
    4000230c:	c85c                	sw	a5,20(s0)
    4000230e:	00a44783          	lbu	a5,10(s0)
    40002312:	0407f793          	andi	a5,a5,64
    40002316:	c38d                	beqz	a5,40002338 <f_write+0x11c>
    40002318:	601c                	ld	a5,0(s0)
    4000231a:	4c50                	lw	a2,28(s0)
    4000231c:	4685                	li	a3,1
    4000231e:	0017c503          	lbu	a0,1(a5)
    40002322:	85da                	mv	a1,s6
    40002324:	704030ef          	jal	ra,40005a28 <disk_write>
    40002328:	2501                	sext.w	a0,a0
    4000232a:	f969                	bnez	a0,400022fc <f_write+0xe0>
    4000232c:	00a44783          	lbu	a5,10(s0)
    40002330:	fbf7f793          	andi	a5,a5,-65
    40002334:	00f40523          	sb	a5,10(s0)
    40002338:	00043d83          	ld	s11,0(s0)
    4000233c:	4c0c                	lw	a1,24(s0)
    4000233e:	856e                	mv	a0,s11
    40002340:	97cff0ef          	jal	ra,400014bc <clust2sect>
    40002344:	2501                	sext.w	a0,a0
    40002346:	d159                	beqz	a0,400022cc <f_write+0xb0>
    40002348:	000c869b          	sext.w	a3,s9
    4000234c:	0099579b          	srliw	a5,s2,0x9
    40002350:	00a6863b          	addw	a2,a3,a0
    40002354:	0007849b          	sext.w	s1,a5
    40002358:	8d32                	mv	s10,a2
    4000235a:	c4b5                	beqz	s1,400023c6 <f_write+0x1aa>
    4000235c:	002dc703          	lbu	a4,2(s11)
    40002360:	9fb5                	addw	a5,a5,a3
    40002362:	00f77463          	bleu	a5,a4,4000236a <f_write+0x14e>
    40002366:	419704bb          	subw	s1,a4,s9
    4000236a:	001dc503          	lbu	a0,1(s11)
    4000236e:	86a6                	mv	a3,s1
    40002370:	85d2                	mv	a1,s4
    40002372:	6b6030ef          	jal	ra,40005a28 <disk_write>
    40002376:	2501                	sext.w	a0,a0
    40002378:	f151                	bnez	a0,400022fc <f_write+0xe0>
    4000237a:	4c4c                	lw	a1,28(s0)
    4000237c:	41a587bb          	subw	a5,a1,s10
    40002380:	0297f263          	bleu	s1,a5,400023a4 <f_write+0x188>
    40002384:	0097959b          	slliw	a1,a5,0x9
    40002388:	1582                	slli	a1,a1,0x20
    4000238a:	9181                	srli	a1,a1,0x20
    4000238c:	20000613          	li	a2,512
    40002390:	95d2                	add	a1,a1,s4
    40002392:	855a                	mv	a0,s6
    40002394:	a4ffe0ef          	jal	ra,40000de2 <mem_cpy>
    40002398:	00a44783          	lbu	a5,10(s0)
    4000239c:	fbf7f793          	andi	a5,a5,-65
    400023a0:	00f40523          	sb	a5,10(s0)
    400023a4:	0094949b          	slliw	s1,s1,0x9
    400023a8:	02049793          	slli	a5,s1,0x20
    400023ac:	9381                	srli	a5,a5,0x20
    400023ae:	9a3e                	add	s4,s4,a5
    400023b0:	445c                	lw	a5,12(s0)
    400023b2:	4099093b          	subw	s2,s2,s1
    400023b6:	9fa5                	addw	a5,a5,s1
    400023b8:	c45c                	sw	a5,12(s0)
    400023ba:	000aa783          	lw	a5,0(s5)
    400023be:	9fa5                	addw	a5,a5,s1
    400023c0:	00faa023          	sw	a5,0(s5)
    400023c4:	bdd1                	j	40002298 <f_write+0x7c>
    400023c6:	4c5c                	lw	a5,28(s0)
    400023c8:	00c78e63          	beq	a5,a2,400023e4 <f_write+0x1c8>
    400023cc:	4818                	lw	a4,16(s0)
    400023ce:	445c                	lw	a5,12(s0)
    400023d0:	00e7fa63          	bleu	a4,a5,400023e4 <f_write+0x1c8>
    400023d4:	001dc503          	lbu	a0,1(s11)
    400023d8:	4685                	li	a3,1
    400023da:	85da                	mv	a1,s6
    400023dc:	5e8030ef          	jal	ra,400059c4 <disk_read>
    400023e0:	2501                	sext.w	a0,a0
    400023e2:	fd09                	bnez	a0,400022fc <f_write+0xe0>
    400023e4:	01a42e23          	sw	s10,28(s0)
    400023e8:	4448                	lw	a0,12(s0)
    400023ea:	0009049b          	sext.w	s1,s2
    400023ee:	1ff57513          	andi	a0,a0,511
    400023f2:	40ab87bb          	subw	a5,s7,a0
    400023f6:	0127f463          	bleu	s2,a5,400023fe <f_write+0x1e2>
    400023fa:	0007849b          	sext.w	s1,a5
    400023fe:	03050513          	addi	a0,a0,48
    40002402:	8626                	mv	a2,s1
    40002404:	85d2                	mv	a1,s4
    40002406:	9522                	add	a0,a0,s0
    40002408:	9dbfe0ef          	jal	ra,40000de2 <mem_cpy>
    4000240c:	00a44783          	lbu	a5,10(s0)
    40002410:	0407e793          	ori	a5,a5,64
    40002414:	00f40523          	sb	a5,10(s0)
    40002418:	bf41                	j	400023a8 <f_write+0x18c>
    4000241a:	c81c                	sw	a5,16(s0)
    4000241c:	b5f9                	j	400022ea <f_write+0xce>
    4000241e:	499d                	li	s3,7
    40002420:	bd2d                	j	4000225a <f_write+0x3e>

0000000040002422 <f_sync>:
    40002422:	1141                	addi	sp,sp,-16
    40002424:	e022                	sd	s0,0(sp)
    40002426:	e406                	sd	ra,8(sp)
    40002428:	842a                	mv	s0,a0
    4000242a:	acffe0ef          	jal	ra,40000ef8 <validate>
    4000242e:	2501                	sext.w	a0,a0
    40002430:	e175                	bnez	a0,40002514 <f_sync+0xf2>
    40002432:	00a44783          	lbu	a5,10(s0)
    40002436:	0207f713          	andi	a4,a5,32
    4000243a:	cf69                	beqz	a4,40002514 <f_sync+0xf2>
    4000243c:	0407f793          	andi	a5,a5,64
    40002440:	c395                	beqz	a5,40002464 <f_sync+0x42>
    40002442:	601c                	ld	a5,0(s0)
    40002444:	4c50                	lw	a2,28(s0)
    40002446:	4685                	li	a3,1
    40002448:	0017c503          	lbu	a0,1(a5)
    4000244c:	03040593          	addi	a1,s0,48
    40002450:	5d8030ef          	jal	ra,40005a28 <disk_write>
    40002454:	2501                	sext.w	a0,a0
    40002456:	ed55                	bnez	a0,40002512 <f_sync+0xf0>
    40002458:	00a44783          	lbu	a5,10(s0)
    4000245c:	fbf7f793          	andi	a5,a5,-65
    40002460:	00f40523          	sb	a5,10(s0)
    40002464:	500c                	lw	a1,32(s0)
    40002466:	6008                	ld	a0,0(s0)
    40002468:	b77fe0ef          	jal	ra,40000fde <move_window>
    4000246c:	2501                	sext.w	a0,a0
    4000246e:	e15d                	bnez	a0,40002514 <f_sync+0xf2>
    40002470:	741c                	ld	a5,40(s0)
    40002472:	00b7c703          	lbu	a4,11(a5)
    40002476:	02076713          	ori	a4,a4,32
    4000247a:	00e785a3          	sb	a4,11(a5)
    4000247e:	4818                	lw	a4,16(s0)
    40002480:	0107169b          	slliw	a3,a4,0x10
    40002484:	0106d69b          	srliw	a3,a3,0x10
    40002488:	0086d69b          	srliw	a3,a3,0x8
    4000248c:	00e78e23          	sb	a4,28(a5)
    40002490:	00d78ea3          	sb	a3,29(a5)
    40002494:	0107569b          	srliw	a3,a4,0x10
    40002498:	0187571b          	srliw	a4,a4,0x18
    4000249c:	00d78f23          	sb	a3,30(a5)
    400024a0:	00e78fa3          	sb	a4,31(a5)
    400024a4:	4858                	lw	a4,20(s0)
    400024a6:	00078b23          	sb	zero,22(a5)
    400024aa:	00078ba3          	sb	zero,23(a5)
    400024ae:	00e78d23          	sb	a4,26(a5)
    400024b2:	0107169b          	slliw	a3,a4,0x10
    400024b6:	0107571b          	srliw	a4,a4,0x10
    400024ba:	2701                	sext.w	a4,a4
    400024bc:	00e78a23          	sb	a4,20(a5)
    400024c0:	0107171b          	slliw	a4,a4,0x10
    400024c4:	0107571b          	srliw	a4,a4,0x10
    400024c8:	0087571b          	srliw	a4,a4,0x8
    400024cc:	00e78aa3          	sb	a4,21(a5)
    400024d0:	0106d69b          	srliw	a3,a3,0x10
    400024d4:	02100713          	li	a4,33
    400024d8:	00e78c23          	sb	a4,24(a5)
    400024dc:	0086d69b          	srliw	a3,a3,0x8
    400024e0:	04600713          	li	a4,70
    400024e4:	00d78da3          	sb	a3,27(a5)
    400024e8:	00e78ca3          	sb	a4,25(a5)
    400024ec:	00078923          	sb	zero,18(a5)
    400024f0:	000789a3          	sb	zero,19(a5)
    400024f4:	00a44783          	lbu	a5,10(s0)
    400024f8:	6008                	ld	a0,0(s0)
    400024fa:	fdf7f793          	andi	a5,a5,-33
    400024fe:	00f40523          	sb	a5,10(s0)
    40002502:	4785                	li	a5,1
    40002504:	00f50223          	sb	a5,4(a0)
    40002508:	6402                	ld	s0,0(sp)
    4000250a:	60a2                	ld	ra,8(sp)
    4000250c:	0141                	addi	sp,sp,16
    4000250e:	ebbfe06f          	j	400013c8 <sync_fs>
    40002512:	4505                	li	a0,1
    40002514:	60a2                	ld	ra,8(sp)
    40002516:	6402                	ld	s0,0(sp)
    40002518:	0141                	addi	sp,sp,16
    4000251a:	8082                	ret

000000004000251c <f_close>:
    4000251c:	1141                	addi	sp,sp,-16
    4000251e:	e022                	sd	s0,0(sp)
    40002520:	e406                	sd	ra,8(sp)
    40002522:	842a                	mv	s0,a0
    40002524:	effff0ef          	jal	ra,40002422 <f_sync>
    40002528:	2501                	sext.w	a0,a0
    4000252a:	e901                	bnez	a0,4000253a <f_close+0x1e>
    4000252c:	8522                	mv	a0,s0
    4000252e:	9cbfe0ef          	jal	ra,40000ef8 <validate>
    40002532:	2501                	sext.w	a0,a0
    40002534:	e119                	bnez	a0,4000253a <f_close+0x1e>
    40002536:	00043023          	sd	zero,0(s0)
    4000253a:	60a2                	ld	ra,8(sp)
    4000253c:	6402                	ld	s0,0(sp)
    4000253e:	0141                	addi	sp,sp,16
    40002540:	8082                	ret

0000000040002542 <f_chdrive>:
    40002542:	1101                	addi	sp,sp,-32
    40002544:	e42a                	sd	a0,8(sp)
    40002546:	0028                	addi	a0,sp,8
    40002548:	ec06                	sd	ra,24(sp)
    4000254a:	95bfe0ef          	jal	ra,40000ea4 <get_ldnumber>
    4000254e:	00054a63          	bltz	a0,40002562 <f_chdrive+0x20>
    40002552:	00005797          	auipc	a5,0x5
    40002556:	aaa78923          	sb	a0,-1358(a5) # 40007004 <CurrVol>
    4000255a:	4501                	li	a0,0
    4000255c:	60e2                	ld	ra,24(sp)
    4000255e:	6105                	addi	sp,sp,32
    40002560:	8082                	ret
    40002562:	452d                	li	a0,11
    40002564:	bfe5                	j	4000255c <f_chdrive+0x1a>

0000000040002566 <f_chdir>:
    40002566:	7159                	addi	sp,sp,-112
    40002568:	e42a                	sd	a0,8(sp)
    4000256a:	4601                	li	a2,0
    4000256c:	002c                	addi	a1,sp,8
    4000256e:	1028                	addi	a0,sp,40
    40002570:	f0a2                	sd	s0,96(sp)
    40002572:	f486                	sd	ra,104(sp)
    40002574:	eca6                	sd	s1,88(sp)
    40002576:	b3bfe0ef          	jal	ra,400010b0 <find_volume>
    4000257a:	0005041b          	sext.w	s0,a0
    4000257e:	ec19                	bnez	s0,4000259c <f_chdir+0x36>
    40002580:	65a2                	ld	a1,8(sp)
    40002582:	083c                	addi	a5,sp,24
    40002584:	1028                	addi	a0,sp,40
    40002586:	e4be                	sd	a5,72(sp)
    40002588:	cd2ff0ef          	jal	ra,40001a5a <follow_path>
    4000258c:	0005041b          	sext.w	s0,a0
    40002590:	e41d                	bnez	s0,400025be <f_chdir+0x58>
    40002592:	6586                	ld	a1,64(sp)
    40002594:	e991                	bnez	a1,400025a8 <f_chdir+0x42>
    40002596:	77a2                	ld	a5,40(sp)
    40002598:	5752                	lw	a4,52(sp)
    4000259a:	cbd8                	sw	a4,20(a5)
    4000259c:	8522                	mv	a0,s0
    4000259e:	70a6                	ld	ra,104(sp)
    400025a0:	7406                	ld	s0,96(sp)
    400025a2:	64e6                	ld	s1,88(sp)
    400025a4:	6165                	addi	sp,sp,112
    400025a6:	8082                	ret
    400025a8:	00b5c783          	lbu	a5,11(a1)
    400025ac:	8bc1                	andi	a5,a5,16
    400025ae:	cb99                	beqz	a5,400025c4 <f_chdir+0x5e>
    400025b0:	74a2                	ld	s1,40(sp)
    400025b2:	0004c503          	lbu	a0,0(s1)
    400025b6:	97bfe0ef          	jal	ra,40000f30 <ld_clust.isra.0>
    400025ba:	c8c8                	sw	a0,20(s1)
    400025bc:	b7c5                	j	4000259c <f_chdir+0x36>
    400025be:	4791                	li	a5,4
    400025c0:	fcf41ee3          	bne	s0,a5,4000259c <f_chdir+0x36>
    400025c4:	4415                	li	s0,5
    400025c6:	bfd9                	j	4000259c <f_chdir+0x36>

00000000400025c8 <f_getcwd>:
    400025c8:	7175                	addi	sp,sp,-144
    400025ca:	fca6                	sd	s1,120(sp)
    400025cc:	e42a                	sd	a0,8(sp)
    400025ce:	e506                	sd	ra,136(sp)
    400025d0:	e122                	sd	s0,128(sp)
    400025d2:	f8ca                	sd	s2,112(sp)
    400025d4:	f4ce                	sd	s3,104(sp)
    400025d6:	f0d2                	sd	s4,96(sp)
    400025d8:	00050023          	sb	zero,0(a0)
    400025dc:	84ae                	mv	s1,a1
    400025de:	4601                	li	a2,0
    400025e0:	002c                	addi	a1,sp,8
    400025e2:	1828                	addi	a0,sp,56
    400025e4:	acdfe0ef          	jal	ra,400010b0 <find_volume>
    400025e8:	2501                	sext.w	a0,a0
    400025ea:	e529                	bnez	a0,40002634 <f_getcwd+0x6c>
    400025ec:	081c                	addi	a5,sp,16
    400025ee:	ecbe                	sd	a5,88(sp)
    400025f0:	77e2                	ld	a5,56(sp)
    400025f2:	8426                	mv	s0,s1
    400025f4:	597d                	li	s2,-1
    400025f6:	4bdc                	lw	a5,20(a5)
    400025f8:	02f00993          	li	s3,47
    400025fc:	c2be                	sw	a5,68(sp)
    400025fe:	4a16                	lw	s4,68(sp)
    40002600:	040a1263          	bnez	s4,40002644 <f_getcwd+0x7c>
    40002604:	4501                	li	a0,0
    40002606:	67a2                	ld	a5,8(sp)
    40002608:	e505                	bnez	a0,40002630 <f_getcwd+0x68>
    4000260a:	00005717          	auipc	a4,0x5
    4000260e:	9fa74703          	lbu	a4,-1542(a4) # 40007004 <CurrVol>
    40002612:	0307071b          	addiw	a4,a4,48
    40002616:	00e78023          	sb	a4,0(a5)
    4000261a:	03a00713          	li	a4,58
    4000261e:	00e780a3          	sb	a4,1(a5)
    40002622:	0e941863          	bne	s0,s1,40002712 <f_getcwd+0x14a>
    40002626:	02f00713          	li	a4,47
    4000262a:	00e78123          	sb	a4,2(a5)
    4000262e:	078d                	addi	a5,a5,3
    40002630:	00078023          	sb	zero,0(a5)
    40002634:	60aa                	ld	ra,136(sp)
    40002636:	640a                	ld	s0,128(sp)
    40002638:	74e6                	ld	s1,120(sp)
    4000263a:	7946                	ld	s2,112(sp)
    4000263c:	79a6                	ld	s3,104(sp)
    4000263e:	7a06                	ld	s4,96(sp)
    40002640:	6149                	addi	sp,sp,144
    40002642:	8082                	ret
    40002644:	4585                	li	a1,1
    40002646:	1828                	addi	a0,sp,56
    40002648:	f89fe0ef          	jal	ra,400015d0 <dir_sdi>
    4000264c:	2501                	sext.w	a0,a0
    4000264e:	fd45                	bnez	a0,40002606 <f_getcwd+0x3e>
    40002650:	4581                	li	a1,0
    40002652:	1828                	addi	a0,sp,56
    40002654:	e6eff0ef          	jal	ra,40001cc2 <dir_read>
    40002658:	2501                	sext.w	a0,a0
    4000265a:	f555                	bnez	a0,40002606 <f_getcwd+0x3e>
    4000265c:	77e2                	ld	a5,56(sp)
    4000265e:	65c6                	ld	a1,80(sp)
    40002660:	0007c503          	lbu	a0,0(a5)
    40002664:	8cdfe0ef          	jal	ra,40000f30 <ld_clust.isra.0>
    40002668:	c2aa                	sw	a0,68(sp)
    4000266a:	4581                	li	a1,0
    4000266c:	1828                	addi	a0,sp,56
    4000266e:	f63fe0ef          	jal	ra,400015d0 <dir_sdi>
    40002672:	2501                	sext.w	a0,a0
    40002674:	f949                	bnez	a0,40002606 <f_getcwd+0x3e>
    40002676:	4581                	li	a1,0
    40002678:	1828                	addi	a0,sp,56
    4000267a:	e48ff0ef          	jal	ra,40001cc2 <dir_read>
    4000267e:	2501                	sext.w	a0,a0
    40002680:	e105                	bnez	a0,400026a0 <f_getcwd+0xd8>
    40002682:	77e2                	ld	a5,56(sp)
    40002684:	65c6                	ld	a1,80(sp)
    40002686:	0007c503          	lbu	a0,0(a5)
    4000268a:	8a7fe0ef          	jal	ra,40000f30 <ld_clust.isra.0>
    4000268e:	2501                	sext.w	a0,a0
    40002690:	01450e63          	beq	a0,s4,400026ac <f_getcwd+0xe4>
    40002694:	4581                	li	a1,0
    40002696:	1828                	addi	a0,sp,56
    40002698:	a9eff0ef          	jal	ra,40001936 <dir_next>
    4000269c:	2501                	sext.w	a0,a0
    4000269e:	dd61                	beqz	a0,40002676 <f_getcwd+0xae>
    400026a0:	4711                	li	a4,4
    400026a2:	67a2                	ld	a5,8(sp)
    400026a4:	f8e516e3          	bne	a0,a4,40002630 <f_getcwd+0x68>
    400026a8:	4509                	li	a0,2
    400026aa:	b759                	j	40002630 <f_getcwd+0x68>
    400026ac:	100c                	addi	a1,sp,32
    400026ae:	1828                	addi	a0,sp,56
    400026b0:	f5cfe0ef          	jal	ra,40000e0c <get_fileinfo>
    400026b4:	4781                	li	a5,0
    400026b6:	02079713          	slli	a4,a5,0x20
    400026ba:	9301                	srli	a4,a4,0x20
    400026bc:	1094                	addi	a3,sp,96
    400026be:	9736                	add	a4,a4,a3
    400026c0:	fc974703          	lbu	a4,-55(a4)
    400026c4:	eb05                	bnez	a4,400026f4 <f_getcwd+0x12c>
    400026c6:	0037871b          	addiw	a4,a5,3
    400026ca:	04e46263          	bltu	s0,a4,4000270e <f_getcwd+0x146>
    400026ce:	fff7871b          	addiw	a4,a5,-1
    400026d2:	40f405bb          	subw	a1,s0,a5
    400026d6:	00e586bb          	addw	a3,a1,a4
    400026da:	02069613          	slli	a2,a3,0x20
    400026de:	66a2                	ld	a3,8(sp)
    400026e0:	9201                	srli	a2,a2,0x20
    400026e2:	96b2                	add	a3,a3,a2
    400026e4:	01271a63          	bne	a4,s2,400026f8 <f_getcwd+0x130>
    400026e8:	fff7c793          	not	a5,a5
    400026ec:	01368023          	sb	s3,0(a3)
    400026f0:	9c3d                	addw	s0,s0,a5
    400026f2:	b731                	j	400025fe <f_getcwd+0x36>
    400026f4:	2785                	addiw	a5,a5,1
    400026f6:	b7c1                	j	400026b6 <f_getcwd+0xee>
    400026f8:	02071613          	slli	a2,a4,0x20
    400026fc:	9201                	srli	a2,a2,0x20
    400026fe:	1088                	addi	a0,sp,96
    40002700:	962a                	add	a2,a2,a0
    40002702:	fc964603          	lbu	a2,-55(a2) # fffffc9 <_tbss_end+0xfffffc9>
    40002706:	377d                	addiw	a4,a4,-1
    40002708:	00c68023          	sb	a2,0(a3)
    4000270c:	b7e9                	j	400026d6 <f_getcwd+0x10e>
    4000270e:	4545                	li	a0,17
    40002710:	bddd                	j	40002606 <f_getcwd+0x3e>
    40002712:	0789                	addi	a5,a5,2
    40002714:	6722                	ld	a4,8(sp)
    40002716:	02041693          	slli	a3,s0,0x20
    4000271a:	9281                	srli	a3,a3,0x20
    4000271c:	9736                	add	a4,a4,a3
    4000271e:	00074703          	lbu	a4,0(a4)
    40002722:	0785                	addi	a5,a5,1
    40002724:	2405                	addiw	s0,s0,1
    40002726:	fee78fa3          	sb	a4,-1(a5)
    4000272a:	fe9465e3          	bltu	s0,s1,40002714 <f_getcwd+0x14c>
    4000272e:	b709                	j	40002630 <f_getcwd+0x68>

0000000040002730 <f_lseek>:
    40002730:	7139                	addi	sp,sp,-64
    40002732:	f822                	sd	s0,48(sp)
    40002734:	f426                	sd	s1,40(sp)
    40002736:	f04a                	sd	s2,32(sp)
    40002738:	fc06                	sd	ra,56(sp)
    4000273a:	ec4e                	sd	s3,24(sp)
    4000273c:	e852                	sd	s4,16(sp)
    4000273e:	e456                	sd	s5,8(sp)
    40002740:	842a                	mv	s0,a0
    40002742:	84ae                	mv	s1,a1
    40002744:	fb4fe0ef          	jal	ra,40000ef8 <validate>
    40002748:	0005091b          	sext.w	s2,a0
    4000274c:	00091763          	bnez	s2,4000275a <f_lseek+0x2a>
    40002750:	00b44783          	lbu	a5,11(s0)
    40002754:	cf89                	beqz	a5,4000276e <f_lseek+0x3e>
    40002756:	0007891b          	sext.w	s2,a5
    4000275a:	70e2                	ld	ra,56(sp)
    4000275c:	7442                	ld	s0,48(sp)
    4000275e:	854a                	mv	a0,s2
    40002760:	74a2                	ld	s1,40(sp)
    40002762:	7902                	ld	s2,32(sp)
    40002764:	69e2                	ld	s3,24(sp)
    40002766:	6a42                	ld	s4,16(sp)
    40002768:	6aa2                	ld	s5,8(sp)
    4000276a:	6121                	addi	sp,sp,64
    4000276c:	8082                	ret
    4000276e:	4818                	lw	a4,16(s0)
    40002770:	00977763          	bleu	s1,a4,4000277e <f_lseek+0x4e>
    40002774:	00a44783          	lbu	a5,10(s0)
    40002778:	8b89                	andi	a5,a5,2
    4000277a:	e391                	bnez	a5,4000277e <f_lseek+0x4e>
    4000277c:	84ba                	mv	s1,a4
    4000277e:	4458                	lw	a4,12(s0)
    40002780:	00042623          	sw	zero,12(s0)
    40002784:	e4bd                	bnez	s1,400027f2 <f_lseek+0xc2>
    40002786:	445c                	lw	a5,12(s0)
    40002788:	4818                	lw	a4,16(s0)
    4000278a:	fcf778e3          	bleu	a5,a4,4000275a <f_lseek+0x2a>
    4000278e:	c81c                	sw	a5,16(s0)
    40002790:	00a44783          	lbu	a5,10(s0)
    40002794:	0207e793          	ori	a5,a5,32
    40002798:	00f40523          	sb	a5,10(s0)
    4000279c:	bf7d                	j	4000275a <f_lseek+0x2a>
    4000279e:	4481                	li	s1,0
    400027a0:	445c                	lw	a5,12(s0)
    400027a2:	1ff7f793          	andi	a5,a5,511
    400027a6:	d3e5                	beqz	a5,40002786 <f_lseek+0x56>
    400027a8:	4c50                	lw	a2,28(s0)
    400027aa:	fc960ee3          	beq	a2,s1,40002786 <f_lseek+0x56>
    400027ae:	00a44783          	lbu	a5,10(s0)
    400027b2:	03040993          	addi	s3,s0,48
    400027b6:	0407f793          	andi	a5,a5,64
    400027ba:	c385                	beqz	a5,400027da <f_lseek+0xaa>
    400027bc:	601c                	ld	a5,0(s0)
    400027be:	4685                	li	a3,1
    400027c0:	85ce                	mv	a1,s3
    400027c2:	0017c503          	lbu	a0,1(a5)
    400027c6:	262030ef          	jal	ra,40005a28 <disk_write>
    400027ca:	2501                	sext.w	a0,a0
    400027cc:	ed51                	bnez	a0,40002868 <f_lseek+0x138>
    400027ce:	00a44783          	lbu	a5,10(s0)
    400027d2:	fbf7f793          	andi	a5,a5,-65
    400027d6:	00f40523          	sb	a5,10(s0)
    400027da:	601c                	ld	a5,0(s0)
    400027dc:	4685                	li	a3,1
    400027de:	8626                	mv	a2,s1
    400027e0:	0017c503          	lbu	a0,1(a5)
    400027e4:	85ce                	mv	a1,s3
    400027e6:	1de030ef          	jal	ra,400059c4 <disk_read>
    400027ea:	2501                	sext.w	a0,a0
    400027ec:	ed35                	bnez	a0,40002868 <f_lseek+0x138>
    400027ee:	cc44                	sw	s1,28(s0)
    400027f0:	bf59                	j	40002786 <f_lseek+0x56>
    400027f2:	6008                	ld	a0,0(s0)
    400027f4:	00254783          	lbu	a5,2(a0)
    400027f8:	0097999b          	slliw	s3,a5,0x9
    400027fc:	c729                	beqz	a4,40002846 <f_lseek+0x116>
    400027fe:	377d                	addiw	a4,a4,-1
    40002800:	fff4869b          	addiw	a3,s1,-1
    40002804:	0336d6bb          	divuw	a3,a3,s3
    40002808:	0337563b          	divuw	a2,a4,s3
    4000280c:	02c6ed63          	bltu	a3,a2,40002846 <f_lseek+0x116>
    40002810:	413007bb          	negw	a5,s3
    40002814:	8ff9                	and	a5,a5,a4
    40002816:	4c0c                	lw	a1,24(s0)
    40002818:	2781                	sext.w	a5,a5
    4000281a:	c45c                	sw	a5,12(s0)
    4000281c:	9c9d                	subw	s1,s1,a5
    4000281e:	d1c1                	beqz	a1,4000279e <f_lseek+0x6e>
    40002820:	5a7d                	li	s4,-1
    40002822:	4a85                	li	s5,1
    40002824:	0499ea63          	bltu	s3,s1,40002878 <f_lseek+0x148>
    40002828:	445c                	lw	a5,12(s0)
    4000282a:	9fa5                	addw	a5,a5,s1
    4000282c:	c45c                	sw	a5,12(s0)
    4000282e:	1ff4f793          	andi	a5,s1,511
    40002832:	d7b5                	beqz	a5,4000279e <f_lseek+0x6e>
    40002834:	6008                	ld	a0,0(s0)
    40002836:	c87fe0ef          	jal	ra,400014bc <clust2sect>
    4000283a:	2501                	sext.w	a0,a0
    4000283c:	cd11                	beqz	a0,40002858 <f_lseek+0x128>
    4000283e:	0094d49b          	srliw	s1,s1,0x9
    40002842:	9ca9                	addw	s1,s1,a0
    40002844:	bfb1                	j	400027a0 <f_lseek+0x70>
    40002846:	484c                	lw	a1,20(s0)
    40002848:	e595                	bnez	a1,40002874 <f_lseek+0x144>
    4000284a:	814ff0ef          	jal	ra,4000185e <create_chain>
    4000284e:	0005059b          	sext.w	a1,a0
    40002852:	4785                	li	a5,1
    40002854:	00f59763          	bne	a1,a5,40002862 <f_lseek+0x132>
    40002858:	4789                	li	a5,2
    4000285a:	00f405a3          	sb	a5,11(s0)
    4000285e:	4909                	li	s2,2
    40002860:	bded                	j	4000275a <f_lseek+0x2a>
    40002862:	57fd                	li	a5,-1
    40002864:	00f59763          	bne	a1,a5,40002872 <f_lseek+0x142>
    40002868:	4785                	li	a5,1
    4000286a:	00f405a3          	sb	a5,11(s0)
    4000286e:	4905                	li	s2,1
    40002870:	b5ed                	j	4000275a <f_lseek+0x2a>
    40002872:	c84c                	sw	a1,20(s0)
    40002874:	cc0c                	sw	a1,24(s0)
    40002876:	b765                	j	4000281e <f_lseek+0xee>
    40002878:	00a44783          	lbu	a5,10(s0)
    4000287c:	6008                	ld	a0,0(s0)
    4000287e:	8b89                	andi	a5,a5,2
    40002880:	cb81                	beqz	a5,40002890 <f_lseek+0x160>
    40002882:	fddfe0ef          	jal	ra,4000185e <create_chain>
    40002886:	0005059b          	sext.w	a1,a0
    4000288a:	e599                	bnez	a1,40002898 <f_lseek+0x168>
    4000288c:	84ce                	mv	s1,s3
    4000288e:	bf69                	j	40002828 <f_lseek+0xf8>
    40002890:	c4bfe0ef          	jal	ra,400014da <get_fat>
    40002894:	0005059b          	sext.w	a1,a0
    40002898:	fd4588e3          	beq	a1,s4,40002868 <f_lseek+0x138>
    4000289c:	fabafee3          	bleu	a1,s5,40002858 <f_lseek+0x128>
    400028a0:	601c                	ld	a5,0(s0)
    400028a2:	4f9c                	lw	a5,24(a5)
    400028a4:	faf5fae3          	bleu	a5,a1,40002858 <f_lseek+0x128>
    400028a8:	445c                	lw	a5,12(s0)
    400028aa:	cc0c                	sw	a1,24(s0)
    400028ac:	413484bb          	subw	s1,s1,s3
    400028b0:	013787bb          	addw	a5,a5,s3
    400028b4:	c45c                	sw	a5,12(s0)
    400028b6:	b7bd                	j	40002824 <f_lseek+0xf4>

00000000400028b8 <f_opendir>:
    400028b8:	7139                	addi	sp,sp,-64
    400028ba:	fc06                	sd	ra,56(sp)
    400028bc:	f822                	sd	s0,48(sp)
    400028be:	e42e                	sd	a1,8(sp)
    400028c0:	c52d                	beqz	a0,4000292a <f_opendir+0x72>
    400028c2:	842a                	mv	s0,a0
    400028c4:	4601                	li	a2,0
    400028c6:	002c                	addi	a1,sp,8
    400028c8:	0828                	addi	a0,sp,24
    400028ca:	fe6fe0ef          	jal	ra,400010b0 <find_volume>
    400028ce:	2501                	sext.w	a0,a0
    400028d0:	e115                	bnez	a0,400028f4 <f_opendir+0x3c>
    400028d2:	67e2                	ld	a5,24(sp)
    400028d4:	65a2                	ld	a1,8(sp)
    400028d6:	8522                	mv	a0,s0
    400028d8:	e01c                	sd	a5,0(s0)
    400028da:	101c                	addi	a5,sp,32
    400028dc:	f01c                	sd	a5,32(s0)
    400028de:	97cff0ef          	jal	ra,40001a5a <follow_path>
    400028e2:	2501                	sext.w	a0,a0
    400028e4:	e529                	bnez	a0,4000292e <f_opendir+0x76>
    400028e6:	6c0c                	ld	a1,24(s0)
    400028e8:	cd99                	beqz	a1,40002906 <f_opendir+0x4e>
    400028ea:	00b5c783          	lbu	a5,11(a1)
    400028ee:	8bc1                	andi	a5,a5,16
    400028f0:	e789                	bnez	a5,400028fa <f_opendir+0x42>
    400028f2:	4515                	li	a0,5
    400028f4:	00043023          	sd	zero,0(s0)
    400028f8:	a02d                	j	40002922 <f_opendir+0x6a>
    400028fa:	67e2                	ld	a5,24(sp)
    400028fc:	0007c503          	lbu	a0,0(a5)
    40002900:	e30fe0ef          	jal	ra,40000f30 <ld_clust.isra.0>
    40002904:	c448                	sw	a0,12(s0)
    40002906:	67e2                	ld	a5,24(sp)
    40002908:	4581                	li	a1,0
    4000290a:	8522                	mv	a0,s0
    4000290c:	0067d783          	lhu	a5,6(a5)
    40002910:	00f41423          	sh	a5,8(s0)
    40002914:	cbdfe0ef          	jal	ra,400015d0 <dir_sdi>
    40002918:	2501                	sext.w	a0,a0
    4000291a:	4791                	li	a5,4
    4000291c:	fcf50be3          	beq	a0,a5,400028f2 <f_opendir+0x3a>
    40002920:	f971                	bnez	a0,400028f4 <f_opendir+0x3c>
    40002922:	70e2                	ld	ra,56(sp)
    40002924:	7442                	ld	s0,48(sp)
    40002926:	6121                	addi	sp,sp,64
    40002928:	8082                	ret
    4000292a:	4525                	li	a0,9
    4000292c:	bfdd                	j	40002922 <f_opendir+0x6a>
    4000292e:	4791                	li	a5,4
    40002930:	fcf501e3          	beq	a0,a5,400028f2 <f_opendir+0x3a>
    40002934:	b7c1                	j	400028f4 <f_opendir+0x3c>

0000000040002936 <f_closedir>:
    40002936:	1141                	addi	sp,sp,-16
    40002938:	e022                	sd	s0,0(sp)
    4000293a:	e406                	sd	ra,8(sp)
    4000293c:	842a                	mv	s0,a0
    4000293e:	dbafe0ef          	jal	ra,40000ef8 <validate>
    40002942:	2501                	sext.w	a0,a0
    40002944:	e119                	bnez	a0,4000294a <f_closedir+0x14>
    40002946:	00043023          	sd	zero,0(s0)
    4000294a:	60a2                	ld	ra,8(sp)
    4000294c:	6402                	ld	s0,0(sp)
    4000294e:	0141                	addi	sp,sp,16
    40002950:	8082                	ret

0000000040002952 <f_readdir>:
    40002952:	7179                	addi	sp,sp,-48
    40002954:	f022                	sd	s0,32(sp)
    40002956:	ec26                	sd	s1,24(sp)
    40002958:	e84a                	sd	s2,16(sp)
    4000295a:	f406                	sd	ra,40(sp)
    4000295c:	842a                	mv	s0,a0
    4000295e:	892e                	mv	s2,a1
    40002960:	d98fe0ef          	jal	ra,40000ef8 <validate>
    40002964:	0005049b          	sext.w	s1,a0
    40002968:	e889                	bnez	s1,4000297a <f_readdir+0x28>
    4000296a:	00091f63          	bnez	s2,40002988 <f_readdir+0x36>
    4000296e:	4581                	li	a1,0
    40002970:	8522                	mv	a0,s0
    40002972:	c5ffe0ef          	jal	ra,400015d0 <dir_sdi>
    40002976:	0005049b          	sext.w	s1,a0
    4000297a:	70a2                	ld	ra,40(sp)
    4000297c:	7402                	ld	s0,32(sp)
    4000297e:	8526                	mv	a0,s1
    40002980:	6942                	ld	s2,16(sp)
    40002982:	64e2                	ld	s1,24(sp)
    40002984:	6145                	addi	sp,sp,48
    40002986:	8082                	ret
    40002988:	02243023          	sd	sp,32(s0)
    4000298c:	4581                	li	a1,0
    4000298e:	8522                	mv	a0,s0
    40002990:	b32ff0ef          	jal	ra,40001cc2 <dir_read>
    40002994:	2501                	sext.w	a0,a0
    40002996:	4791                	li	a5,4
    40002998:	02f51363          	bne	a0,a5,400029be <f_readdir+0x6c>
    4000299c:	00042a23          	sw	zero,20(s0)
    400029a0:	85ca                	mv	a1,s2
    400029a2:	8522                	mv	a0,s0
    400029a4:	c68fe0ef          	jal	ra,40000e0c <get_fileinfo>
    400029a8:	4581                	li	a1,0
    400029aa:	8522                	mv	a0,s0
    400029ac:	f8bfe0ef          	jal	ra,40001936 <dir_next>
    400029b0:	2501                	sext.w	a0,a0
    400029b2:	4791                	li	a5,4
    400029b4:	00f51663          	bne	a0,a5,400029c0 <f_readdir+0x6e>
    400029b8:	00042a23          	sw	zero,20(s0)
    400029bc:	bf7d                	j	4000297a <f_readdir+0x28>
    400029be:	d16d                	beqz	a0,400029a0 <f_readdir+0x4e>
    400029c0:	84aa                	mv	s1,a0
    400029c2:	bf65                	j	4000297a <f_readdir+0x28>

00000000400029c4 <f_stat>:
    400029c4:	7159                	addi	sp,sp,-112
    400029c6:	eca6                	sd	s1,88(sp)
    400029c8:	e42a                	sd	a0,8(sp)
    400029ca:	84ae                	mv	s1,a1
    400029cc:	4601                	li	a2,0
    400029ce:	002c                	addi	a1,sp,8
    400029d0:	1028                	addi	a0,sp,40
    400029d2:	f0a2                	sd	s0,96(sp)
    400029d4:	f486                	sd	ra,104(sp)
    400029d6:	edafe0ef          	jal	ra,400010b0 <find_volume>
    400029da:	0005041b          	sext.w	s0,a0
    400029de:	e00d                	bnez	s0,40002a00 <f_stat+0x3c>
    400029e0:	65a2                	ld	a1,8(sp)
    400029e2:	083c                	addi	a5,sp,24
    400029e4:	1028                	addi	a0,sp,40
    400029e6:	e4be                	sd	a5,72(sp)
    400029e8:	872ff0ef          	jal	ra,40001a5a <follow_path>
    400029ec:	0005041b          	sext.w	s0,a0
    400029f0:	e801                	bnez	s0,40002a00 <f_stat+0x3c>
    400029f2:	6786                	ld	a5,64(sp)
    400029f4:	cf81                	beqz	a5,40002a0c <f_stat+0x48>
    400029f6:	c489                	beqz	s1,40002a00 <f_stat+0x3c>
    400029f8:	85a6                	mv	a1,s1
    400029fa:	1028                	addi	a0,sp,40
    400029fc:	c10fe0ef          	jal	ra,40000e0c <get_fileinfo>
    40002a00:	8522                	mv	a0,s0
    40002a02:	70a6                	ld	ra,104(sp)
    40002a04:	7406                	ld	s0,96(sp)
    40002a06:	64e6                	ld	s1,88(sp)
    40002a08:	6165                	addi	sp,sp,112
    40002a0a:	8082                	ret
    40002a0c:	4419                	li	s0,6
    40002a0e:	bfcd                	j	40002a00 <f_stat+0x3c>

0000000040002a10 <f_getfree>:
    40002a10:	7159                	addi	sp,sp,-112
    40002a12:	f0a2                	sd	s0,96(sp)
    40002a14:	8432                	mv	s0,a2
    40002a16:	f85a                	sd	s6,48(sp)
    40002a18:	e42a                	sd	a0,8(sp)
    40002a1a:	8b2e                	mv	s6,a1
    40002a1c:	4601                	li	a2,0
    40002a1e:	002c                	addi	a1,sp,8
    40002a20:	8522                	mv	a0,s0
    40002a22:	e0d2                	sd	s4,64(sp)
    40002a24:	f486                	sd	ra,104(sp)
    40002a26:	eca6                	sd	s1,88(sp)
    40002a28:	e8ca                	sd	s2,80(sp)
    40002a2a:	e4ce                	sd	s3,72(sp)
    40002a2c:	fc56                	sd	s5,56(sp)
    40002a2e:	f45e                	sd	s7,40(sp)
    40002a30:	f062                	sd	s8,32(sp)
    40002a32:	ec66                	sd	s9,24(sp)
    40002a34:	e7cfe0ef          	jal	ra,400010b0 <find_volume>
    40002a38:	00050a1b          	sext.w	s4,a0
    40002a3c:	000a1c63          	bnez	s4,40002a54 <f_getfree+0x44>
    40002a40:	6000                	ld	s0,0(s0)
    40002a42:	01842c83          	lw	s9,24(s0)
    40002a46:	481c                	lw	a5,16(s0)
    40002a48:	ffec871b          	addiw	a4,s9,-2
    40002a4c:	02f76263          	bltu	a4,a5,40002a70 <f_getfree+0x60>
    40002a50:	00fb2023          	sw	a5,0(s6)
    40002a54:	70a6                	ld	ra,104(sp)
    40002a56:	7406                	ld	s0,96(sp)
    40002a58:	8552                	mv	a0,s4
    40002a5a:	64e6                	ld	s1,88(sp)
    40002a5c:	6946                	ld	s2,80(sp)
    40002a5e:	69a6                	ld	s3,72(sp)
    40002a60:	6a06                	ld	s4,64(sp)
    40002a62:	7ae2                	ld	s5,56(sp)
    40002a64:	7b42                	ld	s6,48(sp)
    40002a66:	7ba2                	ld	s7,40(sp)
    40002a68:	7c02                	ld	s8,32(sp)
    40002a6a:	6ce2                	ld	s9,24(sp)
    40002a6c:	6165                	addi	sp,sp,112
    40002a6e:	8082                	ret
    40002a70:	00044b83          	lbu	s7,0(s0)
    40002a74:	4785                	li	a5,1
    40002a76:	02fb9f63          	bne	s7,a5,40002ab4 <f_getfree+0xa4>
    40002a7a:	4909                	li	s2,2
    40002a7c:	4481                	li	s1,0
    40002a7e:	59fd                	li	s3,-1
    40002a80:	4a85                	li	s5,1
    40002a82:	85ca                	mv	a1,s2
    40002a84:	8522                	mv	a0,s0
    40002a86:	a55fe0ef          	jal	ra,400014da <get_fat>
    40002a8a:	2501                	sext.w	a0,a0
    40002a8c:	09350863          	beq	a0,s3,40002b1c <f_getfree+0x10c>
    40002a90:	09550863          	beq	a0,s5,40002b20 <f_getfree+0x110>
    40002a94:	e111                	bnez	a0,40002a98 <f_getfree+0x88>
    40002a96:	2485                	addiw	s1,s1,1
    40002a98:	4c1c                	lw	a5,24(s0)
    40002a9a:	2905                	addiw	s2,s2,1
    40002a9c:	fef963e3          	bltu	s2,a5,40002a82 <f_getfree+0x72>
    40002aa0:	00544783          	lbu	a5,5(s0)
    40002aa4:	c804                	sw	s1,16(s0)
    40002aa6:	0017e793          	ori	a5,a5,1
    40002aaa:	00f402a3          	sb	a5,5(s0)
    40002aae:	009b2023          	sw	s1,0(s6)
    40002ab2:	b74d                	j	40002a54 <f_getfree+0x44>
    40002ab4:	504c                	lw	a1,36(s0)
    40002ab6:	10000ab7          	lui	s5,0x10000
    40002aba:	4901                	li	s2,0
    40002abc:	4981                	li	s3,0
    40002abe:	4481                	li	s1,0
    40002ac0:	4c09                	li	s8,2
    40002ac2:	1afd                	addi	s5,s5,-1
    40002ac4:	00099e63          	bnez	s3,40002ae0 <f_getfree+0xd0>
    40002ac8:	8522                	mv	a0,s0
    40002aca:	0015899b          	addiw	s3,a1,1
    40002ace:	d10fe0ef          	jal	ra,40000fde <move_window>
    40002ad2:	2501                	sext.w	a0,a0
    40002ad4:	e921                	bnez	a0,40002b24 <f_getfree+0x114>
    40002ad6:	85ce                	mv	a1,s3
    40002ad8:	03440913          	addi	s2,s0,52
    40002adc:	20000993          	li	s3,512
    40002ae0:	038b9163          	bne	s7,s8,40002b02 <f_getfree+0xf2>
    40002ae4:	00194783          	lbu	a5,1(s2)
    40002ae8:	00094703          	lbu	a4,0(s2)
    40002aec:	0087979b          	slliw	a5,a5,0x8
    40002af0:	8fd9                	or	a5,a5,a4
    40002af2:	e391                	bnez	a5,40002af6 <f_getfree+0xe6>
    40002af4:	2485                	addiw	s1,s1,1
    40002af6:	0909                	addi	s2,s2,2
    40002af8:	39f9                	addiw	s3,s3,-2
    40002afa:	3cfd                	addiw	s9,s9,-1
    40002afc:	fc0c94e3          	bnez	s9,40002ac4 <f_getfree+0xb4>
    40002b00:	b745                	j	40002aa0 <f_getfree+0x90>
    40002b02:	854a                	mv	a0,s2
    40002b04:	e02e                	sd	a1,0(sp)
    40002b06:	abcfe0ef          	jal	ra,40000dc2 <LD_DWORD>
    40002b0a:	2501                	sext.w	a0,a0
    40002b0c:	01557533          	and	a0,a0,s5
    40002b10:	6582                	ld	a1,0(sp)
    40002b12:	e111                	bnez	a0,40002b16 <f_getfree+0x106>
    40002b14:	2485                	addiw	s1,s1,1
    40002b16:	0911                	addi	s2,s2,4
    40002b18:	39f1                	addiw	s3,s3,-4
    40002b1a:	b7c5                	j	40002afa <f_getfree+0xea>
    40002b1c:	4a05                	li	s4,1
    40002b1e:	b749                	j	40002aa0 <f_getfree+0x90>
    40002b20:	4a09                	li	s4,2
    40002b22:	bfbd                	j	40002aa0 <f_getfree+0x90>
    40002b24:	8a2a                	mv	s4,a0
    40002b26:	bfad                	j	40002aa0 <f_getfree+0x90>

0000000040002b28 <f_truncate>:
    40002b28:	1101                	addi	sp,sp,-32
    40002b2a:	e822                	sd	s0,16(sp)
    40002b2c:	e426                	sd	s1,8(sp)
    40002b2e:	ec06                	sd	ra,24(sp)
    40002b30:	e04a                	sd	s2,0(sp)
    40002b32:	842a                	mv	s0,a0
    40002b34:	bc4fe0ef          	jal	ra,40000ef8 <validate>
    40002b38:	0005049b          	sext.w	s1,a0
    40002b3c:	e491                	bnez	s1,40002b48 <f_truncate+0x20>
    40002b3e:	00b44783          	lbu	a5,11(s0)
    40002b42:	cb91                	beqz	a5,40002b56 <f_truncate+0x2e>
    40002b44:	0007849b          	sext.w	s1,a5
    40002b48:	60e2                	ld	ra,24(sp)
    40002b4a:	6442                	ld	s0,16(sp)
    40002b4c:	8526                	mv	a0,s1
    40002b4e:	6902                	ld	s2,0(sp)
    40002b50:	64a2                	ld	s1,8(sp)
    40002b52:	6105                	addi	sp,sp,32
    40002b54:	8082                	ret
    40002b56:	00a44783          	lbu	a5,10(s0)
    40002b5a:	0027f713          	andi	a4,a5,2
    40002b5e:	cf39                	beqz	a4,40002bbc <f_truncate+0x94>
    40002b60:	4458                	lw	a4,12(s0)
    40002b62:	4814                	lw	a3,16(s0)
    40002b64:	fed772e3          	bleu	a3,a4,40002b48 <f_truncate+0x20>
    40002b68:	0207e793          	ori	a5,a5,32
    40002b6c:	c818                	sw	a4,16(s0)
    40002b6e:	00f40523          	sb	a5,10(s0)
    40002b72:	6008                	ld	a0,0(s0)
    40002b74:	ef01                	bnez	a4,40002b8c <f_truncate+0x64>
    40002b76:	484c                	lw	a1,20(s0)
    40002b78:	a58ff0ef          	jal	ra,40001dd0 <remove_chain>
    40002b7c:	2501                	sext.w	a0,a0
    40002b7e:	00042a23          	sw	zero,20(s0)
    40002b82:	c539                	beqz	a0,40002bd0 <f_truncate+0xa8>
    40002b84:	00a405a3          	sb	a0,11(s0)
    40002b88:	84aa                	mv	s1,a0
    40002b8a:	bf7d                	j	40002b48 <f_truncate+0x20>
    40002b8c:	4c0c                	lw	a1,24(s0)
    40002b8e:	94dfe0ef          	jal	ra,400014da <get_fat>
    40002b92:	0005091b          	sext.w	s2,a0
    40002b96:	57fd                	li	a5,-1
    40002b98:	02f91463          	bne	s2,a5,40002bc0 <f_truncate+0x98>
    40002b9c:	4505                	li	a0,1
    40002b9e:	b7dd                	j	40002b84 <f_truncate+0x5c>
    40002ba0:	4c0c                	lw	a1,24(s0)
    40002ba2:	10000637          	lui	a2,0x10000
    40002ba6:	167d                	addi	a2,a2,-1
    40002ba8:	b37fe0ef          	jal	ra,400016de <put_fat>
    40002bac:	2501                	sext.w	a0,a0
    40002bae:	f979                	bnez	a0,40002b84 <f_truncate+0x5c>
    40002bb0:	6008                	ld	a0,0(s0)
    40002bb2:	85ca                	mv	a1,s2
    40002bb4:	a1cff0ef          	jal	ra,40001dd0 <remove_chain>
    40002bb8:	2501                	sext.w	a0,a0
    40002bba:	b7e1                	j	40002b82 <f_truncate+0x5a>
    40002bbc:	449d                	li	s1,7
    40002bbe:	b769                	j	40002b48 <f_truncate+0x20>
    40002bc0:	4785                	li	a5,1
    40002bc2:	4509                	li	a0,2
    40002bc4:	fcf900e3          	beq	s2,a5,40002b84 <f_truncate+0x5c>
    40002bc8:	6008                	ld	a0,0(s0)
    40002bca:	4d1c                	lw	a5,24(a0)
    40002bcc:	fcf96ae3          	bltu	s2,a5,40002ba0 <f_truncate+0x78>
    40002bd0:	00a44783          	lbu	a5,10(s0)
    40002bd4:	0407f793          	andi	a5,a5,64
    40002bd8:	dba5                	beqz	a5,40002b48 <f_truncate+0x20>
    40002bda:	601c                	ld	a5,0(s0)
    40002bdc:	4c50                	lw	a2,28(s0)
    40002bde:	4685                	li	a3,1
    40002be0:	0017c503          	lbu	a0,1(a5)
    40002be4:	03040593          	addi	a1,s0,48
    40002be8:	641020ef          	jal	ra,40005a28 <disk_write>
    40002bec:	2501                	sext.w	a0,a0
    40002bee:	f55d                	bnez	a0,40002b9c <f_truncate+0x74>
    40002bf0:	00a44783          	lbu	a5,10(s0)
    40002bf4:	fbf7f793          	andi	a5,a5,-65
    40002bf8:	00f40523          	sb	a5,10(s0)
    40002bfc:	b7b1                	j	40002b48 <f_truncate+0x20>

0000000040002bfe <f_unlink>:
    40002bfe:	7175                	addi	sp,sp,-144
    40002c00:	e42a                	sd	a0,8(sp)
    40002c02:	4605                	li	a2,1
    40002c04:	002c                	addi	a1,sp,8
    40002c06:	1008                	addi	a0,sp,32
    40002c08:	e506                	sd	ra,136(sp)
    40002c0a:	e122                	sd	s0,128(sp)
    40002c0c:	fca6                	sd	s1,120(sp)
    40002c0e:	f8ca                	sd	s2,112(sp)
    40002c10:	ca0fe0ef          	jal	ra,400010b0 <find_volume>
    40002c14:	2501                	sext.w	a0,a0
    40002c16:	e905                	bnez	a0,40002c46 <f_unlink+0x48>
    40002c18:	65a2                	ld	a1,8(sp)
    40002c1a:	081c                	addi	a5,sp,16
    40002c1c:	1008                	addi	a0,sp,32
    40002c1e:	e0be                	sd	a5,64(sp)
    40002c20:	e3bfe0ef          	jal	ra,40001a5a <follow_path>
    40002c24:	2501                	sext.w	a0,a0
    40002c26:	e105                	bnez	a0,40002c46 <f_unlink+0x48>
    40002c28:	6786                	ld	a5,64(sp)
    40002c2a:	4519                	li	a0,6
    40002c2c:	00b7c783          	lbu	a5,11(a5)
    40002c30:	0207f793          	andi	a5,a5,32
    40002c34:	eb89                	bnez	a5,40002c46 <f_unlink+0x48>
    40002c36:	75e2                	ld	a1,56(sp)
    40002c38:	c599                	beqz	a1,40002c46 <f_unlink+0x48>
    40002c3a:	00b5c483          	lbu	s1,11(a1)
    40002c3e:	0014f793          	andi	a5,s1,1
    40002c42:	cb81                	beqz	a5,40002c52 <f_unlink+0x54>
    40002c44:	451d                	li	a0,7
    40002c46:	60aa                	ld	ra,136(sp)
    40002c48:	640a                	ld	s0,128(sp)
    40002c4a:	74e6                	ld	s1,120(sp)
    40002c4c:	7946                	ld	s2,112(sp)
    40002c4e:	6149                	addi	sp,sp,144
    40002c50:	8082                	ret
    40002c52:	7902                	ld	s2,32(sp)
    40002c54:	00094503          	lbu	a0,0(s2)
    40002c58:	ad8fe0ef          	jal	ra,40000f30 <ld_clust.isra.0>
    40002c5c:	0005041b          	sext.w	s0,a0
    40002c60:	cc0d                	beqz	s0,40002c9a <f_unlink+0x9c>
    40002c62:	88c1                	andi	s1,s1,16
    40002c64:	c89d                	beqz	s1,40002c9a <f_unlink+0x9c>
    40002c66:	01492783          	lw	a5,20(s2)
    40002c6a:	fc878de3          	beq	a5,s0,40002c44 <f_unlink+0x46>
    40002c6e:	02800613          	li	a2,40
    40002c72:	100c                	addi	a1,sp,32
    40002c74:	00a8                	addi	a0,sp,72
    40002c76:	96cfe0ef          	jal	ra,40000de2 <mem_cpy>
    40002c7a:	4589                	li	a1,2
    40002c7c:	00a8                	addi	a0,sp,72
    40002c7e:	caa2                	sw	s0,84(sp)
    40002c80:	951fe0ef          	jal	ra,400015d0 <dir_sdi>
    40002c84:	2501                	sext.w	a0,a0
    40002c86:	f161                	bnez	a0,40002c46 <f_unlink+0x48>
    40002c88:	4581                	li	a1,0
    40002c8a:	00a8                	addi	a0,sp,72
    40002c8c:	836ff0ef          	jal	ra,40001cc2 <dir_read>
    40002c90:	2501                	sext.w	a0,a0
    40002c92:	d94d                	beqz	a0,40002c44 <f_unlink+0x46>
    40002c94:	4791                	li	a5,4
    40002c96:	faf518e3          	bne	a0,a5,40002c46 <f_unlink+0x48>
    40002c9a:	1008                	addi	a0,sp,32
    40002c9c:	9f5fe0ef          	jal	ra,40001690 <dir_remove>
    40002ca0:	2501                	sext.w	a0,a0
    40002ca2:	f155                	bnez	a0,40002c46 <f_unlink+0x48>
    40002ca4:	e411                	bnez	s0,40002cb0 <f_unlink+0xb2>
    40002ca6:	7502                	ld	a0,32(sp)
    40002ca8:	f20fe0ef          	jal	ra,400013c8 <sync_fs>
    40002cac:	2501                	sext.w	a0,a0
    40002cae:	bf61                	j	40002c46 <f_unlink+0x48>
    40002cb0:	7502                	ld	a0,32(sp)
    40002cb2:	85a2                	mv	a1,s0
    40002cb4:	91cff0ef          	jal	ra,40001dd0 <remove_chain>
    40002cb8:	2501                	sext.w	a0,a0
    40002cba:	d575                	beqz	a0,40002ca6 <f_unlink+0xa8>
    40002cbc:	b769                	j	40002c46 <f_unlink+0x48>

0000000040002cbe <f_mkdir>:
    40002cbe:	7171                	addi	sp,sp,-176
    40002cc0:	e42a                	sd	a0,8(sp)
    40002cc2:	4605                	li	a2,1
    40002cc4:	002c                	addi	a1,sp,8
    40002cc6:	1028                	addi	a0,sp,40
    40002cc8:	f122                	sd	s0,160(sp)
    40002cca:	f506                	sd	ra,168(sp)
    40002ccc:	ed26                	sd	s1,152(sp)
    40002cce:	e94a                	sd	s2,144(sp)
    40002cd0:	e54e                	sd	s3,136(sp)
    40002cd2:	e152                	sd	s4,128(sp)
    40002cd4:	fcd6                	sd	s5,120(sp)
    40002cd6:	f8da                	sd	s6,112(sp)
    40002cd8:	f4de                	sd	s7,104(sp)
    40002cda:	f0e2                	sd	s8,96(sp)
    40002cdc:	ece6                	sd	s9,88(sp)
    40002cde:	e8ea                	sd	s10,80(sp)
    40002ce0:	bd0fe0ef          	jal	ra,400010b0 <find_volume>
    40002ce4:	0005041b          	sext.w	s0,a0
    40002ce8:	1c041463          	bnez	s0,40002eb0 <f_mkdir+0x1f2>
    40002cec:	65a2                	ld	a1,8(sp)
    40002cee:	083c                	addi	a5,sp,24
    40002cf0:	1028                	addi	a0,sp,40
    40002cf2:	e4be                	sd	a5,72(sp)
    40002cf4:	d67fe0ef          	jal	ra,40001a5a <follow_path>
    40002cf8:	0005041b          	sext.w	s0,a0
    40002cfc:	1c040963          	beqz	s0,40002ece <f_mkdir+0x210>
    40002d00:	4791                	li	a5,4
    40002d02:	1af41763          	bne	s0,a5,40002eb0 <f_mkdir+0x1f2>
    40002d06:	67a6                	ld	a5,72(sp)
    40002d08:	4419                	li	s0,6
    40002d0a:	00b7c783          	lbu	a5,11(a5)
    40002d0e:	0207f793          	andi	a5,a5,32
    40002d12:	18079f63          	bnez	a5,40002eb0 <f_mkdir+0x1f2>
    40002d16:	7522                	ld	a0,40(sp)
    40002d18:	4581                	li	a1,0
    40002d1a:	b45fe0ef          	jal	ra,4000185e <create_chain>
    40002d1e:	0005091b          	sext.w	s2,a0
    40002d22:	18090263          	beqz	s2,40002ea6 <f_mkdir+0x1e8>
    40002d26:	4785                	li	a5,1
    40002d28:	4409                	li	s0,2
    40002d2a:	16f90f63          	beq	s2,a5,40002ea8 <f_mkdir+0x1ea>
    40002d2e:	57fd                	li	a5,-1
    40002d30:	4405                	li	s0,1
    40002d32:	16f90b63          	beq	s2,a5,40002ea8 <f_mkdir+0x1ea>
    40002d36:	7522                	ld	a0,40(sp)
    40002d38:	a98fe0ef          	jal	ra,40000fd0 <sync_window>
    40002d3c:	0005041b          	sext.w	s0,a0
    40002d40:	16041463          	bnez	s0,40002ea8 <f_mkdir+0x1ea>
    40002d44:	7422                	ld	s0,40(sp)
    40002d46:	85ca                	mv	a1,s2
    40002d48:	0109549b          	srliw	s1,s2,0x10
    40002d4c:	8522                	mv	a0,s0
    40002d4e:	f6efe0ef          	jal	ra,400014bc <clust2sect>
    40002d52:	03440a13          	addi	s4,s0,52
    40002d56:	20000613          	li	a2,512
    40002d5a:	4581                	li	a1,0
    40002d5c:	00050c1b          	sext.w	s8,a0
    40002d60:	8552                	mv	a0,s4
    40002d62:	898fe0ef          	jal	ra,40000dfa <mem_set>
    40002d66:	462d                	li	a2,11
    40002d68:	02000593          	li	a1,32
    40002d6c:	8552                	mv	a0,s4
    40002d6e:	88cfe0ef          	jal	ra,40000dfa <mem_set>
    40002d72:	2481                	sext.w	s1,s1
    40002d74:	47c1                	li	a5,16
    40002d76:	0ff4fb13          	andi	s6,s1,255
    40002d7a:	0109199b          	slliw	s3,s2,0x10
    40002d7e:	0104949b          	slliw	s1,s1,0x10
    40002d82:	02f40fa3          	sb	a5,63(s0)
    40002d86:	0109d99b          	srliw	s3,s3,0x10
    40002d8a:	02100793          	li	a5,33
    40002d8e:	0104d49b          	srliw	s1,s1,0x10
    40002d92:	02e00b93          	li	s7,46
    40002d96:	04f40623          	sb	a5,76(s0)
    40002d9a:	0ff97a93          	andi	s5,s2,255
    40002d9e:	04600793          	li	a5,70
    40002da2:	0089d99b          	srliw	s3,s3,0x8
    40002da6:	0084d49b          	srliw	s1,s1,0x8
    40002daa:	04f406a3          	sb	a5,77(s0)
    40002dae:	02000613          	li	a2,32
    40002db2:	03740a23          	sb	s7,52(s0)
    40002db6:	04040523          	sb	zero,74(s0)
    40002dba:	040405a3          	sb	zero,75(s0)
    40002dbe:	05540723          	sb	s5,78(s0)
    40002dc2:	053407a3          	sb	s3,79(s0)
    40002dc6:	05640423          	sb	s6,72(s0)
    40002dca:	049404a3          	sb	s1,73(s0)
    40002dce:	85d2                	mv	a1,s4
    40002dd0:	05440513          	addi	a0,s0,84
    40002dd4:	80efe0ef          	jal	ra,40000de2 <mem_cpy>
    40002dd8:	7722                	ld	a4,40(sp)
    40002dda:	05740aa3          	sb	s7,85(s0)
    40002dde:	468d                	li	a3,3
    40002de0:	00074603          	lbu	a2,0(a4)
    40002de4:	57d2                	lw	a5,52(sp)
    40002de6:	00d61663          	bne	a2,a3,40002df2 <f_mkdir+0x134>
    40002dea:	5714                	lw	a3,40(a4)
    40002dec:	00f69363          	bne	a3,a5,40002df2 <f_mkdir+0x134>
    40002df0:	4781                	li	a5,0
    40002df2:	06f40723          	sb	a5,110(s0)
    40002df6:	0107969b          	slliw	a3,a5,0x10
    40002dfa:	0107d79b          	srliw	a5,a5,0x10
    40002dfe:	2781                	sext.w	a5,a5
    40002e00:	06f40423          	sb	a5,104(s0)
    40002e04:	0107979b          	slliw	a5,a5,0x10
    40002e08:	0106d69b          	srliw	a3,a3,0x10
    40002e0c:	0107d79b          	srliw	a5,a5,0x10
    40002e10:	0086d69b          	srliw	a3,a3,0x8
    40002e14:	0087d79b          	srliw	a5,a5,0x8
    40002e18:	06d407a3          	sb	a3,111(s0)
    40002e1c:	06f404a3          	sb	a5,105(s0)
    40002e20:	00274b83          	lbu	s7,2(a4)
    40002e24:	4c85                	li	s9,1
    40002e26:	040b9963          	bnez	s7,40002e78 <f_mkdir+0x1ba>
    40002e2a:	1028                	addi	a0,sp,40
    40002e2c:	f59fe0ef          	jal	ra,40001d84 <dir_register>
    40002e30:	0005041b          	sext.w	s0,a0
    40002e34:	e835                	bnez	s0,40002ea8 <f_mkdir+0x1ea>
    40002e36:	6786                	ld	a5,64(sp)
    40002e38:	4741                	li	a4,16
    40002e3a:	7522                	ld	a0,40(sp)
    40002e3c:	00e785a3          	sb	a4,11(a5)
    40002e40:	02100713          	li	a4,33
    40002e44:	00e78c23          	sb	a4,24(a5)
    40002e48:	04600713          	li	a4,70
    40002e4c:	00078b23          	sb	zero,22(a5)
    40002e50:	00078ba3          	sb	zero,23(a5)
    40002e54:	00e78ca3          	sb	a4,25(a5)
    40002e58:	01578d23          	sb	s5,26(a5)
    40002e5c:	01378da3          	sb	s3,27(a5)
    40002e60:	01678a23          	sb	s6,20(a5)
    40002e64:	00978aa3          	sb	s1,21(a5)
    40002e68:	4785                	li	a5,1
    40002e6a:	00f50223          	sb	a5,4(a0)
    40002e6e:	d5afe0ef          	jal	ra,400013c8 <sync_fs>
    40002e72:	0005041b          	sext.w	s0,a0
    40002e76:	a82d                	j	40002eb0 <f_mkdir+0x1f2>
    40002e78:	7522                	ld	a0,40(sp)
    40002e7a:	001c0d1b          	addiw	s10,s8,1
    40002e7e:	03852823          	sw	s8,48(a0)
    40002e82:	01950223          	sb	s9,4(a0)
    40002e86:	8dcfe0ef          	jal	ra,40000f62 <sync_window.part.2>
    40002e8a:	0005041b          	sext.w	s0,a0
    40002e8e:	ec09                	bnez	s0,40002ea8 <f_mkdir+0x1ea>
    40002e90:	20000613          	li	a2,512
    40002e94:	4581                	li	a1,0
    40002e96:	8552                	mv	a0,s4
    40002e98:	3bfd                	addiw	s7,s7,-1
    40002e9a:	f61fd0ef          	jal	ra,40000dfa <mem_set>
    40002e9e:	0ffbfb93          	andi	s7,s7,255
    40002ea2:	8c6a                	mv	s8,s10
    40002ea4:	b749                	j	40002e26 <f_mkdir+0x168>
    40002ea6:	441d                	li	s0,7
    40002ea8:	7522                	ld	a0,40(sp)
    40002eaa:	85ca                	mv	a1,s2
    40002eac:	f25fe0ef          	jal	ra,40001dd0 <remove_chain>
    40002eb0:	8522                	mv	a0,s0
    40002eb2:	70aa                	ld	ra,168(sp)
    40002eb4:	740a                	ld	s0,160(sp)
    40002eb6:	64ea                	ld	s1,152(sp)
    40002eb8:	694a                	ld	s2,144(sp)
    40002eba:	69aa                	ld	s3,136(sp)
    40002ebc:	6a0a                	ld	s4,128(sp)
    40002ebe:	7ae6                	ld	s5,120(sp)
    40002ec0:	7b46                	ld	s6,112(sp)
    40002ec2:	7ba6                	ld	s7,104(sp)
    40002ec4:	7c06                	ld	s8,96(sp)
    40002ec6:	6ce6                	ld	s9,88(sp)
    40002ec8:	6d46                	ld	s10,80(sp)
    40002eca:	614d                	addi	sp,sp,176
    40002ecc:	8082                	ret
    40002ece:	4421                	li	s0,8
    40002ed0:	b7c5                	j	40002eb0 <f_mkdir+0x1f2>

0000000040002ed2 <f_chmod>:
    40002ed2:	7159                	addi	sp,sp,-112
    40002ed4:	f0a2                	sd	s0,96(sp)
    40002ed6:	eca6                	sd	s1,88(sp)
    40002ed8:	e42a                	sd	a0,8(sp)
    40002eda:	84ae                	mv	s1,a1
    40002edc:	8432                	mv	s0,a2
    40002ede:	002c                	addi	a1,sp,8
    40002ee0:	4605                	li	a2,1
    40002ee2:	1028                	addi	a0,sp,40
    40002ee4:	f486                	sd	ra,104(sp)
    40002ee6:	9cafe0ef          	jal	ra,400010b0 <find_volume>
    40002eea:	2501                	sext.w	a0,a0
    40002eec:	e131                	bnez	a0,40002f30 <f_chmod+0x5e>
    40002eee:	65a2                	ld	a1,8(sp)
    40002ef0:	083c                	addi	a5,sp,24
    40002ef2:	1028                	addi	a0,sp,40
    40002ef4:	e4be                	sd	a5,72(sp)
    40002ef6:	b65fe0ef          	jal	ra,40001a5a <follow_path>
    40002efa:	2501                	sext.w	a0,a0
    40002efc:	e915                	bnez	a0,40002f30 <f_chmod+0x5e>
    40002efe:	67a6                	ld	a5,72(sp)
    40002f00:	4519                	li	a0,6
    40002f02:	00b7c783          	lbu	a5,11(a5)
    40002f06:	0207f793          	andi	a5,a5,32
    40002f0a:	e39d                	bnez	a5,40002f30 <f_chmod+0x5e>
    40002f0c:	6706                	ld	a4,64(sp)
    40002f0e:	c30d                	beqz	a4,40002f30 <f_chmod+0x5e>
    40002f10:	00b74783          	lbu	a5,11(a4)
    40002f14:	7522                	ld	a0,40(sp)
    40002f16:	8cbd                	xor	s1,s1,a5
    40002f18:	8c65                	and	s0,s0,s1
    40002f1a:	02747413          	andi	s0,s0,39
    40002f1e:	8c3d                	xor	s0,s0,a5
    40002f20:	008705a3          	sb	s0,11(a4)
    40002f24:	4785                	li	a5,1
    40002f26:	00f50223          	sb	a5,4(a0)
    40002f2a:	c9efe0ef          	jal	ra,400013c8 <sync_fs>
    40002f2e:	2501                	sext.w	a0,a0
    40002f30:	70a6                	ld	ra,104(sp)
    40002f32:	7406                	ld	s0,96(sp)
    40002f34:	64e6                	ld	s1,88(sp)
    40002f36:	6165                	addi	sp,sp,112
    40002f38:	8082                	ret

0000000040002f3a <f_rename>:
    40002f3a:	7171                	addi	sp,sp,-176
    40002f3c:	e42a                	sd	a0,8(sp)
    40002f3e:	e02e                	sd	a1,0(sp)
    40002f40:	4605                	li	a2,1
    40002f42:	002c                	addi	a1,sp,8
    40002f44:	0088                	addi	a0,sp,64
    40002f46:	f506                	sd	ra,168(sp)
    40002f48:	f122                	sd	s0,160(sp)
    40002f4a:	ed26                	sd	s1,152(sp)
    40002f4c:	964fe0ef          	jal	ra,400010b0 <find_volume>
    40002f50:	0005079b          	sext.w	a5,a0
    40002f54:	12079663          	bnez	a5,40003080 <f_rename+0x146>
    40002f58:	6786                	ld	a5,64(sp)
    40002f5a:	65a2                	ld	a1,8(sp)
    40002f5c:	0088                	addi	a0,sp,64
    40002f5e:	f4be                	sd	a5,104(sp)
    40002f60:	083c                	addi	a5,sp,24
    40002f62:	f0be                	sd	a5,96(sp)
    40002f64:	af7fe0ef          	jal	ra,40001a5a <follow_path>
    40002f68:	0005079b          	sext.w	a5,a0
    40002f6c:	10079a63          	bnez	a5,40003080 <f_rename+0x146>
    40002f70:	7786                	ld	a5,96(sp)
    40002f72:	00b7c703          	lbu	a4,11(a5)
    40002f76:	4799                	li	a5,6
    40002f78:	02077713          	andi	a4,a4,32
    40002f7c:	10071263          	bnez	a4,40003080 <f_rename+0x146>
    40002f80:	65e6                	ld	a1,88(sp)
    40002f82:	4791                	li	a5,4
    40002f84:	0e058e63          	beqz	a1,40003080 <f_rename+0x146>
    40002f88:	4655                	li	a2,21
    40002f8a:	05ad                	addi	a1,a1,11
    40002f8c:	1028                	addi	a0,sp,40
    40002f8e:	e55fd0ef          	jal	ra,40000de2 <mem_cpy>
    40002f92:	02800613          	li	a2,40
    40002f96:	008c                	addi	a1,sp,64
    40002f98:	10a8                	addi	a0,sp,104
    40002f9a:	e49fd0ef          	jal	ra,40000de2 <mem_cpy>
    40002f9e:	850a                	mv	a0,sp
    40002fa0:	f05fd0ef          	jal	ra,40000ea4 <get_ldnumber>
    40002fa4:	47ad                	li	a5,11
    40002fa6:	0c054d63          	bltz	a0,40003080 <f_rename+0x146>
    40002faa:	6582                	ld	a1,0(sp)
    40002fac:	10a8                	addi	a0,sp,104
    40002fae:	aadfe0ef          	jal	ra,40001a5a <follow_path>
    40002fb2:	0005079b          	sext.w	a5,a0
    40002fb6:	cbf9                	beqz	a5,4000308c <f_rename+0x152>
    40002fb8:	4711                	li	a4,4
    40002fba:	0ce79363          	bne	a5,a4,40003080 <f_rename+0x146>
    40002fbe:	10a8                	addi	a0,sp,104
    40002fc0:	dc5fe0ef          	jal	ra,40001d84 <dir_register>
    40002fc4:	0005079b          	sext.w	a5,a0
    40002fc8:	efc5                	bnez	a5,40003080 <f_rename+0x146>
    40002fca:	648a                	ld	s1,128(sp)
    40002fcc:	464d                	li	a2,19
    40002fce:	02a10593          	addi	a1,sp,42
    40002fd2:	00d48513          	addi	a0,s1,13
    40002fd6:	e0dfd0ef          	jal	ra,40000de2 <mem_cpy>
    40002fda:	02814783          	lbu	a5,40(sp)
    40002fde:	6406                	ld	s0,64(sp)
    40002fe0:	0207e793          	ori	a5,a5,32
    40002fe4:	00f485a3          	sb	a5,11(s1)
    40002fe8:	4785                	li	a5,1
    40002fea:	00f40223          	sb	a5,4(s0)
    40002fee:	00b4c783          	lbu	a5,11(s1)
    40002ff2:	8bc1                	andi	a5,a5,16
    40002ff4:	cbbd                	beqz	a5,4000306a <f_rename+0x130>
    40002ff6:	4736                	lw	a4,76(sp)
    40002ff8:	57d6                	lw	a5,116(sp)
    40002ffa:	06f70863          	beq	a4,a5,4000306a <f_rename+0x130>
    40002ffe:	00044503          	lbu	a0,0(s0)
    40003002:	85a6                	mv	a1,s1
    40003004:	f2dfd0ef          	jal	ra,40000f30 <ld_clust.isra.0>
    40003008:	0005059b          	sext.w	a1,a0
    4000300c:	8522                	mv	a0,s0
    4000300e:	caefe0ef          	jal	ra,400014bc <clust2sect>
    40003012:	0005059b          	sext.w	a1,a0
    40003016:	4789                	li	a5,2
    40003018:	c5a5                	beqz	a1,40003080 <f_rename+0x146>
    4000301a:	8522                	mv	a0,s0
    4000301c:	fc3fd0ef          	jal	ra,40000fde <move_window>
    40003020:	0005079b          	sext.w	a5,a0
    40003024:	efb1                	bnez	a5,40003080 <f_rename+0x146>
    40003026:	6706                	ld	a4,64(sp)
    40003028:	02e00793          	li	a5,46
    4000302c:	05574683          	lbu	a3,85(a4)
    40003030:	02f69d63          	bne	a3,a5,4000306a <f_rename+0x130>
    40003034:	57d6                	lw	a5,116(sp)
    40003036:	0107969b          	slliw	a3,a5,0x10
    4000303a:	06f70723          	sb	a5,110(a4)
    4000303e:	0107d79b          	srliw	a5,a5,0x10
    40003042:	2781                	sext.w	a5,a5
    40003044:	06f70423          	sb	a5,104(a4)
    40003048:	0107979b          	slliw	a5,a5,0x10
    4000304c:	0107d79b          	srliw	a5,a5,0x10
    40003050:	0087d79b          	srliw	a5,a5,0x8
    40003054:	0106d69b          	srliw	a3,a3,0x10
    40003058:	0086d69b          	srliw	a3,a3,0x8
    4000305c:	06f704a3          	sb	a5,105(a4)
    40003060:	4785                	li	a5,1
    40003062:	06d707a3          	sb	a3,111(a4)
    40003066:	00f70223          	sb	a5,4(a4)
    4000306a:	0088                	addi	a0,sp,64
    4000306c:	e24fe0ef          	jal	ra,40001690 <dir_remove>
    40003070:	0005079b          	sext.w	a5,a0
    40003074:	e791                	bnez	a5,40003080 <f_rename+0x146>
    40003076:	6506                	ld	a0,64(sp)
    40003078:	b50fe0ef          	jal	ra,400013c8 <sync_fs>
    4000307c:	0005079b          	sext.w	a5,a0
    40003080:	70aa                	ld	ra,168(sp)
    40003082:	740a                	ld	s0,160(sp)
    40003084:	64ea                	ld	s1,152(sp)
    40003086:	853e                	mv	a0,a5
    40003088:	614d                	addi	sp,sp,176
    4000308a:	8082                	ret
    4000308c:	47a1                	li	a5,8
    4000308e:	bfcd                	j	40003080 <f_rename+0x146>

0000000040003090 <f_utime>:
    40003090:	711d                	addi	sp,sp,-96
    40003092:	e8a2                	sd	s0,80(sp)
    40003094:	e42a                	sd	a0,8(sp)
    40003096:	842e                	mv	s0,a1
    40003098:	4605                	li	a2,1
    4000309a:	002c                	addi	a1,sp,8
    4000309c:	1028                	addi	a0,sp,40
    4000309e:	ec86                	sd	ra,88(sp)
    400030a0:	810fe0ef          	jal	ra,400010b0 <find_volume>
    400030a4:	2501                	sext.w	a0,a0
    400030a6:	e929                	bnez	a0,400030f8 <f_utime+0x68>
    400030a8:	65a2                	ld	a1,8(sp)
    400030aa:	083c                	addi	a5,sp,24
    400030ac:	1028                	addi	a0,sp,40
    400030ae:	e4be                	sd	a5,72(sp)
    400030b0:	9abfe0ef          	jal	ra,40001a5a <follow_path>
    400030b4:	2501                	sext.w	a0,a0
    400030b6:	e129                	bnez	a0,400030f8 <f_utime+0x68>
    400030b8:	67a6                	ld	a5,72(sp)
    400030ba:	4519                	li	a0,6
    400030bc:	00b7c783          	lbu	a5,11(a5)
    400030c0:	0207f793          	andi	a5,a5,32
    400030c4:	eb95                	bnez	a5,400030f8 <f_utime+0x68>
    400030c6:	6786                	ld	a5,64(sp)
    400030c8:	cb85                	beqz	a5,400030f8 <f_utime+0x68>
    400030ca:	00645703          	lhu	a4,6(s0)
    400030ce:	7522                	ld	a0,40(sp)
    400030d0:	00e78b23          	sb	a4,22(a5)
    400030d4:	0087571b          	srliw	a4,a4,0x8
    400030d8:	00e78ba3          	sb	a4,23(a5)
    400030dc:	00445703          	lhu	a4,4(s0)
    400030e0:	00e78c23          	sb	a4,24(a5)
    400030e4:	0087571b          	srliw	a4,a4,0x8
    400030e8:	00e78ca3          	sb	a4,25(a5)
    400030ec:	4785                	li	a5,1
    400030ee:	00f50223          	sb	a5,4(a0)
    400030f2:	ad6fe0ef          	jal	ra,400013c8 <sync_fs>
    400030f6:	2501                	sext.w	a0,a0
    400030f8:	60e6                	ld	ra,88(sp)
    400030fa:	6446                	ld	s0,80(sp)
    400030fc:	6125                	addi	sp,sp,96
    400030fe:	8082                	ret

0000000040003100 <f_getlabel>:
    40003100:	711d                	addi	sp,sp,-96
    40003102:	e4a6                	sd	s1,72(sp)
    40003104:	e0ca                	sd	s2,64(sp)
    40003106:	e42a                	sd	a0,8(sp)
    40003108:	84ae                	mv	s1,a1
    4000310a:	8932                	mv	s2,a2
    4000310c:	002c                	addi	a1,sp,8
    4000310e:	4601                	li	a2,0
    40003110:	0828                	addi	a0,sp,24
    40003112:	e8a2                	sd	s0,80(sp)
    40003114:	ec86                	sd	ra,88(sp)
    40003116:	f9bfd0ef          	jal	ra,400010b0 <find_volume>
    4000311a:	0005041b          	sext.w	s0,a0
    4000311e:	e051                	bnez	s0,400031a2 <f_getlabel+0xa2>
    40003120:	c4b9                	beqz	s1,4000316e <f_getlabel+0x6e>
    40003122:	4581                	li	a1,0
    40003124:	0828                	addi	a0,sp,24
    40003126:	d202                	sw	zero,36(sp)
    40003128:	ca8fe0ef          	jal	ra,400015d0 <dir_sdi>
    4000312c:	2501                	sext.w	a0,a0
    4000312e:	e559                	bnez	a0,400031bc <f_getlabel+0xbc>
    40003130:	4585                	li	a1,1
    40003132:	0828                	addi	a0,sp,24
    40003134:	b8ffe0ef          	jal	ra,40001cc2 <dir_read>
    40003138:	2501                	sext.w	a0,a0
    4000313a:	e93d                	bnez	a0,400031b0 <f_getlabel+0xb0>
    4000313c:	75c2                	ld	a1,48(sp)
    4000313e:	462d                	li	a2,11
    40003140:	8526                	mv	a0,s1
    40003142:	ca1fd0ef          	jal	ra,40000de2 <mem_cpy>
    40003146:	00b48713          	addi	a4,s1,11
    4000314a:	46ad                	li	a3,11
    4000314c:	02000613          	li	a2,32
    40003150:	00070023          	sb	zero,0(a4)
    40003154:	ce89                	beqz	a3,4000316e <f_getlabel+0x6e>
    40003156:	fff6879b          	addiw	a5,a3,-1
    4000315a:	0007869b          	sext.w	a3,a5
    4000315e:	1782                	slli	a5,a5,0x20
    40003160:	9381                	srli	a5,a5,0x20
    40003162:	97a6                	add	a5,a5,s1
    40003164:	0007c783          	lbu	a5,0(a5)
    40003168:	177d                	addi	a4,a4,-1
    4000316a:	fec783e3          	beq	a5,a2,40003150 <f_getlabel+0x50>
    4000316e:	02090a63          	beqz	s2,400031a2 <f_getlabel+0xa2>
    40003172:	6562                	ld	a0,24(sp)
    40003174:	510c                	lw	a1,32(a0)
    40003176:	e69fd0ef          	jal	ra,40000fde <move_window>
    4000317a:	0005041b          	sext.w	s0,a0
    4000317e:	e015                	bnez	s0,400031a2 <f_getlabel+0xa2>
    40003180:	6562                	ld	a0,24(sp)
    40003182:	470d                	li	a4,3
    40003184:	04300793          	li	a5,67
    40003188:	00054683          	lbu	a3,0(a0)
    4000318c:	00e68463          	beq	a3,a4,40003194 <f_getlabel+0x94>
    40003190:	02700793          	li	a5,39
    40003194:	03478793          	addi	a5,a5,52
    40003198:	953e                	add	a0,a0,a5
    4000319a:	c29fd0ef          	jal	ra,40000dc2 <LD_DWORD>
    4000319e:	00a92023          	sw	a0,0(s2)
    400031a2:	8522                	mv	a0,s0
    400031a4:	60e6                	ld	ra,88(sp)
    400031a6:	6446                	ld	s0,80(sp)
    400031a8:	64a6                	ld	s1,72(sp)
    400031aa:	6906                	ld	s2,64(sp)
    400031ac:	6125                	addi	sp,sp,96
    400031ae:	8082                	ret
    400031b0:	4791                	li	a5,4
    400031b2:	00f51563          	bne	a0,a5,400031bc <f_getlabel+0xbc>
    400031b6:	00048023          	sb	zero,0(s1)
    400031ba:	bf55                	j	4000316e <f_getlabel+0x6e>
    400031bc:	842a                	mv	s0,a0
    400031be:	b7d5                	j	400031a2 <f_getlabel+0xa2>

00000000400031c0 <f_setlabel>:
    400031c0:	711d                	addi	sp,sp,-96
    400031c2:	e42a                	sd	a0,8(sp)
    400031c4:	4605                	li	a2,1
    400031c6:	002c                	addi	a1,sp,8
    400031c8:	1028                	addi	a0,sp,40
    400031ca:	e8a2                	sd	s0,80(sp)
    400031cc:	ec86                	sd	ra,88(sp)
    400031ce:	ee3fd0ef          	jal	ra,400010b0 <find_volume>
    400031d2:	0005041b          	sext.w	s0,a0
    400031d6:	ec55                	bnez	s0,40003292 <f_setlabel+0xd2>
    400031d8:	66a2                	ld	a3,8(sp)
    400031da:	00010c23          	sb	zero,24(sp)
    400031de:	4601                	li	a2,0
    400031e0:	02061793          	slli	a5,a2,0x20
    400031e4:	9381                	srli	a5,a5,0x20
    400031e6:	97b6                	add	a5,a5,a3
    400031e8:	0007c783          	lbu	a5,0(a5)
    400031ec:	eba1                	bnez	a5,4000323c <f_setlabel+0x7c>
    400031ee:	02000593          	li	a1,32
    400031f2:	ea29                	bnez	a2,40003244 <f_setlabel+0x84>
    400031f4:	4581                	li	a1,0
    400031f6:	1028                	addi	a0,sp,40
    400031f8:	da02                	sw	zero,52(sp)
    400031fa:	bd6fe0ef          	jal	ra,400015d0 <dir_sdi>
    400031fe:	0005041b          	sext.w	s0,a0
    40003202:	e841                	bnez	s0,40003292 <f_setlabel+0xd2>
    40003204:	4585                	li	a1,1
    40003206:	1028                	addi	a0,sp,40
    40003208:	abbfe0ef          	jal	ra,40001cc2 <dir_read>
    4000320c:	2501                	sext.w	a0,a0
    4000320e:	e179                	bnez	a0,400032d4 <f_setlabel+0x114>
    40003210:	01814783          	lbu	a5,24(sp)
    40003214:	6506                	ld	a0,64(sp)
    40003216:	c3dd                	beqz	a5,400032bc <f_setlabel+0xfc>
    40003218:	462d                	li	a2,11
    4000321a:	082c                	addi	a1,sp,24
    4000321c:	bc7fd0ef          	jal	ra,40000de2 <mem_cpy>
    40003220:	6786                	ld	a5,64(sp)
    40003222:	02100713          	li	a4,33
    40003226:	00e78c23          	sb	a4,24(a5)
    4000322a:	04600713          	li	a4,70
    4000322e:	00078b23          	sb	zero,22(a5)
    40003232:	00078ba3          	sb	zero,23(a5)
    40003236:	00e78ca3          	sb	a4,25(a5)
    4000323a:	a061                	j	400032c2 <f_setlabel+0x102>
    4000323c:	2605                	addiw	a2,a2,1
    4000323e:	b74d                	j	400031e0 <f_setlabel+0x20>
    40003240:	863e                	mv	a2,a5
    40003242:	bf45                	j	400031f2 <f_setlabel+0x32>
    40003244:	fff6079b          	addiw	a5,a2,-1
    40003248:	02079713          	slli	a4,a5,0x20
    4000324c:	9301                	srli	a4,a4,0x20
    4000324e:	9736                	add	a4,a4,a3
    40003250:	00074703          	lbu	a4,0(a4)
    40003254:	feb706e3          	beq	a4,a1,40003240 <f_setlabel+0x80>
    40003258:	082c                	addi	a1,sp,24
    4000325a:	4781                	li	a5,0
    4000325c:	8e2e                	mv	t3,a1
    4000325e:	4365                	li	t1,25
    40003260:	07f00e93          	li	t4,127
    40003264:	48b1                	li	a7,12
    40003266:	0006c703          	lbu	a4,0(a3)
    4000326a:	2785                	addiw	a5,a5,1
    4000326c:	f9f7051b          	addiw	a0,a4,-97
    40003270:	1542                	slli	a0,a0,0x30
    40003272:	9141                	srli	a0,a0,0x30
    40003274:	00a36c63          	bltu	t1,a0,4000328c <f_setlabel+0xcc>
    40003278:	3701                	addiw	a4,a4,-32
    4000327a:	1742                	slli	a4,a4,0x30
    4000327c:	9341                	srli	a4,a4,0x30
    4000327e:	00003517          	auipc	a0,0x3
    40003282:	67a50513          	addi	a0,a0,1658 # 400068f8 <P_array.1885+0x568>
    40003286:	00070f1b          	sext.w	t5,a4
    4000328a:	a821                	j	400032a2 <f_setlabel+0xe2>
    4000328c:	00eef863          	bleu	a4,t4,4000329c <f_setlabel+0xdc>
    40003290:	4419                	li	s0,6
    40003292:	8522                	mv	a0,s0
    40003294:	60e6                	ld	ra,88(sp)
    40003296:	6446                	ld	s0,80(sp)
    40003298:	6125                	addi	sp,sp,96
    4000329a:	8082                	ret
    4000329c:	f36d                	bnez	a4,4000327e <f_setlabel+0xbe>
    4000329e:	bfcd                	j	40003290 <f_setlabel+0xd0>
    400032a0:	0505                	addi	a0,a0,1
    400032a2:	00054803          	lbu	a6,0(a0)
    400032a6:	06080563          	beqz	a6,40003310 <f_setlabel+0x150>
    400032aa:	ffe81be3          	bne	a6,t5,400032a0 <f_setlabel+0xe0>
    400032ae:	b7cd                	j	40003290 <f_setlabel+0xd0>
    400032b0:	00fe06b3          	add	a3,t3,a5
    400032b4:	00c68023          	sb	a2,0(a3)
    400032b8:	0785                	addi	a5,a5,1
    400032ba:	a885                	j	4000332a <f_setlabel+0x16a>
    400032bc:	5795                	li	a5,-27
    400032be:	00f50023          	sb	a5,0(a0)
    400032c2:	7522                	ld	a0,40(sp)
    400032c4:	4785                	li	a5,1
    400032c6:	00f50223          	sb	a5,4(a0)
    400032ca:	8fefe0ef          	jal	ra,400013c8 <sync_fs>
    400032ce:	0005041b          	sext.w	s0,a0
    400032d2:	b7c1                	j	40003292 <f_setlabel+0xd2>
    400032d4:	4791                	li	a5,4
    400032d6:	02f51b63          	bne	a0,a5,4000330c <f_setlabel+0x14c>
    400032da:	01814783          	lbu	a5,24(sp)
    400032de:	dbd5                	beqz	a5,40003292 <f_setlabel+0xd2>
    400032e0:	1028                	addi	a0,sp,40
    400032e2:	a55fe0ef          	jal	ra,40001d36 <dir_alloc.constprop.12>
    400032e6:	0005041b          	sext.w	s0,a0
    400032ea:	f445                	bnez	s0,40003292 <f_setlabel+0xd2>
    400032ec:	6506                	ld	a0,64(sp)
    400032ee:	02000613          	li	a2,32
    400032f2:	4581                	li	a1,0
    400032f4:	b07fd0ef          	jal	ra,40000dfa <mem_set>
    400032f8:	6506                	ld	a0,64(sp)
    400032fa:	462d                	li	a2,11
    400032fc:	082c                	addi	a1,sp,24
    400032fe:	ae5fd0ef          	jal	ra,40000de2 <mem_cpy>
    40003302:	6786                	ld	a5,64(sp)
    40003304:	4721                	li	a4,8
    40003306:	00e785a3          	sb	a4,11(a5)
    4000330a:	bf19                	j	40003220 <f_setlabel+0x60>
    4000330c:	842a                	mv	s0,a0
    4000330e:	b751                	j	40003292 <f_setlabel+0xd2>
    40003310:	f91780e3          	beq	a5,a7,40003290 <f_setlabel+0xd0>
    40003314:	00e58023          	sb	a4,0(a1)
    40003318:	0685                	addi	a3,a3,1
    4000331a:	0585                	addi	a1,a1,1
    4000331c:	f4c7e5e3          	bltu	a5,a2,40003266 <f_setlabel+0xa6>
    40003320:	1782                	slli	a5,a5,0x20
    40003322:	9381                	srli	a5,a5,0x20
    40003324:	4729                	li	a4,10
    40003326:	02000613          	li	a2,32
    4000332a:	0007869b          	sext.w	a3,a5
    4000332e:	f8d771e3          	bleu	a3,a4,400032b0 <f_setlabel+0xf0>
    40003332:	01814703          	lbu	a4,24(sp)
    40003336:	0e500793          	li	a5,229
    4000333a:	eaf71de3          	bne	a4,a5,400031f4 <f_setlabel+0x34>
    4000333e:	bf89                	j	40003290 <f_setlabel+0xd0>

0000000040003340 <_get_card_status.constprop.0>:
    40003340:	00004797          	auipc	a5,0x4
    40003344:	c0878793          	addi	a5,a5,-1016 # 40006f48 <sd_base>
    40003348:	639c                	ld	a5,0(a5)
    4000334a:	00005717          	auipc	a4,0x5
    4000334e:	f6670713          	addi	a4,a4,-154 # 400082b0 <card_status>
    40003352:	10078693          	addi	a3,a5,256
    40003356:	00d79363          	bne	a5,a3,4000335c <_get_card_status.constprop.0+0x1c>
    4000335a:	8082                	ret
    4000335c:	6390                	ld	a2,0(a5)
    4000335e:	0711                	addi	a4,a4,4
    40003360:	07a1                	addi	a5,a5,8
    40003362:	fec72e23          	sw	a2,-4(a4)
    40003366:	bfc5                	j	40003356 <_get_card_status.constprop.0+0x16>

0000000040003368 <myputchar>:
    40003368:	b88fd06f          	j	400006f0 <hid_send>

000000004000336c <sg_miter_next>:
    4000336c:	4505                	li	a0,1
    4000336e:	8082                	ret

0000000040003370 <sg_miter_stop>:
    40003370:	8082                	ret

0000000040003372 <__be32_to_cpu>:
    40003372:	0185571b          	srliw	a4,a0,0x18
    40003376:	0185179b          	slliw	a5,a0,0x18
    4000337a:	8fd9                	or	a5,a5,a4
    4000337c:	00ff06b7          	lui	a3,0xff0
    40003380:	0085171b          	slliw	a4,a0,0x8
    40003384:	8f75                	and	a4,a4,a3
    40003386:	8fd9                	or	a5,a5,a4
    40003388:	6741                	lui	a4,0x10
    4000338a:	f0070713          	addi	a4,a4,-256 # ff00 <_tbss_end+0xff00>
    4000338e:	0085551b          	srliw	a0,a0,0x8
    40003392:	8d79                	and	a0,a0,a4
    40003394:	8d5d                	or	a0,a0,a5
    40003396:	2501                	sext.w	a0,a0
    40003398:	8082                	ret

000000004000339a <sd_disable>:
    4000339a:	8082                	ret

000000004000339c <sd_send>:
    4000339c:	4501                	li	a0,0
    4000339e:	8082                	ret

00000000400033a0 <sd_send_multi>:
    400033a0:	8082                	ret

00000000400033a2 <sd_recv_multi>:
    400033a2:	8082                	ret

00000000400033a4 <sd_select_slave>:
    400033a4:	8082                	ret

00000000400033a6 <sd_deselect_slave>:
    400033a6:	8082                	ret

00000000400033a8 <wait_ready>:
    400033a8:	4505                	li	a0,1
    400033aa:	8082                	ret

00000000400033ac <sd_deselect>:
    400033ac:	8082                	ret

00000000400033ae <sd_select>:
    400033ae:	4505                	li	a0,1
    400033b0:	8082                	ret

00000000400033b2 <myputs>:
    400033b2:	1141                	addi	sp,sp,-16
    400033b4:	e022                	sd	s0,0(sp)
    400033b6:	e406                	sd	ra,8(sp)
    400033b8:	842a                	mv	s0,a0
    400033ba:	00044503          	lbu	a0,0(s0)
    400033be:	e509                	bnez	a0,400033c8 <myputs+0x16>
    400033c0:	60a2                	ld	ra,8(sp)
    400033c2:	6402                	ld	s0,0(sp)
    400033c4:	0141                	addi	sp,sp,16
    400033c6:	8082                	ret
    400033c8:	0405                	addi	s0,s0,1
    400033ca:	b26fd0ef          	jal	ra,400006f0 <hid_send>
    400033ce:	b7f5                	j	400033ba <myputs+0x8>

00000000400033d0 <myputn>:
    400033d0:	1141                	addi	sp,sp,-16
    400033d2:	e022                	sd	s0,0(sp)
    400033d4:	e406                	sd	ra,8(sp)
    400033d6:	47a5                	li	a5,9
    400033d8:	842a                	mv	s0,a0
    400033da:	00a7f763          	bleu	a0,a5,400033e8 <myputn+0x18>
    400033de:	4529                	li	a0,10
    400033e0:	02a4553b          	divuw	a0,s0,a0
    400033e4:	fedff0ef          	jal	ra,400033d0 <myputn>
    400033e8:	4529                	li	a0,10
    400033ea:	02a4753b          	remuw	a0,s0,a0
    400033ee:	6402                	ld	s0,0(sp)
    400033f0:	60a2                	ld	ra,8(sp)
    400033f2:	0141                	addi	sp,sp,16
    400033f4:	03050513          	addi	a0,a0,48
    400033f8:	af8fd06f          	j	400006f0 <hid_send>

00000000400033fc <myputhex>:
