
examples/boot.riscv:     file format elf64-littleriscv


Disassembly of section .text:

0000000000000100 <user_trap_entry>:
     100:	2800006f          	j	380 <trap_entry>
     104:	00000013          	nop
     108:	00000013          	nop
     10c:	00000013          	nop
     110:	00000013          	nop
     114:	00000013          	nop
     118:	00000013          	nop
     11c:	00000013          	nop
     120:	00000013          	nop
     124:	00000013          	nop
     128:	00000013          	nop
     12c:	00000013          	nop
     130:	00000013          	nop
     134:	00000013          	nop
     138:	00000013          	nop
     13c:	00000013          	nop

0000000000000140 <supervisor_trap_entry>:
     140:	0000006f          	j	140 <supervisor_trap_entry>
     144:	00000013          	nop
     148:	00000013          	nop
     14c:	00000013          	nop
     150:	00000013          	nop
     154:	00000013          	nop
     158:	00000013          	nop
     15c:	00000013          	nop
     160:	00000013          	nop
     164:	00000013          	nop
     168:	00000013          	nop
     16c:	00000013          	nop
     170:	00000013          	nop
     174:	00000013          	nop
     178:	00000013          	nop
     17c:	00000013          	nop

0000000000000180 <hypervisor_trap_entry>:
     180:	0000006f          	j	180 <hypervisor_trap_entry>
     184:	00000013          	nop
     188:	00000013          	nop
     18c:	00000013          	nop
     190:	00000013          	nop
     194:	00000013          	nop
     198:	00000013          	nop
     19c:	00000013          	nop
     1a0:	00000013          	nop
     1a4:	00000013          	nop
     1a8:	00000013          	nop
     1ac:	00000013          	nop
     1b0:	00000013          	nop
     1b4:	00000013          	nop
     1b8:	00000013          	nop
     1bc:	00000013          	nop

00000000000001c0 <machine_trap_entry>:
     1c0:	1c00006f          	j	380 <trap_entry>
     1c4:	00000013          	nop
     1c8:	00000013          	nop
     1cc:	00000013          	nop
     1d0:	00000013          	nop
     1d4:	00000013          	nop
     1d8:	00000013          	nop
     1dc:	00000013          	nop
     1e0:	00000013          	nop
     1e4:	00000013          	nop
     1e8:	00000013          	nop
     1ec:	00000013          	nop
     1f0:	00000013          	nop
     1f4:	00000013          	nop
     1f8:	00000013          	nop
     1fc:	00000013          	nop

0000000000000200 <_start>:
     200:	00000093          	li	ra,0
     204:	00000113          	li	sp,0
     208:	00000193          	li	gp,0
     20c:	00000213          	li	tp,0
     210:	00000293          	li	t0,0
     214:	00000313          	li	t1,0
     218:	00000393          	li	t2,0
     21c:	00000413          	li	s0,0
     220:	00000493          	li	s1,0
     224:	00000513          	li	a0,0
     228:	00000593          	li	a1,0
     22c:	00000613          	li	a2,0
     230:	00000693          	li	a3,0
     234:	00000713          	li	a4,0
     238:	00000793          	li	a5,0
     23c:	00000813          	li	a6,0
     240:	00000893          	li	a7,0
     244:	00000913          	li	s2,0
     248:	00000993          	li	s3,0
     24c:	00000a13          	li	s4,0
     250:	00000a93          	li	s5,0
     254:	00000b13          	li	s6,0
     258:	00000b93          	li	s7,0
     25c:	00000c13          	li	s8,0
     260:	00000c93          	li	s9,0
     264:	00000d13          	li	s10,0
     268:	00000d93          	li	s11,0
     26c:	00000e13          	li	t3,0
     270:	00000e93          	li	t4,0
     274:	00000f13          	li	t5,0
     278:	00000f93          	li	t6,0
     27c:	03000293          	li	t0,48
     280:	3002b073          	csrc	mstatus,t0
     284:	00800293          	li	t0,8
     288:	3002a073          	csrs	mstatus,t0
     28c:	000032b7          	lui	t0,0x3
     290:	3002a073          	csrs	mstatus,t0
     294:	0000c2b7          	lui	t0,0xc
     298:	3002a073          	csrs	mstatus,t0
     29c:	f00022f3          	csrr	t0,0xf00
     2a0:	0002c663          	bltz	t0,2ac <_start+0xac>
     2a4:	4d200513          	li	a0,1234
     2a8:	4d40106f          	j	177c <exit>
     2ac:	00003337          	lui	t1,0x3
     2b0:	0062f333          	and	t1,t0,t1
     2b4:	08030463          	beqz	t1,33c <_start+0x13c>
     2b8:	00301073          	fssr	zero
     2bc:	f0000053          	fmv.w.x	ft0,zero
     2c0:	f00000d3          	fmv.w.x	ft1,zero
     2c4:	f0000153          	fmv.w.x	ft2,zero
     2c8:	f00001d3          	fmv.w.x	ft3,zero
     2cc:	f0000253          	fmv.w.x	ft4,zero
     2d0:	f00002d3          	fmv.w.x	ft5,zero
     2d4:	f0000353          	fmv.w.x	ft6,zero
     2d8:	f00003d3          	fmv.w.x	ft7,zero
     2dc:	f0000453          	fmv.w.x	fs0,zero
     2e0:	f00004d3          	fmv.w.x	fs1,zero
     2e4:	f0000553          	fmv.w.x	fa0,zero
     2e8:	f00005d3          	fmv.w.x	fa1,zero
     2ec:	f0000653          	fmv.w.x	fa2,zero
     2f0:	f00006d3          	fmv.w.x	fa3,zero
     2f4:	f0000753          	fmv.w.x	fa4,zero
     2f8:	f00007d3          	fmv.w.x	fa5,zero
     2fc:	f0000853          	fmv.w.x	fa6,zero
     300:	f00008d3          	fmv.w.x	fa7,zero
     304:	f0000953          	fmv.w.x	fs2,zero
     308:	f00009d3          	fmv.w.x	fs3,zero
     30c:	f0000a53          	fmv.w.x	fs4,zero
     310:	f0000ad3          	fmv.w.x	fs5,zero
     314:	f0000b53          	fmv.w.x	fs6,zero
     318:	f0000bd3          	fmv.w.x	fs7,zero
     31c:	f0000c53          	fmv.w.x	fs8,zero
     320:	f0000cd3          	fmv.w.x	fs9,zero
     324:	f0000d53          	fmv.w.x	fs10,zero
     328:	f0000dd3          	fmv.w.x	fs11,zero
     32c:	f0000e53          	fmv.w.x	ft8,zero
     330:	f0000ed3          	fmv.w.x	ft9,zero
     334:	f0000f53          	fmv.w.x	ft10,zero
     338:	f0000fd3          	fmv.w.x	ft11,zero
     33c:	0000b197          	auipc	gp,0xb
     340:	67c18193          	addi	gp,gp,1660 # b9b8 <_gp>
     344:	0000b217          	auipc	tp,0xb
     348:	37b20213          	addi	tp,tp,891 # b6bf <_end+0x3f>
     34c:	fc027213          	andi	tp,tp,-64
     350:	f1002573          	csrr	a0,0xf10
     354:	00100593          	li	a1,1
     358:	00b57063          	bleu	a1,a0,358 <_start+0x158>
     35c:	00c51613          	slli	a2,a0,0xc
     360:	00c20233          	add	tp,tp,a2
     364:	00150113          	addi	sp,a0,1
     368:	00c11113          	slli	sp,sp,0xc
     36c:	00410133          	add	sp,sp,tp
     370:	00001297          	auipc	t0,0x1
     374:	5ac28293          	addi	t0,t0,1452 # 191c <_init>
     378:	34129073          	csrw	mepc,t0
     37c:	10000073          	0x10000073

0000000000000380 <trap_entry>:
     380:	ef010113          	addi	sp,sp,-272
     384:	00113423          	sd	ra,8(sp)
     388:	00213823          	sd	sp,16(sp)
     38c:	00313c23          	sd	gp,24(sp)
     390:	02413023          	sd	tp,32(sp)
     394:	02513423          	sd	t0,40(sp)
     398:	02613823          	sd	t1,48(sp)
     39c:	02713c23          	sd	t2,56(sp)
     3a0:	04813023          	sd	s0,64(sp)
     3a4:	04913423          	sd	s1,72(sp)
     3a8:	04a13823          	sd	a0,80(sp)
     3ac:	04b13c23          	sd	a1,88(sp)
     3b0:	06c13023          	sd	a2,96(sp)
     3b4:	06d13423          	sd	a3,104(sp)
     3b8:	06e13823          	sd	a4,112(sp)
     3bc:	06f13c23          	sd	a5,120(sp)
     3c0:	09013023          	sd	a6,128(sp)
     3c4:	09113423          	sd	a7,136(sp)
     3c8:	09213823          	sd	s2,144(sp)
     3cc:	09313c23          	sd	s3,152(sp)
     3d0:	0b413023          	sd	s4,160(sp)
     3d4:	0b513423          	sd	s5,168(sp)
     3d8:	0b613823          	sd	s6,176(sp)
     3dc:	0b713c23          	sd	s7,184(sp)
     3e0:	0d813023          	sd	s8,192(sp)
     3e4:	0d913423          	sd	s9,200(sp)
     3e8:	0da13823          	sd	s10,208(sp)
     3ec:	0db13c23          	sd	s11,216(sp)
     3f0:	0fc13023          	sd	t3,224(sp)
     3f4:	0fd13423          	sd	t4,232(sp)
     3f8:	0fe13823          	sd	t5,240(sp)
     3fc:	0ff13c23          	sd	t6,248(sp)
     400:	34202573          	csrr	a0,mcause
     404:	341025f3          	csrr	a1,mepc
     408:	00010613          	mv	a2,sp
     40c:	6a9000ef          	jal	ra,12b4 <handle_trap>
     410:	34151073          	csrw	mepc,a0
     414:	00813083          	ld	ra,8(sp)
     418:	01013103          	ld	sp,16(sp)
     41c:	01813183          	ld	gp,24(sp)
     420:	02013203          	ld	tp,32(sp)
     424:	02813283          	ld	t0,40(sp)
     428:	03013303          	ld	t1,48(sp)
     42c:	03813383          	ld	t2,56(sp)
     430:	04013403          	ld	s0,64(sp)
     434:	04813483          	ld	s1,72(sp)
     438:	05013503          	ld	a0,80(sp)
     43c:	05813583          	ld	a1,88(sp)
     440:	06013603          	ld	a2,96(sp)
     444:	06813683          	ld	a3,104(sp)
     448:	07013703          	ld	a4,112(sp)
     44c:	07813783          	ld	a5,120(sp)
     450:	08013803          	ld	a6,128(sp)
     454:	08813883          	ld	a7,136(sp)
     458:	09013903          	ld	s2,144(sp)
     45c:	09813983          	ld	s3,152(sp)
     460:	0a013a03          	ld	s4,160(sp)
     464:	0a813a83          	ld	s5,168(sp)
     468:	0b013b03          	ld	s6,176(sp)
     46c:	0b813b83          	ld	s7,184(sp)
     470:	0c013c03          	ld	s8,192(sp)
     474:	0c813c83          	ld	s9,200(sp)
     478:	0d013d03          	ld	s10,208(sp)
     47c:	0d813d83          	ld	s11,216(sp)
     480:	0e013e03          	ld	t3,224(sp)
     484:	0e813e83          	ld	t4,232(sp)
     488:	0f013f03          	ld	t5,240(sp)
     48c:	0f813f83          	ld	t6,248(sp)
     490:	11010113          	addi	sp,sp,272
     494:	10000073          	0x10000073

0000000000000498 <asm_set_iobase0>:
     498:	7b051073          	csrw	dcsr,a0
     49c:	7b159073          	csrw	dpc,a1
     4a0:	00008067          	ret

00000000000004a4 <asm_set_iobase1>:
     4a4:	7b451073          	csrw	0x7b4,a0
     4a8:	7b559073          	csrw	0x7b5,a1
     4ac:	00008067          	ret

00000000000004b0 <asm_set_iobase2>:
     4b0:	7b851073          	csrw	0x7b8,a0
     4b4:	7b959073          	csrw	0x7b9,a1
     4b8:	00008067          	ret

00000000000004bc <asm_set_iobase3>:
     4bc:	7bc51073          	csrw	0x7bc,a0
     4c0:	7bd59073          	csrw	0x7bd,a1
     4c4:	00008067          	ret

00000000000004c8 <asm_update_iospace>:
     4c8:	7bf51073          	csrw	0x7bf,a0
     4cc:	00008067          	ret

00000000000004d0 <asm_set_membase0>:
     4d0:	7a051073          	csrw	tselect,a0
     4d4:	7a159073          	csrw	tdata1,a1
     4d8:	7a261073          	csrw	tdata2,a2
     4dc:	00008067          	ret

00000000000004e0 <asm_set_membase1>:
     4e0:	7a451073          	csrw	0x7a4,a0
     4e4:	7a559073          	csrw	0x7a5,a1
     4e8:	7a661073          	csrw	0x7a6,a2
     4ec:	00008067          	ret

00000000000004f0 <asm_set_membase2>:
     4f0:	7a851073          	csrw	0x7a8,a0
     4f4:	7a959073          	csrw	0x7a9,a1
     4f8:	7aa61073          	csrw	0x7aa,a2
     4fc:	00008067          	ret

0000000000000500 <asm_set_membase3>:
     500:	7ac51073          	csrw	0x7ac,a0
     504:	7ad59073          	csrw	0x7ad,a1
     508:	7ae61073          	csrw	0x7ae,a2
     50c:	00008067          	ret

0000000000000510 <asm_update_memspace>:
     510:	7af51073          	csrw	0x7af,a0
     514:	00008067          	ret
     518:	00000013          	nop
     51c:	00000013          	nop
     520:	00000013          	nop
     524:	00000013          	nop
     528:	00000013          	nop
     52c:	00000013          	nop
     530:	00000013          	nop
     534:	00000013          	nop
     538:	00000013          	nop
     53c:	00000013          	nop

0000000000000540 <asm_soft_reset>:
     540:	7af51073          	csrw	0x7af,a0
     544:	06400593          	li	a1,100
     548:	00000513          	li	a0,0
     54c:	fff58593          	addi	a1,a1,-1
     550:	fea59ee3          	bne	a1,a0,54c <asm_soft_reset+0xc>
     554:	78251073          	csrw	0x782,a0

0000000000000558 <main>:
     558:	d9010113          	addi	sp,sp,-624
     55c:	26113423          	sd	ra,616(sp)
     560:	26813023          	sd	s0,608(sp)
     564:	27010413          	addi	s0,sp,624
     568:	2a8020ef          	jal	ra,2810 <get_ddr_base>
     56c:	00050713          	mv	a4,a0
     570:	3f0007b7          	lui	a5,0x3f000
     574:	00f707b3          	add	a5,a4,a5
     578:	fef43023          	sd	a5,-32(s0)
     57c:	294020ef          	jal	ra,2810 <get_ddr_base>
     580:	fca43c23          	sd	a0,-40(s0)
     584:	00000693          	li	a3,0
     588:	400007b7          	lui	a5,0x40000
     58c:	fff78613          	addi	a2,a5,-1 # 3fffffff <_gp+0x3fff4647>
     590:	00000593          	li	a1,0
     594:	000027b7          	lui	a5,0x2
     598:	10078513          	addi	a0,a5,256 # 2100 <vprintfmt+0x380>
     59c:	19c010ef          	jal	ra,1738 <syscall>
     5a0:	00000693          	li	a3,0
     5a4:	00000613          	li	a2,0
     5a8:	00000593          	li	a1,0
     5ac:	000027b7          	lui	a5,0x2
     5b0:	10578513          	addi	a0,a5,261 # 2105 <vprintfmt+0x385>
     5b4:	184010ef          	jal	ra,1738 <syscall>
     5b8:	00000693          	li	a3,0
     5bc:	800007b7          	lui	a5,0x80000
     5c0:	fff7c613          	not	a2,a5
     5c4:	00100793          	li	a5,1
     5c8:	01f79593          	slli	a1,a5,0x1f
     5cc:	000127b7          	lui	a5,0x12
     5d0:	20078513          	addi	a0,a5,512 # 12200 <_gp+0x6848>
     5d4:	164010ef          	jal	ra,1738 <syscall>
     5d8:	00000693          	li	a3,0
     5dc:	400007b7          	lui	a5,0x40000
     5e0:	fff78613          	addi	a2,a5,-1 # 3fffffff <_gp+0x3fff4647>
     5e4:	400005b7          	lui	a1,0x40000
     5e8:	000127b7          	lui	a5,0x12
     5ec:	20178513          	addi	a0,a5,513 # 12201 <_gp+0x6849>
     5f0:	148010ef          	jal	ra,1738 <syscall>
     5f4:	00000693          	li	a3,0
     5f8:	00000613          	li	a2,0
     5fc:	00000593          	li	a1,0
     600:	000127b7          	lui	a5,0x12
     604:	20578513          	addi	a0,a5,517 # 12205 <_gp+0x684d>
     608:	130010ef          	jal	ra,1738 <syscall>
     60c:	775010ef          	jal	ra,2580 <uart_init>
     610:	0000a7b7          	lui	a5,0xa
     614:	eb078513          	addi	a0,a5,-336 # 9eb0 <strnlen+0x48>
     618:	335010ef          	jal	ra,214c <printf>
     61c:	00100613          	li	a2,1
     620:	0000a7b7          	lui	a5,0xa
     624:	ef078593          	addi	a1,a5,-272 # 9ef0 <strnlen+0x88>
     628:	82018513          	addi	a0,gp,-2016
     62c:	308060ef          	jal	ra,6934 <f_mount>
     630:	00050793          	mv	a5,a0
     634:	00078c63          	beqz	a5,64c <main+0xf4>
     638:	0000a7b7          	lui	a5,0xa
     63c:	ef878513          	addi	a0,a5,-264 # 9ef8 <strnlen+0x90>
     640:	30d010ef          	jal	ra,214c <printf>
     644:	00100793          	li	a5,1
     648:	2100006f          	j	858 <main+0x300>
     64c:	0000a7b7          	lui	a5,0xa
     650:	f1878513          	addi	a0,a5,-232 # 9f18 <strnlen+0xb0>
     654:	2f9010ef          	jal	ra,214c <printf>
     658:	da040713          	addi	a4,s0,-608
     65c:	00100613          	li	a2,1
     660:	0000a7b7          	lui	a5,0xa
     664:	f3078593          	addi	a1,a5,-208 # 9f30 <strnlen+0xc8>
     668:	00070513          	mv	a0,a4
     66c:	3b0060ef          	jal	ra,6a1c <f_open>
     670:	fca42a23          	sw	a0,-44(s0)
     674:	fd442783          	lw	a5,-44(s0)
     678:	00078c63          	beqz	a5,690 <main+0x138>
     67c:	0000a7b7          	lui	a5,0xa
     680:	f3878513          	addi	a0,a5,-200 # 9f38 <strnlen+0xd0>
     684:	2c9010ef          	jal	ra,214c <printf>
     688:	fd442783          	lw	a5,-44(s0)
     68c:	1cc0006f          	j	858 <main+0x300>
     690:	fe043783          	ld	a5,-32(s0)
     694:	fef43423          	sd	a5,-24(s0)
     698:	d9c40713          	addi	a4,s0,-612
     69c:	da040793          	addi	a5,s0,-608
     6a0:	00070693          	mv	a3,a4
     6a4:	00001637          	lui	a2,0x1
     6a8:	fe843583          	ld	a1,-24(s0)
     6ac:	00078513          	mv	a0,a5
     6b0:	7a4060ef          	jal	ra,6e54 <f_read>
     6b4:	fca42a23          	sw	a0,-44(s0)
     6b8:	d9c42783          	lw	a5,-612(s0)
     6bc:	02079793          	slli	a5,a5,0x20
     6c0:	0207d793          	srli	a5,a5,0x20
     6c4:	fe843703          	ld	a4,-24(s0)
     6c8:	00f707b3          	add	a5,a4,a5
     6cc:	fef43423          	sd	a5,-24(s0)
     6d0:	fd442783          	lw	a5,-44(s0)
     6d4:	00079663          	bnez	a5,6e0 <main+0x188>
     6d8:	d9c42783          	lw	a5,-612(s0)
     6dc:	fa079ee3          	bnez	a5,698 <main+0x140>
     6e0:	db042783          	lw	a5,-592(s0)
     6e4:	00078593          	mv	a1,a5
     6e8:	0000a7b7          	lui	a5,0xa
     6ec:	f5078513          	addi	a0,a5,-176 # 9f50 <strnlen+0xe8>
     6f0:	25d010ef          	jal	ra,214c <printf>
     6f4:	0000a7b7          	lui	a5,0xa
     6f8:	f7078513          	addi	a0,a5,-144 # 9f70 <strnlen+0x108>
     6fc:	251010ef          	jal	ra,214c <printf>
     700:	db042783          	lw	a5,-592(s0)
     704:	00078613          	mv	a2,a5
     708:	fe043583          	ld	a1,-32(s0)
     70c:	fd843503          	ld	a0,-40(s0)
     710:	120020ef          	jal	ra,2830 <load_elf>
     714:	00050793          	mv	a5,a0
     718:	d8f42e23          	sw	a5,-612(s0)
     71c:	d9c42783          	lw	a5,-612(s0)
     720:	00078c63          	beqz	a5,738 <main+0x1e0>
     724:	d9c42783          	lw	a5,-612(s0)
     728:	00078593          	mv	a1,a5
     72c:	0000a7b7          	lui	a5,0xa
     730:	f9878513          	addi	a0,a5,-104 # 9f98 <strnlen+0x130>
     734:	219010ef          	jal	ra,214c <printf>
     738:	da040793          	addi	a5,s0,-608
     73c:	00078513          	mv	a0,a5
     740:	2d4070ef          	jal	ra,7a14 <f_close>
     744:	00050793          	mv	a5,a0
     748:	00078c63          	beqz	a5,760 <main+0x208>
     74c:	0000a7b7          	lui	a5,0xa
     750:	fb878513          	addi	a0,a5,-72 # 9fb8 <strnlen+0x150>
     754:	1f9010ef          	jal	ra,214c <printf>
     758:	00100793          	li	a5,1
     75c:	0fc0006f          	j	858 <main+0x300>
     760:	00100613          	li	a2,1
     764:	0000a7b7          	lui	a5,0xa
     768:	ef078593          	addi	a1,a5,-272 # 9ef0 <strnlen+0x88>
     76c:	00000513          	li	a0,0
     770:	1c4060ef          	jal	ra,6934 <f_mount>
     774:	00050793          	mv	a5,a0
     778:	00078c63          	beqz	a5,790 <main+0x238>
     77c:	0000a7b7          	lui	a5,0xa
     780:	fd078513          	addi	a0,a5,-48 # 9fd0 <strnlen+0x168>
     784:	1c9010ef          	jal	ra,214c <printf>
     788:	00100793          	li	a5,1
     78c:	0cc0006f          	j	858 <main+0x300>
     790:	3b9010ef          	jal	ra,2348 <spi_disable>
     794:	00000693          	li	a3,0
     798:	800007b7          	lui	a5,0x80000
     79c:	fff7c613          	not	a2,a5
     7a0:	00000593          	li	a1,0
     7a4:	000027b7          	lui	a5,0x2
     7a8:	10078513          	addi	a0,a5,256 # 2100 <vprintfmt+0x380>
     7ac:	78d000ef          	jal	ra,1738 <syscall>
     7b0:	00000693          	li	a3,0
     7b4:	00000613          	li	a2,0
     7b8:	00000593          	li	a1,0
     7bc:	000027b7          	lui	a5,0x2
     7c0:	10578513          	addi	a0,a5,261 # 2105 <vprintfmt+0x385>
     7c4:	775000ef          	jal	ra,1738 <syscall>
     7c8:	00000693          	li	a3,0
     7cc:	800007b7          	lui	a5,0x80000
     7d0:	fff7c613          	not	a2,a5
     7d4:	00100793          	li	a5,1
     7d8:	01f79593          	slli	a1,a5,0x1f
     7dc:	000127b7          	lui	a5,0x12
     7e0:	20078513          	addi	a0,a5,512 # 12200 <_gp+0x6848>
     7e4:	755000ef          	jal	ra,1738 <syscall>
     7e8:	00000693          	li	a3,0
     7ec:	00000613          	li	a2,0
     7f0:	00000593          	li	a1,0
     7f4:	000127b7          	lui	a5,0x12
     7f8:	20178513          	addi	a0,a5,513 # 12201 <_gp+0x6849>
     7fc:	73d000ef          	jal	ra,1738 <syscall>
     800:	00000693          	li	a3,0
     804:	00000613          	li	a2,0
     808:	00000593          	li	a1,0
     80c:	000127b7          	lui	a5,0x12
     810:	20578513          	addi	a0,a5,517 # 12205 <_gp+0x684d>
     814:	725000ef          	jal	ra,1738 <syscall>
     818:	0000a7b7          	lui	a5,0xa
     81c:	fe878513          	addi	a0,a5,-24 # 9fe8 <strnlen+0x180>
     820:	12d010ef          	jal	ra,214c <printf>
     824:	400006b7          	lui	a3,0x40000
     828:	400007b7          	lui	a5,0x40000
     82c:	fff78613          	addi	a2,a5,-1 # 3fffffff <_gp+0x3fff4647>
     830:	00000593          	li	a1,0
     834:	000027b7          	lui	a5,0x2
     838:	10078513          	addi	a0,a5,256 # 2100 <vprintfmt+0x380>
     83c:	6fd000ef          	jal	ra,1738 <syscall>
     840:	00000693          	li	a3,0
     844:	00000613          	li	a2,0
     848:	00000593          	li	a1,0
     84c:	26900513          	li	a0,617
     850:	6e9000ef          	jal	ra,1738 <syscall>
     854:	00000793          	li	a5,0
     858:	00078513          	mv	a0,a5
     85c:	26813083          	ld	ra,616(sp)
     860:	26013403          	ld	s0,608(sp)
     864:	27010113          	addi	sp,sp,624
     868:	00008067          	ret

000000000000086c <handle_frontend_syscall>:
     86c:	fc010113          	addi	sp,sp,-64
     870:	02113c23          	sd	ra,56(sp)
     874:	02813823          	sd	s0,48(sp)
     878:	04010413          	addi	s0,sp,64
     87c:	fca43c23          	sd	a0,-40(s0)
     880:	fcb43823          	sd	a1,-48(s0)
     884:	fcc43423          	sd	a2,-56(s0)
     888:	fcd43023          	sd	a3,-64(s0)
     88c:	fc843783          	ld	a5,-56(s0)
     890:	fef43423          	sd	a5,-24(s0)
     894:	01c0006f          	j	8b0 <handle_frontend_syscall+0x44>
     898:	fe843783          	ld	a5,-24(s0)
     89c:	00178713          	addi	a4,a5,1
     8a0:	fee43423          	sd	a4,-24(s0)
     8a4:	0007c783          	lbu	a5,0(a5)
     8a8:	00078513          	mv	a0,a5
     8ac:	539010ef          	jal	ra,25e4 <uart_send>
     8b0:	fc043783          	ld	a5,-64(s0)
     8b4:	fff78713          	addi	a4,a5,-1
     8b8:	fce43023          	sd	a4,-64(s0)
     8bc:	fc079ee3          	bnez	a5,898 <handle_frontend_syscall+0x2c>
     8c0:	00000793          	li	a5,0
     8c4:	00078513          	mv	a0,a5
     8c8:	03813083          	ld	ra,56(sp)
     8cc:	03013403          	ld	s0,48(sp)
     8d0:	04010113          	addi	sp,sp,64
     8d4:	00008067          	ret

00000000000008d8 <handle_stats>:
     8d8:	f4010113          	addi	sp,sp,-192
     8dc:	0a813c23          	sd	s0,184(sp)
     8e0:	0c010413          	addi	s0,sp,192
     8e4:	f4a42623          	sw	a0,-180(s0)
     8e8:	f4c42783          	lw	a5,-180(s0)
     8ec:	00078463          	beqz	a5,8f4 <handle_stats+0x1c>
     8f0:	0c00e573          	csrrsi	a0,0xc0,1
     8f4:	f4042e23          	sw	zero,-164(s0)
     8f8:	f5c42703          	lw	a4,-164(s0)
     8fc:	01100793          	li	a5,17
     900:	fee7cce3          	blt	a5,a4,8f8 <handle_stats+0x20>
     904:	c0002573          	rdcycle	a0
     908:	00050793          	mv	a5,a0
     90c:	fef43423          	sd	a5,-24(s0)
     910:	f4c42783          	lw	a5,-180(s0)
     914:	04079063          	bnez	a5,954 <handle_stats+0x7c>
     918:	f5c42703          	lw	a4,-164(s0)
     91c:	00371713          	slli	a4,a4,0x3
     920:	a5818793          	addi	a5,gp,-1448
     924:	00f707b3          	add	a5,a4,a5
     928:	0007b783          	ld	a5,0(a5)
     92c:	fe843703          	ld	a4,-24(s0)
     930:	40f707b3          	sub	a5,a4,a5
     934:	fef43423          	sd	a5,-24(s0)
     938:	f5c42703          	lw	a4,-164(s0)
     93c:	00371713          	slli	a4,a4,0x3
     940:	ae818793          	addi	a5,gp,-1304
     944:	00f707b3          	add	a5,a4,a5
     948:	0000a737          	lui	a4,0xa
     94c:	00870713          	addi	a4,a4,8 # a008 <strnlen+0x1a0>
     950:	00e7b023          	sd	a4,0(a5)
     954:	f5c42783          	lw	a5,-164(s0)
     958:	0017871b          	addiw	a4,a5,1
     95c:	f4e42e23          	sw	a4,-164(s0)
     960:	00379713          	slli	a4,a5,0x3
     964:	a5818793          	addi	a5,gp,-1448
     968:	00f707b3          	add	a5,a4,a5
     96c:	fe843703          	ld	a4,-24(s0)
     970:	00e7b023          	sd	a4,0(a5)
     974:	f5c42703          	lw	a4,-164(s0)
     978:	01100793          	li	a5,17
     97c:	fee7cce3          	blt	a5,a4,974 <handle_stats+0x9c>
     980:	c0202573          	rdinstret	a0
     984:	00050793          	mv	a5,a0
     988:	fef43023          	sd	a5,-32(s0)
     98c:	f4c42783          	lw	a5,-180(s0)
     990:	04079063          	bnez	a5,9d0 <handle_stats+0xf8>
     994:	f5c42703          	lw	a4,-164(s0)
     998:	00371713          	slli	a4,a4,0x3
     99c:	a5818793          	addi	a5,gp,-1448
     9a0:	00f707b3          	add	a5,a4,a5
     9a4:	0007b783          	ld	a5,0(a5)
     9a8:	fe043703          	ld	a4,-32(s0)
     9ac:	40f707b3          	sub	a5,a4,a5
     9b0:	fef43023          	sd	a5,-32(s0)
     9b4:	f5c42703          	lw	a4,-164(s0)
     9b8:	00371713          	slli	a4,a4,0x3
     9bc:	ae818793          	addi	a5,gp,-1304
     9c0:	00f707b3          	add	a5,a4,a5
     9c4:	0000a737          	lui	a4,0xa
     9c8:	01070713          	addi	a4,a4,16 # a010 <strnlen+0x1a8>
     9cc:	00e7b023          	sd	a4,0(a5)
     9d0:	f5c42783          	lw	a5,-164(s0)
     9d4:	0017871b          	addiw	a4,a5,1
     9d8:	f4e42e23          	sw	a4,-164(s0)
     9dc:	00379713          	slli	a4,a5,0x3
     9e0:	a5818793          	addi	a5,gp,-1448
     9e4:	00f707b3          	add	a5,a4,a5
     9e8:	fe043703          	ld	a4,-32(s0)
     9ec:	00e7b023          	sd	a4,0(a5)
     9f0:	f5c42703          	lw	a4,-164(s0)
     9f4:	01100793          	li	a5,17
     9f8:	fee7cce3          	blt	a5,a4,9f0 <handle_stats+0x118>
     9fc:	cc002573          	csrr	a0,0xcc0
     a00:	00050793          	mv	a5,a0
     a04:	fcf43c23          	sd	a5,-40(s0)
     a08:	f4c42783          	lw	a5,-180(s0)
     a0c:	04079063          	bnez	a5,a4c <handle_stats+0x174>
     a10:	f5c42703          	lw	a4,-164(s0)
     a14:	00371713          	slli	a4,a4,0x3
     a18:	a5818793          	addi	a5,gp,-1448
     a1c:	00f707b3          	add	a5,a4,a5
     a20:	0007b783          	ld	a5,0(a5)
     a24:	fd843703          	ld	a4,-40(s0)
     a28:	40f707b3          	sub	a5,a4,a5
     a2c:	fcf43c23          	sd	a5,-40(s0)
     a30:	f5c42703          	lw	a4,-164(s0)
     a34:	00371713          	slli	a4,a4,0x3
     a38:	ae818793          	addi	a5,gp,-1304
     a3c:	00f707b3          	add	a5,a4,a5
     a40:	0000a737          	lui	a4,0xa
     a44:	01870713          	addi	a4,a4,24 # a018 <strnlen+0x1b0>
     a48:	00e7b023          	sd	a4,0(a5)
     a4c:	f5c42783          	lw	a5,-164(s0)
     a50:	0017871b          	addiw	a4,a5,1
     a54:	f4e42e23          	sw	a4,-164(s0)
     a58:	00379713          	slli	a4,a5,0x3
     a5c:	a5818793          	addi	a5,gp,-1448
     a60:	00f707b3          	add	a5,a4,a5
     a64:	fd843703          	ld	a4,-40(s0)
     a68:	00e7b023          	sd	a4,0(a5)
     a6c:	f5c42703          	lw	a4,-164(s0)
     a70:	01100793          	li	a5,17
     a74:	fee7cce3          	blt	a5,a4,a6c <handle_stats+0x194>
     a78:	cc102573          	csrr	a0,0xcc1
     a7c:	00050793          	mv	a5,a0
     a80:	fcf43823          	sd	a5,-48(s0)
     a84:	f4c42783          	lw	a5,-180(s0)
     a88:	04079063          	bnez	a5,ac8 <handle_stats+0x1f0>
     a8c:	f5c42703          	lw	a4,-164(s0)
     a90:	00371713          	slli	a4,a4,0x3
     a94:	a5818793          	addi	a5,gp,-1448
     a98:	00f707b3          	add	a5,a4,a5
     a9c:	0007b783          	ld	a5,0(a5)
     aa0:	fd043703          	ld	a4,-48(s0)
     aa4:	40f707b3          	sub	a5,a4,a5
     aa8:	fcf43823          	sd	a5,-48(s0)
     aac:	f5c42703          	lw	a4,-164(s0)
     ab0:	00371713          	slli	a4,a4,0x3
     ab4:	ae818793          	addi	a5,gp,-1304
     ab8:	00f707b3          	add	a5,a4,a5
     abc:	0000a737          	lui	a4,0xa
     ac0:	02070713          	addi	a4,a4,32 # a020 <strnlen+0x1b8>
     ac4:	00e7b023          	sd	a4,0(a5)
     ac8:	f5c42783          	lw	a5,-164(s0)
     acc:	0017871b          	addiw	a4,a5,1
     ad0:	f4e42e23          	sw	a4,-164(s0)
     ad4:	00379713          	slli	a4,a5,0x3
     ad8:	a5818793          	addi	a5,gp,-1448
     adc:	00f707b3          	add	a5,a4,a5
     ae0:	fd043703          	ld	a4,-48(s0)
     ae4:	00e7b023          	sd	a4,0(a5)
     ae8:	f5c42703          	lw	a4,-164(s0)
     aec:	01100793          	li	a5,17
     af0:	fee7cce3          	blt	a5,a4,ae8 <handle_stats+0x210>
     af4:	cc202573          	csrr	a0,0xcc2
     af8:	00050793          	mv	a5,a0
     afc:	fcf43423          	sd	a5,-56(s0)
     b00:	f4c42783          	lw	a5,-180(s0)
     b04:	04079063          	bnez	a5,b44 <handle_stats+0x26c>
     b08:	f5c42703          	lw	a4,-164(s0)
     b0c:	00371713          	slli	a4,a4,0x3
     b10:	a5818793          	addi	a5,gp,-1448
     b14:	00f707b3          	add	a5,a4,a5
     b18:	0007b783          	ld	a5,0(a5)
     b1c:	fc843703          	ld	a4,-56(s0)
     b20:	40f707b3          	sub	a5,a4,a5
     b24:	fcf43423          	sd	a5,-56(s0)
     b28:	f5c42703          	lw	a4,-164(s0)
     b2c:	00371713          	slli	a4,a4,0x3
     b30:	ae818793          	addi	a5,gp,-1304
     b34:	00f707b3          	add	a5,a4,a5
     b38:	0000a737          	lui	a4,0xa
     b3c:	02870713          	addi	a4,a4,40 # a028 <strnlen+0x1c0>
     b40:	00e7b023          	sd	a4,0(a5)
     b44:	f5c42783          	lw	a5,-164(s0)
     b48:	0017871b          	addiw	a4,a5,1
     b4c:	f4e42e23          	sw	a4,-164(s0)
     b50:	00379713          	slli	a4,a5,0x3
     b54:	a5818793          	addi	a5,gp,-1448
     b58:	00f707b3          	add	a5,a4,a5
     b5c:	fc843703          	ld	a4,-56(s0)
     b60:	00e7b023          	sd	a4,0(a5)
     b64:	f5c42703          	lw	a4,-164(s0)
     b68:	01100793          	li	a5,17
     b6c:	fee7cce3          	blt	a5,a4,b64 <handle_stats+0x28c>
     b70:	cc302573          	csrr	a0,0xcc3
     b74:	00050793          	mv	a5,a0
     b78:	fcf43023          	sd	a5,-64(s0)
     b7c:	f4c42783          	lw	a5,-180(s0)
     b80:	04079063          	bnez	a5,bc0 <handle_stats+0x2e8>
     b84:	f5c42703          	lw	a4,-164(s0)
     b88:	00371713          	slli	a4,a4,0x3
     b8c:	a5818793          	addi	a5,gp,-1448
     b90:	00f707b3          	add	a5,a4,a5
     b94:	0007b783          	ld	a5,0(a5)
     b98:	fc043703          	ld	a4,-64(s0)
     b9c:	40f707b3          	sub	a5,a4,a5
     ba0:	fcf43023          	sd	a5,-64(s0)
     ba4:	f5c42703          	lw	a4,-164(s0)
     ba8:	00371713          	slli	a4,a4,0x3
     bac:	ae818793          	addi	a5,gp,-1304
     bb0:	00f707b3          	add	a5,a4,a5
     bb4:	0000a737          	lui	a4,0xa
     bb8:	03070713          	addi	a4,a4,48 # a030 <strnlen+0x1c8>
     bbc:	00e7b023          	sd	a4,0(a5)
     bc0:	f5c42783          	lw	a5,-164(s0)
     bc4:	0017871b          	addiw	a4,a5,1
     bc8:	f4e42e23          	sw	a4,-164(s0)
     bcc:	00379713          	slli	a4,a5,0x3
     bd0:	a5818793          	addi	a5,gp,-1448
     bd4:	00f707b3          	add	a5,a4,a5
     bd8:	fc043703          	ld	a4,-64(s0)
     bdc:	00e7b023          	sd	a4,0(a5)
     be0:	f5c42703          	lw	a4,-164(s0)
     be4:	01100793          	li	a5,17
     be8:	fee7cce3          	blt	a5,a4,be0 <handle_stats+0x308>
     bec:	cc402573          	csrr	a0,0xcc4
     bf0:	00050793          	mv	a5,a0
     bf4:	faf43c23          	sd	a5,-72(s0)
     bf8:	f4c42783          	lw	a5,-180(s0)
     bfc:	04079063          	bnez	a5,c3c <handle_stats+0x364>
     c00:	f5c42703          	lw	a4,-164(s0)
     c04:	00371713          	slli	a4,a4,0x3
     c08:	a5818793          	addi	a5,gp,-1448
     c0c:	00f707b3          	add	a5,a4,a5
     c10:	0007b783          	ld	a5,0(a5)
     c14:	fb843703          	ld	a4,-72(s0)
     c18:	40f707b3          	sub	a5,a4,a5
     c1c:	faf43c23          	sd	a5,-72(s0)
     c20:	f5c42703          	lw	a4,-164(s0)
     c24:	00371713          	slli	a4,a4,0x3
     c28:	ae818793          	addi	a5,gp,-1304
     c2c:	00f707b3          	add	a5,a4,a5
     c30:	0000a737          	lui	a4,0xa
     c34:	03870713          	addi	a4,a4,56 # a038 <strnlen+0x1d0>
     c38:	00e7b023          	sd	a4,0(a5)
     c3c:	f5c42783          	lw	a5,-164(s0)
     c40:	0017871b          	addiw	a4,a5,1
     c44:	f4e42e23          	sw	a4,-164(s0)
     c48:	00379713          	slli	a4,a5,0x3
     c4c:	a5818793          	addi	a5,gp,-1448
     c50:	00f707b3          	add	a5,a4,a5
     c54:	fb843703          	ld	a4,-72(s0)
     c58:	00e7b023          	sd	a4,0(a5)
     c5c:	f5c42703          	lw	a4,-164(s0)
     c60:	01100793          	li	a5,17
     c64:	fee7cce3          	blt	a5,a4,c5c <handle_stats+0x384>
     c68:	cc502573          	csrr	a0,0xcc5
     c6c:	00050793          	mv	a5,a0
     c70:	faf43823          	sd	a5,-80(s0)
     c74:	f4c42783          	lw	a5,-180(s0)
     c78:	04079063          	bnez	a5,cb8 <handle_stats+0x3e0>
     c7c:	f5c42703          	lw	a4,-164(s0)
     c80:	00371713          	slli	a4,a4,0x3
     c84:	a5818793          	addi	a5,gp,-1448
     c88:	00f707b3          	add	a5,a4,a5
     c8c:	0007b783          	ld	a5,0(a5)
     c90:	fb043703          	ld	a4,-80(s0)
     c94:	40f707b3          	sub	a5,a4,a5
     c98:	faf43823          	sd	a5,-80(s0)
     c9c:	f5c42703          	lw	a4,-164(s0)
     ca0:	00371713          	slli	a4,a4,0x3
     ca4:	ae818793          	addi	a5,gp,-1304
     ca8:	00f707b3          	add	a5,a4,a5
     cac:	0000a737          	lui	a4,0xa
     cb0:	04070713          	addi	a4,a4,64 # a040 <strnlen+0x1d8>
     cb4:	00e7b023          	sd	a4,0(a5)
     cb8:	f5c42783          	lw	a5,-164(s0)
     cbc:	0017871b          	addiw	a4,a5,1
     cc0:	f4e42e23          	sw	a4,-164(s0)
     cc4:	00379713          	slli	a4,a5,0x3
     cc8:	a5818793          	addi	a5,gp,-1448
     ccc:	00f707b3          	add	a5,a4,a5
     cd0:	fb043703          	ld	a4,-80(s0)
     cd4:	00e7b023          	sd	a4,0(a5)
     cd8:	f5c42703          	lw	a4,-164(s0)
     cdc:	01100793          	li	a5,17
     ce0:	fee7cce3          	blt	a5,a4,cd8 <handle_stats+0x400>
     ce4:	cc602573          	csrr	a0,0xcc6
     ce8:	00050793          	mv	a5,a0
     cec:	faf43423          	sd	a5,-88(s0)
     cf0:	f4c42783          	lw	a5,-180(s0)
     cf4:	04079063          	bnez	a5,d34 <handle_stats+0x45c>
     cf8:	f5c42703          	lw	a4,-164(s0)
     cfc:	00371713          	slli	a4,a4,0x3
     d00:	a5818793          	addi	a5,gp,-1448
     d04:	00f707b3          	add	a5,a4,a5
     d08:	0007b783          	ld	a5,0(a5)
     d0c:	fa843703          	ld	a4,-88(s0)
     d10:	40f707b3          	sub	a5,a4,a5
     d14:	faf43423          	sd	a5,-88(s0)
     d18:	f5c42703          	lw	a4,-164(s0)
     d1c:	00371713          	slli	a4,a4,0x3
     d20:	ae818793          	addi	a5,gp,-1304
     d24:	00f707b3          	add	a5,a4,a5
     d28:	0000a737          	lui	a4,0xa
     d2c:	04870713          	addi	a4,a4,72 # a048 <strnlen+0x1e0>
     d30:	00e7b023          	sd	a4,0(a5)
     d34:	f5c42783          	lw	a5,-164(s0)
     d38:	0017871b          	addiw	a4,a5,1
     d3c:	f4e42e23          	sw	a4,-164(s0)
     d40:	00379713          	slli	a4,a5,0x3
     d44:	a5818793          	addi	a5,gp,-1448
     d48:	00f707b3          	add	a5,a4,a5
     d4c:	fa843703          	ld	a4,-88(s0)
     d50:	00e7b023          	sd	a4,0(a5)
     d54:	f5c42703          	lw	a4,-164(s0)
     d58:	01100793          	li	a5,17
     d5c:	fee7cce3          	blt	a5,a4,d54 <handle_stats+0x47c>
     d60:	cc702573          	csrr	a0,0xcc7
     d64:	00050793          	mv	a5,a0
     d68:	faf43023          	sd	a5,-96(s0)
     d6c:	f4c42783          	lw	a5,-180(s0)
     d70:	04079063          	bnez	a5,db0 <handle_stats+0x4d8>
     d74:	f5c42703          	lw	a4,-164(s0)
     d78:	00371713          	slli	a4,a4,0x3
     d7c:	a5818793          	addi	a5,gp,-1448
     d80:	00f707b3          	add	a5,a4,a5
     d84:	0007b783          	ld	a5,0(a5)
     d88:	fa043703          	ld	a4,-96(s0)
     d8c:	40f707b3          	sub	a5,a4,a5
     d90:	faf43023          	sd	a5,-96(s0)
     d94:	f5c42703          	lw	a4,-164(s0)
     d98:	00371713          	slli	a4,a4,0x3
     d9c:	ae818793          	addi	a5,gp,-1304
     da0:	00f707b3          	add	a5,a4,a5
     da4:	0000a737          	lui	a4,0xa
     da8:	05070713          	addi	a4,a4,80 # a050 <strnlen+0x1e8>
     dac:	00e7b023          	sd	a4,0(a5)
     db0:	f5c42783          	lw	a5,-164(s0)
     db4:	0017871b          	addiw	a4,a5,1
     db8:	f4e42e23          	sw	a4,-164(s0)
     dbc:	00379713          	slli	a4,a5,0x3
     dc0:	a5818793          	addi	a5,gp,-1448
     dc4:	00f707b3          	add	a5,a4,a5
     dc8:	fa043703          	ld	a4,-96(s0)
     dcc:	00e7b023          	sd	a4,0(a5)
     dd0:	f5c42703          	lw	a4,-164(s0)
     dd4:	01100793          	li	a5,17
     dd8:	fee7cce3          	blt	a5,a4,dd0 <handle_stats+0x4f8>
     ddc:	cc802573          	csrr	a0,0xcc8
     de0:	00050793          	mv	a5,a0
     de4:	f8f43c23          	sd	a5,-104(s0)
     de8:	f4c42783          	lw	a5,-180(s0)
     dec:	04079063          	bnez	a5,e2c <handle_stats+0x554>
     df0:	f5c42703          	lw	a4,-164(s0)
     df4:	00371713          	slli	a4,a4,0x3
     df8:	a5818793          	addi	a5,gp,-1448
     dfc:	00f707b3          	add	a5,a4,a5
     e00:	0007b783          	ld	a5,0(a5)
     e04:	f9843703          	ld	a4,-104(s0)
     e08:	40f707b3          	sub	a5,a4,a5
     e0c:	f8f43c23          	sd	a5,-104(s0)
     e10:	f5c42703          	lw	a4,-164(s0)
     e14:	00371713          	slli	a4,a4,0x3
     e18:	ae818793          	addi	a5,gp,-1304
     e1c:	00f707b3          	add	a5,a4,a5
     e20:	0000a737          	lui	a4,0xa
     e24:	05870713          	addi	a4,a4,88 # a058 <strnlen+0x1f0>
     e28:	00e7b023          	sd	a4,0(a5)
     e2c:	f5c42783          	lw	a5,-164(s0)
     e30:	0017871b          	addiw	a4,a5,1
     e34:	f4e42e23          	sw	a4,-164(s0)
     e38:	00379713          	slli	a4,a5,0x3
     e3c:	a5818793          	addi	a5,gp,-1448
     e40:	00f707b3          	add	a5,a4,a5
     e44:	f9843703          	ld	a4,-104(s0)
     e48:	00e7b023          	sd	a4,0(a5)
     e4c:	f5c42703          	lw	a4,-164(s0)
     e50:	01100793          	li	a5,17
     e54:	fee7cce3          	blt	a5,a4,e4c <handle_stats+0x574>
     e58:	cc902573          	csrr	a0,0xcc9
     e5c:	00050793          	mv	a5,a0
     e60:	f8f43823          	sd	a5,-112(s0)
     e64:	f4c42783          	lw	a5,-180(s0)
     e68:	04079063          	bnez	a5,ea8 <handle_stats+0x5d0>
     e6c:	f5c42703          	lw	a4,-164(s0)
     e70:	00371713          	slli	a4,a4,0x3
     e74:	a5818793          	addi	a5,gp,-1448
     e78:	00f707b3          	add	a5,a4,a5
     e7c:	0007b783          	ld	a5,0(a5)
     e80:	f9043703          	ld	a4,-112(s0)
     e84:	40f707b3          	sub	a5,a4,a5
     e88:	f8f43823          	sd	a5,-112(s0)
     e8c:	f5c42703          	lw	a4,-164(s0)
     e90:	00371713          	slli	a4,a4,0x3
     e94:	ae818793          	addi	a5,gp,-1304
     e98:	00f707b3          	add	a5,a4,a5
     e9c:	0000a737          	lui	a4,0xa
     ea0:	06070713          	addi	a4,a4,96 # a060 <strnlen+0x1f8>
     ea4:	00e7b023          	sd	a4,0(a5)
     ea8:	f5c42783          	lw	a5,-164(s0)
     eac:	0017871b          	addiw	a4,a5,1
     eb0:	f4e42e23          	sw	a4,-164(s0)
     eb4:	00379713          	slli	a4,a5,0x3
     eb8:	a5818793          	addi	a5,gp,-1448
     ebc:	00f707b3          	add	a5,a4,a5
     ec0:	f9043703          	ld	a4,-112(s0)
     ec4:	00e7b023          	sd	a4,0(a5)
     ec8:	f5c42703          	lw	a4,-164(s0)
     ecc:	01100793          	li	a5,17
     ed0:	fee7cce3          	blt	a5,a4,ec8 <handle_stats+0x5f0>
     ed4:	cca02573          	csrr	a0,0xcca
     ed8:	00050793          	mv	a5,a0
     edc:	f8f43423          	sd	a5,-120(s0)
     ee0:	f4c42783          	lw	a5,-180(s0)
     ee4:	04079063          	bnez	a5,f24 <handle_stats+0x64c>
     ee8:	f5c42703          	lw	a4,-164(s0)
     eec:	00371713          	slli	a4,a4,0x3
     ef0:	a5818793          	addi	a5,gp,-1448
     ef4:	00f707b3          	add	a5,a4,a5
     ef8:	0007b783          	ld	a5,0(a5)
     efc:	f8843703          	ld	a4,-120(s0)
     f00:	40f707b3          	sub	a5,a4,a5
     f04:	f8f43423          	sd	a5,-120(s0)
     f08:	f5c42703          	lw	a4,-164(s0)
     f0c:	00371713          	slli	a4,a4,0x3
     f10:	ae818793          	addi	a5,gp,-1304
     f14:	00f707b3          	add	a5,a4,a5
     f18:	0000a737          	lui	a4,0xa
     f1c:	06870713          	addi	a4,a4,104 # a068 <strnlen+0x200>
     f20:	00e7b023          	sd	a4,0(a5)
     f24:	f5c42783          	lw	a5,-164(s0)
     f28:	0017871b          	addiw	a4,a5,1
     f2c:	f4e42e23          	sw	a4,-164(s0)
     f30:	00379713          	slli	a4,a5,0x3
     f34:	a5818793          	addi	a5,gp,-1448
     f38:	00f707b3          	add	a5,a4,a5
     f3c:	f8843703          	ld	a4,-120(s0)
     f40:	00e7b023          	sd	a4,0(a5)
     f44:	f5c42703          	lw	a4,-164(s0)
     f48:	01100793          	li	a5,17
     f4c:	fee7cce3          	blt	a5,a4,f44 <handle_stats+0x66c>
     f50:	ccb02573          	csrr	a0,0xccb
     f54:	00050793          	mv	a5,a0
     f58:	f8f43023          	sd	a5,-128(s0)
     f5c:	f4c42783          	lw	a5,-180(s0)
     f60:	04079063          	bnez	a5,fa0 <handle_stats+0x6c8>
     f64:	f5c42703          	lw	a4,-164(s0)
     f68:	00371713          	slli	a4,a4,0x3
     f6c:	a5818793          	addi	a5,gp,-1448
     f70:	00f707b3          	add	a5,a4,a5
     f74:	0007b783          	ld	a5,0(a5)
     f78:	f8043703          	ld	a4,-128(s0)
     f7c:	40f707b3          	sub	a5,a4,a5
     f80:	f8f43023          	sd	a5,-128(s0)
     f84:	f5c42703          	lw	a4,-164(s0)
     f88:	00371713          	slli	a4,a4,0x3
     f8c:	ae818793          	addi	a5,gp,-1304
     f90:	00f707b3          	add	a5,a4,a5
     f94:	0000a737          	lui	a4,0xa
     f98:	07070713          	addi	a4,a4,112 # a070 <strnlen+0x208>
     f9c:	00e7b023          	sd	a4,0(a5)
     fa0:	f5c42783          	lw	a5,-164(s0)
     fa4:	0017871b          	addiw	a4,a5,1
     fa8:	f4e42e23          	sw	a4,-164(s0)
     fac:	00379713          	slli	a4,a5,0x3
     fb0:	a5818793          	addi	a5,gp,-1448
     fb4:	00f707b3          	add	a5,a4,a5
     fb8:	f8043703          	ld	a4,-128(s0)
     fbc:	00e7b023          	sd	a4,0(a5)
     fc0:	f5c42703          	lw	a4,-164(s0)
     fc4:	01100793          	li	a5,17
     fc8:	fee7cce3          	blt	a5,a4,fc0 <handle_stats+0x6e8>
     fcc:	ccc02573          	csrr	a0,0xccc
     fd0:	00050793          	mv	a5,a0
     fd4:	f6f43c23          	sd	a5,-136(s0)
     fd8:	f4c42783          	lw	a5,-180(s0)
     fdc:	04079063          	bnez	a5,101c <handle_stats+0x744>
     fe0:	f5c42703          	lw	a4,-164(s0)
     fe4:	00371713          	slli	a4,a4,0x3
     fe8:	a5818793          	addi	a5,gp,-1448
     fec:	00f707b3          	add	a5,a4,a5
     ff0:	0007b783          	ld	a5,0(a5)
     ff4:	f7843703          	ld	a4,-136(s0)
     ff8:	40f707b3          	sub	a5,a4,a5
     ffc:	f6f43c23          	sd	a5,-136(s0)
    1000:	f5c42703          	lw	a4,-164(s0)
    1004:	00371713          	slli	a4,a4,0x3
    1008:	ae818793          	addi	a5,gp,-1304
    100c:	00f707b3          	add	a5,a4,a5
    1010:	0000a737          	lui	a4,0xa
    1014:	07870713          	addi	a4,a4,120 # a078 <strnlen+0x210>
    1018:	00e7b023          	sd	a4,0(a5)
    101c:	f5c42783          	lw	a5,-164(s0)
    1020:	0017871b          	addiw	a4,a5,1
    1024:	f4e42e23          	sw	a4,-164(s0)
    1028:	00379713          	slli	a4,a5,0x3
    102c:	a5818793          	addi	a5,gp,-1448
    1030:	00f707b3          	add	a5,a4,a5
    1034:	f7843703          	ld	a4,-136(s0)
    1038:	00e7b023          	sd	a4,0(a5)
    103c:	f5c42703          	lw	a4,-164(s0)
    1040:	01100793          	li	a5,17
    1044:	fee7cce3          	blt	a5,a4,103c <handle_stats+0x764>
    1048:	ccd02573          	csrr	a0,0xccd
    104c:	00050793          	mv	a5,a0
    1050:	f6f43823          	sd	a5,-144(s0)
    1054:	f4c42783          	lw	a5,-180(s0)
    1058:	04079063          	bnez	a5,1098 <handle_stats+0x7c0>
    105c:	f5c42703          	lw	a4,-164(s0)
    1060:	00371713          	slli	a4,a4,0x3
    1064:	a5818793          	addi	a5,gp,-1448
    1068:	00f707b3          	add	a5,a4,a5
    106c:	0007b783          	ld	a5,0(a5)
    1070:	f7043703          	ld	a4,-144(s0)
    1074:	40f707b3          	sub	a5,a4,a5
    1078:	f6f43823          	sd	a5,-144(s0)
    107c:	f5c42703          	lw	a4,-164(s0)
    1080:	00371713          	slli	a4,a4,0x3
    1084:	ae818793          	addi	a5,gp,-1304
    1088:	00f707b3          	add	a5,a4,a5
    108c:	0000a737          	lui	a4,0xa
    1090:	08070713          	addi	a4,a4,128 # a080 <strnlen+0x218>
    1094:	00e7b023          	sd	a4,0(a5)
    1098:	f5c42783          	lw	a5,-164(s0)
    109c:	0017871b          	addiw	a4,a5,1
    10a0:	f4e42e23          	sw	a4,-164(s0)
    10a4:	00379713          	slli	a4,a5,0x3
    10a8:	a5818793          	addi	a5,gp,-1448
    10ac:	00f707b3          	add	a5,a4,a5
    10b0:	f7043703          	ld	a4,-144(s0)
    10b4:	00e7b023          	sd	a4,0(a5)
    10b8:	f5c42703          	lw	a4,-164(s0)
    10bc:	01100793          	li	a5,17
    10c0:	fee7cce3          	blt	a5,a4,10b8 <handle_stats+0x7e0>
    10c4:	cce02573          	csrr	a0,0xcce
    10c8:	00050793          	mv	a5,a0
    10cc:	f6f43423          	sd	a5,-152(s0)
    10d0:	f4c42783          	lw	a5,-180(s0)
    10d4:	04079063          	bnez	a5,1114 <handle_stats+0x83c>
    10d8:	f5c42703          	lw	a4,-164(s0)
    10dc:	00371713          	slli	a4,a4,0x3
    10e0:	a5818793          	addi	a5,gp,-1448
    10e4:	00f707b3          	add	a5,a4,a5
    10e8:	0007b783          	ld	a5,0(a5)
    10ec:	f6843703          	ld	a4,-152(s0)
    10f0:	40f707b3          	sub	a5,a4,a5
    10f4:	f6f43423          	sd	a5,-152(s0)
    10f8:	f5c42703          	lw	a4,-164(s0)
    10fc:	00371713          	slli	a4,a4,0x3
    1100:	ae818793          	addi	a5,gp,-1304
    1104:	00f707b3          	add	a5,a4,a5
    1108:	0000a737          	lui	a4,0xa
    110c:	08870713          	addi	a4,a4,136 # a088 <strnlen+0x220>
    1110:	00e7b023          	sd	a4,0(a5)
    1114:	f5c42783          	lw	a5,-164(s0)
    1118:	0017871b          	addiw	a4,a5,1
    111c:	f4e42e23          	sw	a4,-164(s0)
    1120:	00379713          	slli	a4,a5,0x3
    1124:	a5818793          	addi	a5,gp,-1448
    1128:	00f707b3          	add	a5,a4,a5
    112c:	f6843703          	ld	a4,-152(s0)
    1130:	00e7b023          	sd	a4,0(a5)
    1134:	f5c42703          	lw	a4,-164(s0)
    1138:	01100793          	li	a5,17
    113c:	fee7cce3          	blt	a5,a4,1134 <handle_stats+0x85c>
    1140:	ccf02573          	csrr	a0,0xccf
    1144:	00050793          	mv	a5,a0
    1148:	f6f43023          	sd	a5,-160(s0)
    114c:	f4c42783          	lw	a5,-180(s0)
    1150:	04079063          	bnez	a5,1190 <handle_stats+0x8b8>
    1154:	f5c42703          	lw	a4,-164(s0)
    1158:	00371713          	slli	a4,a4,0x3
    115c:	a5818793          	addi	a5,gp,-1448
    1160:	00f707b3          	add	a5,a4,a5
    1164:	0007b783          	ld	a5,0(a5)
    1168:	f6043703          	ld	a4,-160(s0)
    116c:	40f707b3          	sub	a5,a4,a5
    1170:	f6f43023          	sd	a5,-160(s0)
    1174:	f5c42703          	lw	a4,-164(s0)
    1178:	00371713          	slli	a4,a4,0x3
    117c:	ae818793          	addi	a5,gp,-1304
    1180:	00f707b3          	add	a5,a4,a5
    1184:	0000a737          	lui	a4,0xa
    1188:	09070713          	addi	a4,a4,144 # a090 <strnlen+0x228>
    118c:	00e7b023          	sd	a4,0(a5)
    1190:	f5c42783          	lw	a5,-164(s0)
    1194:	0017871b          	addiw	a4,a5,1
    1198:	f4e42e23          	sw	a4,-164(s0)
    119c:	00379713          	slli	a4,a5,0x3
    11a0:	a5818793          	addi	a5,gp,-1448
    11a4:	00f707b3          	add	a5,a4,a5
    11a8:	f6043703          	ld	a4,-160(s0)
    11ac:	00e7b023          	sd	a4,0(a5)
    11b0:	f4c42783          	lw	a5,-180(s0)
    11b4:	00079463          	bnez	a5,11bc <handle_stats+0x8e4>
    11b8:	0c00f573          	csrrci	a0,0xc0,1
    11bc:	00000793          	li	a5,0
    11c0:	00078513          	mv	a0,a5
    11c4:	0b813403          	ld	s0,184(sp)
    11c8:	0c010113          	addi	sp,sp,192
    11cc:	00008067          	ret

00000000000011d0 <tohost_exit>:
    11d0:	fb010113          	addi	sp,sp,-80
    11d4:	04113423          	sd	ra,72(sp)
    11d8:	04813023          	sd	s0,64(sp)
    11dc:	05010413          	addi	s0,sp,80
    11e0:	faa43c23          	sd	a0,-72(s0)
    11e4:	fb843783          	ld	a5,-72(s0)
    11e8:	0c078463          	beqz	a5,12b0 <tohost_exit+0xe0>
    11ec:	0000a7b7          	lui	a5,0xa
    11f0:	0987b703          	ld	a4,152(a5) # a098 <strnlen+0x230>
    11f4:	fce43423          	sd	a4,-56(s0)
    11f8:	09878713          	addi	a4,a5,152
    11fc:	00873703          	ld	a4,8(a4)
    1200:	fce43823          	sd	a4,-48(s0)
    1204:	09878713          	addi	a4,a5,152
    1208:	01073703          	ld	a4,16(a4)
    120c:	fce43c23          	sd	a4,-40(s0)
    1210:	09878713          	addi	a4,a5,152
    1214:	01873703          	ld	a4,24(a4)
    1218:	fee43023          	sd	a4,-32(s0)
    121c:	09878793          	addi	a5,a5,152
    1220:	0207c783          	lbu	a5,32(a5)
    1224:	fef40423          	sb	a5,-24(s0)
    1228:	fe042623          	sw	zero,-20(s0)
    122c:	06c0006f          	j	1298 <tohost_exit+0xc8>
    1230:	01d00713          	li	a4,29
    1234:	fec42783          	lw	a5,-20(s0)
    1238:	40f7063b          	subw	a2,a4,a5
    123c:	fb843783          	ld	a5,-72(s0)
    1240:	0ff7f793          	andi	a5,a5,255
    1244:	00f7f793          	andi	a5,a5,15
    1248:	0ff7f713          	andi	a4,a5,255
    124c:	fb843783          	ld	a5,-72(s0)
    1250:	00f7f693          	andi	a3,a5,15
    1254:	00900793          	li	a5,9
    1258:	00d7c663          	blt	a5,a3,1264 <tohost_exit+0x94>
    125c:	03000793          	li	a5,48
    1260:	0080006f          	j	1268 <tohost_exit+0x98>
    1264:	05700793          	li	a5,87
    1268:	00f707bb          	addw	a5,a4,a5
    126c:	0ff7f713          	andi	a4,a5,255
    1270:	00060793          	mv	a5,a2
    1274:	ff040693          	addi	a3,s0,-16
    1278:	00f687b3          	add	a5,a3,a5
    127c:	fce78c23          	sb	a4,-40(a5)
    1280:	fb843783          	ld	a5,-72(s0)
    1284:	4047d793          	srai	a5,a5,0x4
    1288:	faf43c23          	sd	a5,-72(s0)
    128c:	fec42783          	lw	a5,-20(s0)
    1290:	0017879b          	addiw	a5,a5,1
    1294:	fef42623          	sw	a5,-20(s0)
    1298:	fec42703          	lw	a4,-20(s0)
    129c:	00f00793          	li	a5,15
    12a0:	f8e7d8e3          	ble	a4,a5,1230 <tohost_exit+0x60>
    12a4:	fc840793          	addi	a5,s0,-56
    12a8:	00078513          	mv	a0,a5
    12ac:	380010ef          	jal	ra,262c <uart_send_string>
    12b0:	0000006f          	j	12b0 <tohost_exit+0xe0>

00000000000012b4 <handle_trap>:
    12b4:	fc010113          	addi	sp,sp,-64
    12b8:	02113c23          	sd	ra,56(sp)
    12bc:	02813823          	sd	s0,48(sp)
    12c0:	04010413          	addi	s0,sp,64
    12c4:	fca43c23          	sd	a0,-40(s0)
    12c8:	fcb43823          	sd	a1,-48(s0)
    12cc:	fcc43423          	sd	a2,-56(s0)
    12d0:	008007ef          	jal	a5,12d8 <handle_trap+0x24>
    12d4:	0c002573          	csrr	a0,0xc0
    12d8:	fef43023          	sd	a5,-32(s0)
    12dc:	fe043423          	sd	zero,-24(s0)
    12e0:	fd843703          	ld	a4,-40(s0)
    12e4:	00200793          	li	a5,2
    12e8:	02f71263          	bne	a4,a5,130c <handle_trap+0x58>
    12ec:	fd043783          	ld	a5,-48(s0)
    12f0:	0007a703          	lw	a4,0(a5)
    12f4:	fe043783          	ld	a5,-32(s0)
    12f8:	0007a783          	lw	a5,0(a5)
    12fc:	00f77733          	and	a4,a4,a5
    1300:	fe043783          	ld	a5,-32(s0)
    1304:	0007a783          	lw	a5,0(a5)
    1308:	40f70263          	beq	a4,a5,170c <handle_trap+0x458>
    130c:	fd843703          	ld	a4,-40(s0)
    1310:	00800793          	li	a5,8
    1314:	0ef70063          	beq	a4,a5,13f4 <handle_trap+0x140>
    1318:	fd843603          	ld	a2,-40(s0)
    131c:	0000a7b7          	lui	a5,0xa
    1320:	0c078593          	addi	a1,a5,192 # a0c0 <strnlen+0x258>
    1324:	b7818513          	addi	a0,gp,-1160
    1328:	6ed000ef          	jal	ra,2214 <sprintf>
    132c:	b7818513          	addi	a0,gp,-1160
    1330:	2fc010ef          	jal	ra,262c <uart_send_string>
    1334:	fd043603          	ld	a2,-48(s0)
    1338:	0000a7b7          	lui	a5,0xa
    133c:	0d078593          	addi	a1,a5,208 # a0d0 <strnlen+0x268>
    1340:	b7818513          	addi	a0,gp,-1160
    1344:	6d1000ef          	jal	ra,2214 <sprintf>
    1348:	b7818513          	addi	a0,gp,-1160
    134c:	2e0010ef          	jal	ra,262c <uart_send_string>
    1350:	34302573          	csrr	a0,mbadaddr
    1354:	00050793          	mv	a5,a0
    1358:	00078613          	mv	a2,a5
    135c:	0000a7b7          	lui	a5,0xa
    1360:	0e078593          	addi	a1,a5,224 # a0e0 <strnlen+0x278>
    1364:	b7818513          	addi	a0,gp,-1160
    1368:	6ad000ef          	jal	ra,2214 <sprintf>
    136c:	b7818513          	addi	a0,gp,-1160
    1370:	2bc010ef          	jal	ra,262c <uart_send_string>
    1374:	fd043783          	ld	a5,-48(s0)
    1378:	0007a783          	lw	a5,0(a5)
    137c:	00078613          	mv	a2,a5
    1380:	0000a7b7          	lui	a5,0xa
    1384:	0f078593          	addi	a1,a5,240 # a0f0 <strnlen+0x288>
    1388:	b7818513          	addi	a0,gp,-1160
    138c:	689000ef          	jal	ra,2214 <sprintf>
    1390:	b7818513          	addi	a0,gp,-1160
    1394:	298010ef          	jal	ra,262c <uart_send_string>
    1398:	fc843783          	ld	a5,-56(s0)
    139c:	01078793          	addi	a5,a5,16
    13a0:	0007b783          	ld	a5,0(a5)
    13a4:	00078613          	mv	a2,a5
    13a8:	0000a7b7          	lui	a5,0xa
    13ac:	10078593          	addi	a1,a5,256 # a100 <strnlen+0x298>
    13b0:	b7818513          	addi	a0,gp,-1160
    13b4:	661000ef          	jal	ra,2214 <sprintf>
    13b8:	b7818513          	addi	a0,gp,-1160
    13bc:	270010ef          	jal	ra,262c <uart_send_string>
    13c0:	fc843783          	ld	a5,-56(s0)
    13c4:	02078793          	addi	a5,a5,32
    13c8:	0007b783          	ld	a5,0(a5)
    13cc:	00078613          	mv	a2,a5
    13d0:	0000a7b7          	lui	a5,0xa
    13d4:	10878593          	addi	a1,a5,264 # a108 <strnlen+0x2a0>
    13d8:	b7818513          	addi	a0,gp,-1160
    13dc:	639000ef          	jal	ra,2214 <sprintf>
    13e0:	b7818513          	addi	a0,gp,-1160
    13e4:	248010ef          	jal	ra,262c <uart_send_string>
    13e8:	53900513          	li	a0,1337
    13ec:	de5ff0ef          	jal	ra,11d0 <tohost_exit>
    13f0:	31c0006f          	j	170c <handle_trap+0x458>
    13f4:	fc843783          	ld	a5,-56(s0)
    13f8:	08878793          	addi	a5,a5,136
    13fc:	0007b703          	ld	a4,0(a5)
    1400:	000127b7          	lui	a5,0x12
    1404:	20078793          	addi	a5,a5,512 # 12200 <_gp+0x6848>
    1408:	00f77733          	and	a4,a4,a5
    140c:	000127b7          	lui	a5,0x12
    1410:	20078793          	addi	a5,a5,512 # 12200 <_gp+0x6848>
    1414:	0ef71663          	bne	a4,a5,1500 <handle_trap+0x24c>
    1418:	fc843783          	ld	a5,-56(s0)
    141c:	08878793          	addi	a5,a5,136
    1420:	0007b783          	ld	a5,0(a5)
    1424:	0077f793          	andi	a5,a5,7
    1428:	00100713          	li	a4,1
    142c:	04e78863          	beq	a5,a4,147c <handle_trap+0x1c8>
    1430:	00100713          	li	a4,1
    1434:	00f74663          	blt	a4,a5,1440 <handle_trap+0x18c>
    1438:	00078e63          	beqz	a5,1454 <handle_trap+0x1a0>
    143c:	0b80006f          	j	14f4 <handle_trap+0x240>
    1440:	00200713          	li	a4,2
    1444:	06e78063          	beq	a5,a4,14a4 <handle_trap+0x1f0>
    1448:	00300713          	li	a4,3
    144c:	08e78063          	beq	a5,a4,14cc <handle_trap+0x218>
    1450:	0a40006f          	j	14f4 <handle_trap+0x240>
    1454:	fc843783          	ld	a5,-56(s0)
    1458:	05078793          	addi	a5,a5,80
    145c:	0007b703          	ld	a4,0(a5)
    1460:	fc843783          	ld	a5,-56(s0)
    1464:	05878793          	addi	a5,a5,88
    1468:	0007b783          	ld	a5,0(a5)
    146c:	00078593          	mv	a1,a5
    1470:	00070513          	mv	a0,a4
    1474:	824ff0ef          	jal	ra,498 <asm_set_iobase0>
    1478:	2940006f          	j	170c <handle_trap+0x458>
    147c:	fc843783          	ld	a5,-56(s0)
    1480:	05078793          	addi	a5,a5,80
    1484:	0007b703          	ld	a4,0(a5)
    1488:	fc843783          	ld	a5,-56(s0)
    148c:	05878793          	addi	a5,a5,88
    1490:	0007b783          	ld	a5,0(a5)
    1494:	00078593          	mv	a1,a5
    1498:	00070513          	mv	a0,a4
    149c:	808ff0ef          	jal	ra,4a4 <asm_set_iobase1>
    14a0:	26c0006f          	j	170c <handle_trap+0x458>
    14a4:	fc843783          	ld	a5,-56(s0)
    14a8:	05078793          	addi	a5,a5,80
    14ac:	0007b703          	ld	a4,0(a5)
    14b0:	fc843783          	ld	a5,-56(s0)
    14b4:	05878793          	addi	a5,a5,88
    14b8:	0007b783          	ld	a5,0(a5)
    14bc:	00078593          	mv	a1,a5
    14c0:	00070513          	mv	a0,a4
    14c4:	fedfe0ef          	jal	ra,4b0 <asm_set_iobase2>
    14c8:	2440006f          	j	170c <handle_trap+0x458>
    14cc:	fc843783          	ld	a5,-56(s0)
    14d0:	05078793          	addi	a5,a5,80
    14d4:	0007b703          	ld	a4,0(a5)
    14d8:	fc843783          	ld	a5,-56(s0)
    14dc:	05878793          	addi	a5,a5,88
    14e0:	0007b783          	ld	a5,0(a5)
    14e4:	00078593          	mv	a1,a5
    14e8:	00070513          	mv	a0,a4
    14ec:	fd1fe0ef          	jal	ra,4bc <asm_set_iobase3>
    14f0:	21c0006f          	j	170c <handle_trap+0x458>
    14f4:	fd5fe0ef          	jal	ra,4c8 <asm_update_iospace>
    14f8:	00000013          	nop
    14fc:	2100006f          	j	170c <handle_trap+0x458>
    1500:	fc843783          	ld	a5,-56(s0)
    1504:	08878793          	addi	a5,a5,136
    1508:	0007b703          	ld	a4,0(a5)
    150c:	000027b7          	lui	a5,0x2
    1510:	10078793          	addi	a5,a5,256 # 2100 <vprintfmt+0x380>
    1514:	00f77733          	and	a4,a4,a5
    1518:	000027b7          	lui	a5,0x2
    151c:	10078793          	addi	a5,a5,256 # 2100 <vprintfmt+0x380>
    1520:	12f71663          	bne	a4,a5,164c <handle_trap+0x398>
    1524:	fc843783          	ld	a5,-56(s0)
    1528:	08878793          	addi	a5,a5,136
    152c:	0007b783          	ld	a5,0(a5)
    1530:	0077f793          	andi	a5,a5,7
    1534:	00100713          	li	a4,1
    1538:	06e78063          	beq	a5,a4,1598 <handle_trap+0x2e4>
    153c:	00100713          	li	a4,1
    1540:	00f74663          	blt	a4,a5,154c <handle_trap+0x298>
    1544:	00078e63          	beqz	a5,1560 <handle_trap+0x2ac>
    1548:	0f80006f          	j	1640 <handle_trap+0x38c>
    154c:	00200713          	li	a4,2
    1550:	08e78063          	beq	a5,a4,15d0 <handle_trap+0x31c>
    1554:	00300713          	li	a4,3
    1558:	0ae78863          	beq	a5,a4,1608 <handle_trap+0x354>
    155c:	0e40006f          	j	1640 <handle_trap+0x38c>
    1560:	fc843783          	ld	a5,-56(s0)
    1564:	05078793          	addi	a5,a5,80
    1568:	0007b703          	ld	a4,0(a5)
    156c:	fc843783          	ld	a5,-56(s0)
    1570:	05878793          	addi	a5,a5,88
    1574:	0007b683          	ld	a3,0(a5)
    1578:	fc843783          	ld	a5,-56(s0)
    157c:	06078793          	addi	a5,a5,96
    1580:	0007b783          	ld	a5,0(a5)
    1584:	00078613          	mv	a2,a5
    1588:	00068593          	mv	a1,a3
    158c:	00070513          	mv	a0,a4
    1590:	f41fe0ef          	jal	ra,4d0 <asm_set_membase0>
    1594:	1780006f          	j	170c <handle_trap+0x458>
    1598:	fc843783          	ld	a5,-56(s0)
    159c:	05078793          	addi	a5,a5,80
    15a0:	0007b703          	ld	a4,0(a5)
    15a4:	fc843783          	ld	a5,-56(s0)
    15a8:	05878793          	addi	a5,a5,88
    15ac:	0007b683          	ld	a3,0(a5)
    15b0:	fc843783          	ld	a5,-56(s0)
    15b4:	06078793          	addi	a5,a5,96
    15b8:	0007b783          	ld	a5,0(a5)
    15bc:	00078613          	mv	a2,a5
    15c0:	00068593          	mv	a1,a3
    15c4:	00070513          	mv	a0,a4
    15c8:	f19fe0ef          	jal	ra,4e0 <asm_set_membase1>
    15cc:	1400006f          	j	170c <handle_trap+0x458>
    15d0:	fc843783          	ld	a5,-56(s0)
    15d4:	05078793          	addi	a5,a5,80
    15d8:	0007b703          	ld	a4,0(a5)
    15dc:	fc843783          	ld	a5,-56(s0)
    15e0:	05878793          	addi	a5,a5,88
    15e4:	0007b683          	ld	a3,0(a5)
    15e8:	fc843783          	ld	a5,-56(s0)
    15ec:	06078793          	addi	a5,a5,96
    15f0:	0007b783          	ld	a5,0(a5)
    15f4:	00078613          	mv	a2,a5
    15f8:	00068593          	mv	a1,a3
    15fc:	00070513          	mv	a0,a4
    1600:	ef1fe0ef          	jal	ra,4f0 <asm_set_membase2>
    1604:	1080006f          	j	170c <handle_trap+0x458>
    1608:	fc843783          	ld	a5,-56(s0)
    160c:	05078793          	addi	a5,a5,80
    1610:	0007b703          	ld	a4,0(a5)
    1614:	fc843783          	ld	a5,-56(s0)
    1618:	05878793          	addi	a5,a5,88
    161c:	0007b683          	ld	a3,0(a5)
    1620:	fc843783          	ld	a5,-56(s0)
    1624:	06078793          	addi	a5,a5,96
    1628:	0007b783          	ld	a5,0(a5)
    162c:	00078613          	mv	a2,a5
    1630:	00068593          	mv	a1,a3
    1634:	00070513          	mv	a0,a4
    1638:	ec9fe0ef          	jal	ra,500 <asm_set_membase3>
    163c:	0d00006f          	j	170c <handle_trap+0x458>
    1640:	ed1fe0ef          	jal	ra,510 <asm_update_memspace>
    1644:	00000013          	nop
    1648:	0c40006f          	j	170c <handle_trap+0x458>
    164c:	fc843783          	ld	a5,-56(s0)
    1650:	08878793          	addi	a5,a5,136
    1654:	0007b703          	ld	a4,0(a5)
    1658:	05d00793          	li	a5,93
    165c:	00f71e63          	bne	a4,a5,1678 <handle_trap+0x3c4>
    1660:	fc843783          	ld	a5,-56(s0)
    1664:	05078793          	addi	a5,a5,80
    1668:	0007b783          	ld	a5,0(a5)
    166c:	00078513          	mv	a0,a5
    1670:	b61ff0ef          	jal	ra,11d0 <tohost_exit>
    1674:	0980006f          	j	170c <handle_trap+0x458>
    1678:	fc843783          	ld	a5,-56(s0)
    167c:	08878793          	addi	a5,a5,136
    1680:	0007b703          	ld	a4,0(a5)
    1684:	4d200793          	li	a5,1234
    1688:	02f71463          	bne	a4,a5,16b0 <handle_trap+0x3fc>
    168c:	fc843783          	ld	a5,-56(s0)
    1690:	05078793          	addi	a5,a5,80
    1694:	0007b783          	ld	a5,0(a5)
    1698:	0007879b          	sext.w	a5,a5
    169c:	00078513          	mv	a0,a5
    16a0:	a38ff0ef          	jal	ra,8d8 <handle_stats>
    16a4:	00050793          	mv	a5,a0
    16a8:	fef43423          	sd	a5,-24(s0)
    16ac:	0600006f          	j	170c <handle_trap+0x458>
    16b0:	fc843783          	ld	a5,-56(s0)
    16b4:	08878793          	addi	a5,a5,136
    16b8:	0007b703          	ld	a4,0(a5)
    16bc:	26900793          	li	a5,617
    16c0:	00f71663          	bne	a4,a5,16cc <handle_trap+0x418>
    16c4:	e7dfe0ef          	jal	ra,540 <asm_soft_reset>
    16c8:	0440006f          	j	170c <handle_trap+0x458>
    16cc:	fc843783          	ld	a5,-56(s0)
    16d0:	08878793          	addi	a5,a5,136
    16d4:	0007b703          	ld	a4,0(a5)
    16d8:	fc843783          	ld	a5,-56(s0)
    16dc:	05078793          	addi	a5,a5,80
    16e0:	0007b583          	ld	a1,0(a5)
    16e4:	fc843783          	ld	a5,-56(s0)
    16e8:	05878793          	addi	a5,a5,88
    16ec:	0007b603          	ld	a2,0(a5)
    16f0:	fc843783          	ld	a5,-56(s0)
    16f4:	06078793          	addi	a5,a5,96
    16f8:	0007b783          	ld	a5,0(a5)
    16fc:	00078693          	mv	a3,a5
    1700:	00070513          	mv	a0,a4
    1704:	968ff0ef          	jal	ra,86c <handle_frontend_syscall>
    1708:	fea43423          	sd	a0,-24(s0)
    170c:	fc843783          	ld	a5,-56(s0)
    1710:	05078793          	addi	a5,a5,80
    1714:	fe843703          	ld	a4,-24(s0)
    1718:	00e7b023          	sd	a4,0(a5)
    171c:	fd043783          	ld	a5,-48(s0)
    1720:	00478793          	addi	a5,a5,4
    1724:	00078513          	mv	a0,a5
    1728:	03813083          	ld	ra,56(sp)
    172c:	03013403          	ld	s0,48(sp)
    1730:	04010113          	addi	sp,sp,64
    1734:	00008067          	ret

0000000000001738 <syscall>:
    1738:	fd010113          	addi	sp,sp,-48
    173c:	02813423          	sd	s0,40(sp)
    1740:	03010413          	addi	s0,sp,48
    1744:	fea43423          	sd	a0,-24(s0)
    1748:	feb43023          	sd	a1,-32(s0)
    174c:	fcc43c23          	sd	a2,-40(s0)
    1750:	fcd43823          	sd	a3,-48(s0)
    1754:	fe843883          	ld	a7,-24(s0)
    1758:	fe043503          	ld	a0,-32(s0)
    175c:	fd843583          	ld	a1,-40(s0)
    1760:	fd043603          	ld	a2,-48(s0)
    1764:	00000073          	ecall
    1768:	00050793          	mv	a5,a0
    176c:	00078513          	mv	a0,a5
    1770:	02813403          	ld	s0,40(sp)
    1774:	03010113          	addi	sp,sp,48
    1778:	00008067          	ret

000000000000177c <exit>:
    177c:	fe010113          	addi	sp,sp,-32
    1780:	00113c23          	sd	ra,24(sp)
    1784:	00813823          	sd	s0,16(sp)
    1788:	02010413          	addi	s0,sp,32
    178c:	fea42623          	sw	a0,-20(s0)
    1790:	fec42783          	lw	a5,-20(s0)
    1794:	00000693          	li	a3,0
    1798:	00000613          	li	a2,0
    179c:	00078593          	mv	a1,a5
    17a0:	05d00513          	li	a0,93
    17a4:	f95ff0ef          	jal	ra,1738 <syscall>
    17a8:	0000006f          	j	17a8 <exit+0x2c>

00000000000017ac <setStats>:
    17ac:	fe010113          	addi	sp,sp,-32
    17b0:	00113c23          	sd	ra,24(sp)
    17b4:	00813823          	sd	s0,16(sp)
    17b8:	02010413          	addi	s0,sp,32
    17bc:	fea42623          	sw	a0,-20(s0)
    17c0:	fec42783          	lw	a5,-20(s0)
    17c4:	00000693          	li	a3,0
    17c8:	00000613          	li	a2,0
    17cc:	00078593          	mv	a1,a5
    17d0:	4d200513          	li	a0,1234
    17d4:	f65ff0ef          	jal	ra,1738 <syscall>
    17d8:	00000013          	nop
    17dc:	01813083          	ld	ra,24(sp)
    17e0:	01013403          	ld	s0,16(sp)
    17e4:	02010113          	addi	sp,sp,32
    17e8:	00008067          	ret

00000000000017ec <printstr>:
    17ec:	fd010113          	addi	sp,sp,-48
    17f0:	02113423          	sd	ra,40(sp)
    17f4:	02813023          	sd	s0,32(sp)
    17f8:	00913c23          	sd	s1,24(sp)
    17fc:	03010413          	addi	s0,sp,48
    1800:	fca43c23          	sd	a0,-40(s0)
    1804:	fd843483          	ld	s1,-40(s0)
    1808:	fd843503          	ld	a0,-40(s0)
    180c:	590080ef          	jal	ra,9d9c <strlen>
    1810:	00050793          	mv	a5,a0
    1814:	00078693          	mv	a3,a5
    1818:	00048613          	mv	a2,s1
    181c:	00100593          	li	a1,1
    1820:	04000513          	li	a0,64
    1824:	f15ff0ef          	jal	ra,1738 <syscall>
    1828:	00000013          	nop
    182c:	02813083          	ld	ra,40(sp)
    1830:	02013403          	ld	s0,32(sp)
    1834:	01813483          	ld	s1,24(sp)
    1838:	03010113          	addi	sp,sp,48
    183c:	00008067          	ret

0000000000001840 <thread_entry>:
    1840:	fe010113          	addi	sp,sp,-32
    1844:	00813c23          	sd	s0,24(sp)
    1848:	02010413          	addi	s0,sp,32
    184c:	fea42623          	sw	a0,-20(s0)
    1850:	feb42423          	sw	a1,-24(s0)
    1854:	fec42783          	lw	a5,-20(s0)
    1858:	fe079ee3          	bnez	a5,1854 <thread_entry+0x14>
    185c:	00000013          	nop
    1860:	01813403          	ld	s0,24(sp)
    1864:	02010113          	addi	sp,sp,32
    1868:	00008067          	ret
    186c:	fe010113          	addi	sp,sp,-32
    1870:	00113c23          	sd	ra,24(sp)
    1874:	00813823          	sd	s0,16(sp)
    1878:	02010413          	addi	s0,sp,32
    187c:	fea42623          	sw	a0,-20(s0)
    1880:	feb43023          	sd	a1,-32(s0)
    1884:	0000a7b7          	lui	a5,0xa
    1888:	11078513          	addi	a0,a5,272 # a110 <strnlen+0x2a8>
    188c:	f61ff0ef          	jal	ra,17ec <printstr>
    1890:	fff00793          	li	a5,-1
    1894:	00078513          	mv	a0,a5
    1898:	01813083          	ld	ra,24(sp)
    189c:	01013403          	ld	s0,16(sp)
    18a0:	02010113          	addi	sp,sp,32
    18a4:	00008067          	ret

00000000000018a8 <init_tls>:
    18a8:	fe010113          	addi	sp,sp,-32
    18ac:	00113c23          	sd	ra,24(sp)
    18b0:	00813823          	sd	s0,16(sp)
    18b4:	02010413          	addi	s0,sp,32
    18b8:	00020713          	mv	a4,tp
    18bc:	00020793          	mv	a5,tp
    18c0:	40f707b3          	sub	a5,a4,a5
    18c4:	fef43423          	sd	a5,-24(s0)
    18c8:	00020713          	mv	a4,tp
    18cc:	fe843603          	ld	a2,-24(s0)
    18d0:	cc818593          	addi	a1,gp,-824
    18d4:	00070513          	mv	a0,a4
    18d8:	2c8080ef          	jal	ra,9ba0 <memcpy>
    18dc:	04420713          	addi	a4,tp,68 # 44 <_tbss_end>
    18e0:	00020793          	mv	a5,tp
    18e4:	40f707b3          	sub	a5,a4,a5
    18e8:	fef43023          	sd	a5,-32(s0)
    18ec:	00020713          	mv	a4,tp
    18f0:	fe843783          	ld	a5,-24(s0)
    18f4:	00f707b3          	add	a5,a4,a5
    18f8:	fe043603          	ld	a2,-32(s0)
    18fc:	00000593          	li	a1,0
    1900:	00078513          	mv	a0,a5
    1904:	3bc080ef          	jal	ra,9cc0 <memset>
    1908:	00000013          	nop
    190c:	01813083          	ld	ra,24(sp)
    1910:	01013403          	ld	s0,16(sp)
    1914:	02010113          	addi	sp,sp,32
    1918:	00008067          	ret

000000000000191c <_init>:
    191c:	fc010113          	addi	sp,sp,-64
    1920:	02113c23          	sd	ra,56(sp)
    1924:	02813823          	sd	s0,48(sp)
    1928:	02913423          	sd	s1,40(sp)
    192c:	04010413          	addi	s0,sp,64
    1930:	fca42623          	sw	a0,-52(s0)
    1934:	fcb42423          	sw	a1,-56(s0)
    1938:	d8010113          	addi	sp,sp,-640
    193c:	00010793          	mv	a5,sp
    1940:	03f78793          	addi	a5,a5,63
    1944:	0067d793          	srli	a5,a5,0x6
    1948:	00679493          	slli	s1,a5,0x6
    194c:	f5dff0ef          	jal	ra,18a8 <init_tls>
    1950:	fc842583          	lw	a1,-56(s0)
    1954:	fcc42503          	lw	a0,-52(s0)
    1958:	ee9ff0ef          	jal	ra,1840 <thread_entry>
    195c:	00000593          	li	a1,0
    1960:	00000513          	li	a0,0
    1964:	bf5fe0ef          	jal	ra,558 <main>
    1968:	fca42823          	sw	a0,-48(s0)
    196c:	fc943c23          	sd	s1,-40(s0)
    1970:	fc042a23          	sw	zero,-44(s0)
    1974:	0740006f          	j	19e8 <_init+0xcc>
    1978:	fd442703          	lw	a4,-44(s0)
    197c:	00371713          	slli	a4,a4,0x3
    1980:	a5818793          	addi	a5,gp,-1448
    1984:	00f707b3          	add	a5,a4,a5
    1988:	0007b783          	ld	a5,0(a5)
    198c:	04078863          	beqz	a5,19dc <_init+0xc0>
    1990:	fd442703          	lw	a4,-44(s0)
    1994:	00371713          	slli	a4,a4,0x3
    1998:	ae818793          	addi	a5,gp,-1304
    199c:	00f707b3          	add	a5,a4,a5
    19a0:	0007b603          	ld	a2,0(a5)
    19a4:	fd442703          	lw	a4,-44(s0)
    19a8:	00371713          	slli	a4,a4,0x3
    19ac:	a5818793          	addi	a5,gp,-1448
    19b0:	00f707b3          	add	a5,a4,a5
    19b4:	0007b783          	ld	a5,0(a5)
    19b8:	00078693          	mv	a3,a5
    19bc:	0000a7b7          	lui	a5,0xa
    19c0:	12878593          	addi	a1,a5,296 # a128 <strnlen+0x2c0>
    19c4:	fd843503          	ld	a0,-40(s0)
    19c8:	04d000ef          	jal	ra,2214 <sprintf>
    19cc:	00050793          	mv	a5,a0
    19d0:	fd843703          	ld	a4,-40(s0)
    19d4:	00f707b3          	add	a5,a4,a5
    19d8:	fcf43c23          	sd	a5,-40(s0)
    19dc:	fd442783          	lw	a5,-44(s0)
    19e0:	0017879b          	addiw	a5,a5,1
    19e4:	fcf42a23          	sw	a5,-44(s0)
    19e8:	fd442703          	lw	a4,-44(s0)
    19ec:	01100793          	li	a5,17
    19f0:	f8e7d4e3          	ble	a4,a5,1978 <_init+0x5c>
    19f4:	fd843783          	ld	a5,-40(s0)
    19f8:	00f48663          	beq	s1,a5,1a04 <_init+0xe8>
    19fc:	00048513          	mv	a0,s1
    1a00:	dedff0ef          	jal	ra,17ec <printstr>
    1a04:	fd042503          	lw	a0,-48(s0)
    1a08:	d75ff0ef          	jal	ra,177c <exit>

0000000000001a0c <putchar>:
    1a0c:	fe010113          	addi	sp,sp,-32
    1a10:	00113c23          	sd	ra,24(sp)
    1a14:	00813823          	sd	s0,16(sp)
    1a18:	02010413          	addi	s0,sp,32
    1a1c:	fea42623          	sw	a0,-20(s0)
    1a20:	04022783          	lw	a5,64(tp) # 40 <buflen.2856>
    1a24:	0017869b          	addiw	a3,a5,1
    1a28:	04d22023          	sw	a3,64(tp) # 40 <buflen.2856>
    1a2c:	fec42703          	lw	a4,-20(s0)
    1a30:	0ff77713          	andi	a4,a4,255
    1a34:	00078693          	mv	a3,a5
    1a38:	00020793          	mv	a5,tp
    1a3c:	00f687b3          	add	a5,a3,a5
    1a40:	00e78023          	sb	a4,0(a5)
    1a44:	fec42703          	lw	a4,-20(s0)
    1a48:	00a00793          	li	a5,10
    1a4c:	00f70863          	beq	a4,a5,1a5c <putchar+0x50>
    1a50:	04022703          	lw	a4,64(tp) # 40 <buflen.2856>
    1a54:	04000793          	li	a5,64
    1a58:	02f71263          	bne	a4,a5,1a7c <putchar+0x70>
    1a5c:	00020713          	mv	a4,tp
    1a60:	04022783          	lw	a5,64(tp) # 40 <buflen.2856>
    1a64:	00078693          	mv	a3,a5
    1a68:	00070613          	mv	a2,a4
    1a6c:	00100593          	li	a1,1
    1a70:	04000513          	li	a0,64
    1a74:	cc5ff0ef          	jal	ra,1738 <syscall>
    1a78:	04022023          	sw	zero,64(tp) # 40 <buflen.2856>
    1a7c:	00000793          	li	a5,0
    1a80:	00078513          	mv	a0,a5
    1a84:	01813083          	ld	ra,24(sp)
    1a88:	01013403          	ld	s0,16(sp)
    1a8c:	02010113          	addi	sp,sp,32
    1a90:	00008067          	ret

0000000000001a94 <printhex>:
    1a94:	fc010113          	addi	sp,sp,-64
    1a98:	02113c23          	sd	ra,56(sp)
    1a9c:	02813823          	sd	s0,48(sp)
    1aa0:	04010413          	addi	s0,sp,64
    1aa4:	fca43423          	sd	a0,-56(s0)
    1aa8:	fe042623          	sw	zero,-20(s0)
    1aac:	06c0006f          	j	1b18 <printhex+0x84>
    1ab0:	00f00713          	li	a4,15
    1ab4:	fec42783          	lw	a5,-20(s0)
    1ab8:	40f7063b          	subw	a2,a4,a5
    1abc:	fc843783          	ld	a5,-56(s0)
    1ac0:	0ff7f793          	andi	a5,a5,255
    1ac4:	00f7f793          	andi	a5,a5,15
    1ac8:	0ff7f713          	andi	a4,a5,255
    1acc:	fc843783          	ld	a5,-56(s0)
    1ad0:	00f7f693          	andi	a3,a5,15
    1ad4:	00900793          	li	a5,9
    1ad8:	00d7e663          	bltu	a5,a3,1ae4 <printhex+0x50>
    1adc:	03000793          	li	a5,48
    1ae0:	0080006f          	j	1ae8 <printhex+0x54>
    1ae4:	05700793          	li	a5,87
    1ae8:	00f707bb          	addw	a5,a4,a5
    1aec:	0ff7f713          	andi	a4,a5,255
    1af0:	00060793          	mv	a5,a2
    1af4:	ff040693          	addi	a3,s0,-16
    1af8:	00f687b3          	add	a5,a3,a5
    1afc:	fee78423          	sb	a4,-24(a5)
    1b00:	fc843783          	ld	a5,-56(s0)
    1b04:	0047d793          	srli	a5,a5,0x4
    1b08:	fcf43423          	sd	a5,-56(s0)
    1b0c:	fec42783          	lw	a5,-20(s0)
    1b10:	0017879b          	addiw	a5,a5,1
    1b14:	fef42623          	sw	a5,-20(s0)
    1b18:	fec42703          	lw	a4,-20(s0)
    1b1c:	00f00793          	li	a5,15
    1b20:	f8e7d8e3          	ble	a4,a5,1ab0 <printhex+0x1c>
    1b24:	fe040423          	sb	zero,-24(s0)
    1b28:	fd840793          	addi	a5,s0,-40
    1b2c:	00078513          	mv	a0,a5
    1b30:	cbdff0ef          	jal	ra,17ec <printstr>
    1b34:	00000013          	nop
    1b38:	03813083          	ld	ra,56(sp)
    1b3c:	03013403          	ld	s0,48(sp)
    1b40:	04010113          	addi	sp,sp,64
    1b44:	00008067          	ret

0000000000001b48 <printnum>:
    1b48:	eb010113          	addi	sp,sp,-336
    1b4c:	14113423          	sd	ra,328(sp)
    1b50:	14813023          	sd	s0,320(sp)
    1b54:	15010413          	addi	s0,sp,336
    1b58:	eca43c23          	sd	a0,-296(s0)
    1b5c:	ecb43823          	sd	a1,-304(s0)
    1b60:	ecc43423          	sd	a2,-312(s0)
    1b64:	ecd42223          	sw	a3,-316(s0)
    1b68:	ece42023          	sw	a4,-320(s0)
    1b6c:	eaf42e23          	sw	a5,-324(s0)
    1b70:	fe042623          	sw	zero,-20(s0)
    1b74:	fec42783          	lw	a5,-20(s0)
    1b78:	0017871b          	addiw	a4,a5,1
    1b7c:	fee42623          	sw	a4,-20(s0)
    1b80:	ec446703          	lwu	a4,-316(s0)
    1b84:	ec843683          	ld	a3,-312(s0)
    1b88:	02e6f733          	remu	a4,a3,a4
    1b8c:	0007071b          	sext.w	a4,a4
    1b90:	00279793          	slli	a5,a5,0x2
    1b94:	ff040693          	addi	a3,s0,-16
    1b98:	00f687b3          	add	a5,a3,a5
    1b9c:	eee7ac23          	sw	a4,-264(a5)
    1ba0:	ec446703          	lwu	a4,-316(s0)
    1ba4:	ec843783          	ld	a5,-312(s0)
    1ba8:	00e7ec63          	bltu	a5,a4,1bc0 <printnum+0x78>
    1bac:	ec446783          	lwu	a5,-316(s0)
    1bb0:	ec843703          	ld	a4,-312(s0)
    1bb4:	02f757b3          	divu	a5,a4,a5
    1bb8:	ecf43423          	sd	a5,-312(s0)
    1bbc:	fb9ff06f          	j	1b74 <printnum+0x2c>
    1bc0:	00000013          	nop
    1bc4:	0140006f          	j	1bd8 <printnum+0x90>
    1bc8:	ed843783          	ld	a5,-296(s0)
    1bcc:	ed043583          	ld	a1,-304(s0)
    1bd0:	ebc42503          	lw	a0,-324(s0)
    1bd4:	000780e7          	jalr	a5
    1bd8:	ec042783          	lw	a5,-320(s0)
    1bdc:	fff7871b          	addiw	a4,a5,-1
    1be0:	ece42023          	sw	a4,-320(s0)
    1be4:	fec42703          	lw	a4,-20(s0)
    1be8:	fef740e3          	blt	a4,a5,1bc8 <printnum+0x80>
    1bec:	0580006f          	j	1c44 <printnum+0xfc>
    1bf0:	fec42783          	lw	a5,-20(s0)
    1bf4:	00279793          	slli	a5,a5,0x2
    1bf8:	ff040713          	addi	a4,s0,-16
    1bfc:	00f707b3          	add	a5,a4,a5
    1c00:	ef87a703          	lw	a4,-264(a5)
    1c04:	fec42783          	lw	a5,-20(s0)
    1c08:	00279793          	slli	a5,a5,0x2
    1c0c:	ff040693          	addi	a3,s0,-16
    1c10:	00f687b3          	add	a5,a3,a5
    1c14:	ef87a683          	lw	a3,-264(a5)
    1c18:	00900793          	li	a5,9
    1c1c:	00d7f663          	bleu	a3,a5,1c28 <printnum+0xe0>
    1c20:	05700793          	li	a5,87
    1c24:	0080006f          	j	1c2c <printnum+0xe4>
    1c28:	03000793          	li	a5,48
    1c2c:	00f707bb          	addw	a5,a4,a5
    1c30:	00078713          	mv	a4,a5
    1c34:	ed843783          	ld	a5,-296(s0)
    1c38:	ed043583          	ld	a1,-304(s0)
    1c3c:	00070513          	mv	a0,a4
    1c40:	000780e7          	jalr	a5
    1c44:	fec42783          	lw	a5,-20(s0)
    1c48:	fff7871b          	addiw	a4,a5,-1
    1c4c:	fee42623          	sw	a4,-20(s0)
    1c50:	faf040e3          	bgtz	a5,1bf0 <printnum+0xa8>
    1c54:	00000013          	nop
    1c58:	14813083          	ld	ra,328(sp)
    1c5c:	14013403          	ld	s0,320(sp)
    1c60:	15010113          	addi	sp,sp,336
    1c64:	00008067          	ret

0000000000001c68 <getuint>:
    1c68:	fe010113          	addi	sp,sp,-32
    1c6c:	00813c23          	sd	s0,24(sp)
    1c70:	02010413          	addi	s0,sp,32
    1c74:	fea43423          	sd	a0,-24(s0)
    1c78:	feb42223          	sw	a1,-28(s0)
    1c7c:	fe442703          	lw	a4,-28(s0)
    1c80:	00100793          	li	a5,1
    1c84:	02e7d063          	ble	a4,a5,1ca4 <getuint+0x3c>
    1c88:	fe843783          	ld	a5,-24(s0)
    1c8c:	0007b783          	ld	a5,0(a5)
    1c90:	00878693          	addi	a3,a5,8
    1c94:	fe843703          	ld	a4,-24(s0)
    1c98:	00d73023          	sd	a3,0(a4)
    1c9c:	0007b783          	ld	a5,0(a5)
    1ca0:	0480006f          	j	1ce8 <getuint+0x80>
    1ca4:	fe442783          	lw	a5,-28(s0)
    1ca8:	02078063          	beqz	a5,1cc8 <getuint+0x60>
    1cac:	fe843783          	ld	a5,-24(s0)
    1cb0:	0007b783          	ld	a5,0(a5)
    1cb4:	00878693          	addi	a3,a5,8
    1cb8:	fe843703          	ld	a4,-24(s0)
    1cbc:	00d73023          	sd	a3,0(a4)
    1cc0:	0007b783          	ld	a5,0(a5)
    1cc4:	0240006f          	j	1ce8 <getuint+0x80>
    1cc8:	fe843783          	ld	a5,-24(s0)
    1ccc:	0007b783          	ld	a5,0(a5)
    1cd0:	00878693          	addi	a3,a5,8
    1cd4:	fe843703          	ld	a4,-24(s0)
    1cd8:	00d73023          	sd	a3,0(a4)
    1cdc:	0007a783          	lw	a5,0(a5)
    1ce0:	02079793          	slli	a5,a5,0x20
    1ce4:	0207d793          	srli	a5,a5,0x20
    1ce8:	00078513          	mv	a0,a5
    1cec:	01813403          	ld	s0,24(sp)
    1cf0:	02010113          	addi	sp,sp,32
    1cf4:	00008067          	ret

0000000000001cf8 <getint>:
    1cf8:	fe010113          	addi	sp,sp,-32
    1cfc:	00813c23          	sd	s0,24(sp)
    1d00:	02010413          	addi	s0,sp,32
    1d04:	fea43423          	sd	a0,-24(s0)
    1d08:	feb42223          	sw	a1,-28(s0)
    1d0c:	fe442703          	lw	a4,-28(s0)
    1d10:	00100793          	li	a5,1
    1d14:	02e7d063          	ble	a4,a5,1d34 <getint+0x3c>
    1d18:	fe843783          	ld	a5,-24(s0)
    1d1c:	0007b783          	ld	a5,0(a5)
    1d20:	00878693          	addi	a3,a5,8
    1d24:	fe843703          	ld	a4,-24(s0)
    1d28:	00d73023          	sd	a3,0(a4)
    1d2c:	0007b783          	ld	a5,0(a5)
    1d30:	0400006f          	j	1d70 <getint+0x78>
    1d34:	fe442783          	lw	a5,-28(s0)
    1d38:	02078063          	beqz	a5,1d58 <getint+0x60>
    1d3c:	fe843783          	ld	a5,-24(s0)
    1d40:	0007b783          	ld	a5,0(a5)
    1d44:	00878693          	addi	a3,a5,8
    1d48:	fe843703          	ld	a4,-24(s0)
    1d4c:	00d73023          	sd	a3,0(a4)
    1d50:	0007b783          	ld	a5,0(a5)
    1d54:	01c0006f          	j	1d70 <getint+0x78>
    1d58:	fe843783          	ld	a5,-24(s0)
    1d5c:	0007b783          	ld	a5,0(a5)
    1d60:	00878693          	addi	a3,a5,8
    1d64:	fe843703          	ld	a4,-24(s0)
    1d68:	00d73023          	sd	a3,0(a4)
    1d6c:	0007a783          	lw	a5,0(a5)
    1d70:	00078513          	mv	a0,a5
    1d74:	01813403          	ld	s0,24(sp)
    1d78:	02010113          	addi	sp,sp,32
    1d7c:	00008067          	ret

0000000000001d80 <vprintfmt>:
    1d80:	f9010113          	addi	sp,sp,-112
    1d84:	06113423          	sd	ra,104(sp)
    1d88:	06813023          	sd	s0,96(sp)
    1d8c:	04913c23          	sd	s1,88(sp)
    1d90:	05213823          	sd	s2,80(sp)
    1d94:	07010413          	addi	s0,sp,112
    1d98:	faa43423          	sd	a0,-88(s0)
    1d9c:	fab43023          	sd	a1,-96(s0)
    1da0:	f8c43c23          	sd	a2,-104(s0)
    1da4:	f8d43823          	sd	a3,-112(s0)
    1da8:	0240006f          	j	1dcc <vprintfmt+0x4c>
    1dac:	38048263          	beqz	s1,2130 <vprintfmt+0x3b0>
    1db0:	f9843783          	ld	a5,-104(s0)
    1db4:	00178793          	addi	a5,a5,1
    1db8:	f8f43c23          	sd	a5,-104(s0)
    1dbc:	fa843783          	ld	a5,-88(s0)
    1dc0:	fa043583          	ld	a1,-96(s0)
    1dc4:	00048513          	mv	a0,s1
    1dc8:	000780e7          	jalr	a5
    1dcc:	f9843783          	ld	a5,-104(s0)
    1dd0:	0007c783          	lbu	a5,0(a5)
    1dd4:	00078493          	mv	s1,a5
    1dd8:	02500793          	li	a5,37
    1ddc:	fcf498e3          	bne	s1,a5,1dac <vprintfmt+0x2c>
    1de0:	f9843783          	ld	a5,-104(s0)
    1de4:	00178793          	addi	a5,a5,1
    1de8:	f8f43c23          	sd	a5,-104(s0)
    1dec:	f9843783          	ld	a5,-104(s0)
    1df0:	faf43c23          	sd	a5,-72(s0)
    1df4:	02000793          	li	a5,32
    1df8:	fcf403a3          	sb	a5,-57(s0)
    1dfc:	fff00793          	li	a5,-1
    1e00:	fcf42623          	sw	a5,-52(s0)
    1e04:	fff00793          	li	a5,-1
    1e08:	fcf42423          	sw	a5,-56(s0)
    1e0c:	fc042823          	sw	zero,-48(s0)
    1e10:	fa042a23          	sw	zero,-76(s0)
    1e14:	f9843783          	ld	a5,-104(s0)
    1e18:	00178713          	addi	a4,a5,1
    1e1c:	f8e43c23          	sd	a4,-104(s0)
    1e20:	0007c783          	lbu	a5,0(a5)
    1e24:	00078493          	mv	s1,a5
    1e28:	fdd4879b          	addiw	a5,s1,-35
    1e2c:	05500713          	li	a4,85
    1e30:	2ef76063          	bltu	a4,a5,2110 <vprintfmt+0x390>
    1e34:	02079793          	slli	a5,a5,0x20
    1e38:	0207d793          	srli	a5,a5,0x20
    1e3c:	00279713          	slli	a4,a5,0x2
    1e40:	0000a7b7          	lui	a5,0xa
    1e44:	14078793          	addi	a5,a5,320 # a140 <strnlen+0x2d8>
    1e48:	00f707b3          	add	a5,a4,a5
    1e4c:	0007a783          	lw	a5,0(a5)
    1e50:	00078067          	jr	a5
    1e54:	02d00793          	li	a5,45
    1e58:	fcf403a3          	sb	a5,-57(s0)
    1e5c:	fb9ff06f          	j	1e14 <vprintfmt+0x94>
    1e60:	03000793          	li	a5,48
    1e64:	fcf403a3          	sb	a5,-57(s0)
    1e68:	fadff06f          	j	1e14 <vprintfmt+0x94>
    1e6c:	fc042423          	sw	zero,-56(s0)
    1e70:	fc842783          	lw	a5,-56(s0)
    1e74:	0017979b          	slliw	a5,a5,0x1
    1e78:	0027971b          	slliw	a4,a5,0x2
    1e7c:	00e787bb          	addw	a5,a5,a4
    1e80:	009787bb          	addw	a5,a5,s1
    1e84:	fd07879b          	addiw	a5,a5,-48
    1e88:	fcf42423          	sw	a5,-56(s0)
    1e8c:	f9843783          	ld	a5,-104(s0)
    1e90:	0007c783          	lbu	a5,0(a5)
    1e94:	00078493          	mv	s1,a5
    1e98:	02f00793          	li	a5,47
    1e9c:	0497d863          	ble	s1,a5,1eec <vprintfmt+0x16c>
    1ea0:	03900793          	li	a5,57
    1ea4:	0497c463          	blt	a5,s1,1eec <vprintfmt+0x16c>
    1ea8:	f9843783          	ld	a5,-104(s0)
    1eac:	00178793          	addi	a5,a5,1
    1eb0:	f8f43c23          	sd	a5,-104(s0)
    1eb4:	fbdff06f          	j	1e70 <vprintfmt+0xf0>
    1eb8:	f9043783          	ld	a5,-112(s0)
    1ebc:	00878713          	addi	a4,a5,8
    1ec0:	f8e43823          	sd	a4,-112(s0)
    1ec4:	0007a783          	lw	a5,0(a5)
    1ec8:	fcf42423          	sw	a5,-56(s0)
    1ecc:	0240006f          	j	1ef0 <vprintfmt+0x170>
    1ed0:	fcc42783          	lw	a5,-52(s0)
    1ed4:	f407d0e3          	bgez	a5,1e14 <vprintfmt+0x94>
    1ed8:	fc042623          	sw	zero,-52(s0)
    1edc:	f39ff06f          	j	1e14 <vprintfmt+0x94>
    1ee0:	00100793          	li	a5,1
    1ee4:	faf42a23          	sw	a5,-76(s0)
    1ee8:	f2dff06f          	j	1e14 <vprintfmt+0x94>
    1eec:	00000013          	nop
    1ef0:	fcc42783          	lw	a5,-52(s0)
    1ef4:	f207d0e3          	bgez	a5,1e14 <vprintfmt+0x94>
    1ef8:	fc842783          	lw	a5,-56(s0)
    1efc:	fcf42623          	sw	a5,-52(s0)
    1f00:	fff00793          	li	a5,-1
    1f04:	fcf42423          	sw	a5,-56(s0)
    1f08:	f0dff06f          	j	1e14 <vprintfmt+0x94>
    1f0c:	fd042783          	lw	a5,-48(s0)
    1f10:	0017879b          	addiw	a5,a5,1
    1f14:	fcf42823          	sw	a5,-48(s0)
    1f18:	efdff06f          	j	1e14 <vprintfmt+0x94>
    1f1c:	f9043783          	ld	a5,-112(s0)
    1f20:	00878713          	addi	a4,a5,8
    1f24:	f8e43823          	sd	a4,-112(s0)
    1f28:	0007a703          	lw	a4,0(a5)
    1f2c:	fa843783          	ld	a5,-88(s0)
    1f30:	fa043583          	ld	a1,-96(s0)
    1f34:	00070513          	mv	a0,a4
    1f38:	000780e7          	jalr	a5
    1f3c:	1f00006f          	j	212c <vprintfmt+0x3ac>
    1f40:	f9043783          	ld	a5,-112(s0)
    1f44:	00878713          	addi	a4,a5,8
    1f48:	f8e43823          	sd	a4,-112(s0)
    1f4c:	0007b903          	ld	s2,0(a5)
    1f50:	00091663          	bnez	s2,1f5c <vprintfmt+0x1dc>
    1f54:	0000a7b7          	lui	a5,0xa
    1f58:	13878913          	addi	s2,a5,312 # a138 <strnlen+0x2d0>
    1f5c:	fcc42783          	lw	a5,-52(s0)
    1f60:	08f05263          	blez	a5,1fe4 <vprintfmt+0x264>
    1f64:	fc744703          	lbu	a4,-57(s0)
    1f68:	02d00793          	li	a5,45
    1f6c:	06f70c63          	beq	a4,a5,1fe4 <vprintfmt+0x264>
    1f70:	fc842783          	lw	a5,-56(s0)
    1f74:	00078593          	mv	a1,a5
    1f78:	00090513          	mv	a0,s2
    1f7c:	6ed070ef          	jal	ra,9e68 <strnlen>
    1f80:	00050713          	mv	a4,a0
    1f84:	fcc42783          	lw	a5,-52(s0)
    1f88:	0007071b          	sext.w	a4,a4
    1f8c:	40e787bb          	subw	a5,a5,a4
    1f90:	fcf42623          	sw	a5,-52(s0)
    1f94:	0240006f          	j	1fb8 <vprintfmt+0x238>
    1f98:	fc744703          	lbu	a4,-57(s0)
    1f9c:	fa843783          	ld	a5,-88(s0)
    1fa0:	fa043583          	ld	a1,-96(s0)
    1fa4:	00070513          	mv	a0,a4
    1fa8:	000780e7          	jalr	a5
    1fac:	fcc42783          	lw	a5,-52(s0)
    1fb0:	fff7879b          	addiw	a5,a5,-1
    1fb4:	fcf42623          	sw	a5,-52(s0)
    1fb8:	fcc42783          	lw	a5,-52(s0)
    1fbc:	fcf04ee3          	bgtz	a5,1f98 <vprintfmt+0x218>
    1fc0:	0240006f          	j	1fe4 <vprintfmt+0x264>
    1fc4:	fa843783          	ld	a5,-88(s0)
    1fc8:	fa043583          	ld	a1,-96(s0)
    1fcc:	00048513          	mv	a0,s1
    1fd0:	000780e7          	jalr	a5
    1fd4:	00190913          	addi	s2,s2,1
    1fd8:	fcc42783          	lw	a5,-52(s0)
    1fdc:	fff7879b          	addiw	a5,a5,-1
    1fe0:	fcf42623          	sw	a5,-52(s0)
    1fe4:	00094783          	lbu	a5,0(s2)
    1fe8:	00078493          	mv	s1,a5
    1fec:	04048063          	beqz	s1,202c <vprintfmt+0x2ac>
    1ff0:	fc842783          	lw	a5,-56(s0)
    1ff4:	fc07c8e3          	bltz	a5,1fc4 <vprintfmt+0x244>
    1ff8:	fc842783          	lw	a5,-56(s0)
    1ffc:	fff7879b          	addiw	a5,a5,-1
    2000:	fcf42423          	sw	a5,-56(s0)
    2004:	fc842783          	lw	a5,-56(s0)
    2008:	fa07dee3          	bgez	a5,1fc4 <vprintfmt+0x244>
    200c:	0200006f          	j	202c <vprintfmt+0x2ac>
    2010:	fa843783          	ld	a5,-88(s0)
    2014:	fa043583          	ld	a1,-96(s0)
    2018:	02000513          	li	a0,32
    201c:	000780e7          	jalr	a5
    2020:	fcc42783          	lw	a5,-52(s0)
    2024:	fff7879b          	addiw	a5,a5,-1
    2028:	fcf42623          	sw	a5,-52(s0)
    202c:	fcc42783          	lw	a5,-52(s0)
    2030:	fef040e3          	bgtz	a5,2010 <vprintfmt+0x290>
    2034:	0f80006f          	j	212c <vprintfmt+0x3ac>
    2038:	f9040793          	addi	a5,s0,-112
    203c:	fd042583          	lw	a1,-48(s0)
    2040:	00078513          	mv	a0,a5
    2044:	cb5ff0ef          	jal	ra,1cf8 <getint>
    2048:	00050793          	mv	a5,a0
    204c:	fcf43c23          	sd	a5,-40(s0)
    2050:	fd843783          	ld	a5,-40(s0)
    2054:	0207d063          	bgez	a5,2074 <vprintfmt+0x2f4>
    2058:	fa843783          	ld	a5,-88(s0)
    205c:	fa043583          	ld	a1,-96(s0)
    2060:	02d00513          	li	a0,45
    2064:	000780e7          	jalr	a5
    2068:	fd843783          	ld	a5,-40(s0)
    206c:	40f007b3          	neg	a5,a5
    2070:	fcf43c23          	sd	a5,-40(s0)
    2074:	00a00793          	li	a5,10
    2078:	fcf42a23          	sw	a5,-44(s0)
    207c:	0600006f          	j	20dc <vprintfmt+0x35c>
    2080:	00a00793          	li	a5,10
    2084:	fcf42a23          	sw	a5,-44(s0)
    2088:	0400006f          	j	20c8 <vprintfmt+0x348>
    208c:	00800793          	li	a5,8
    2090:	fcf42a23          	sw	a5,-44(s0)
    2094:	0340006f          	j	20c8 <vprintfmt+0x348>
    2098:	00100793          	li	a5,1
    209c:	fcf42823          	sw	a5,-48(s0)
    20a0:	fa843783          	ld	a5,-88(s0)
    20a4:	fa043583          	ld	a1,-96(s0)
    20a8:	03000513          	li	a0,48
    20ac:	000780e7          	jalr	a5
    20b0:	fa843783          	ld	a5,-88(s0)
    20b4:	fa043583          	ld	a1,-96(s0)
    20b8:	07800513          	li	a0,120
    20bc:	000780e7          	jalr	a5
    20c0:	01000793          	li	a5,16
    20c4:	fcf42a23          	sw	a5,-44(s0)
    20c8:	f9040793          	addi	a5,s0,-112
    20cc:	fd042583          	lw	a1,-48(s0)
    20d0:	00078513          	mv	a0,a5
    20d4:	b95ff0ef          	jal	ra,1c68 <getuint>
    20d8:	fca43c23          	sd	a0,-40(s0)
    20dc:	fd442683          	lw	a3,-44(s0)
    20e0:	fc744783          	lbu	a5,-57(s0)
    20e4:	fcc42703          	lw	a4,-52(s0)
    20e8:	fd843603          	ld	a2,-40(s0)
    20ec:	fa043583          	ld	a1,-96(s0)
    20f0:	fa843503          	ld	a0,-88(s0)
    20f4:	a55ff0ef          	jal	ra,1b48 <printnum>
    20f8:	0340006f          	j	212c <vprintfmt+0x3ac>
    20fc:	fa843783          	ld	a5,-88(s0)
    2100:	fa043583          	ld	a1,-96(s0)
    2104:	00048513          	mv	a0,s1
    2108:	000780e7          	jalr	a5
    210c:	0200006f          	j	212c <vprintfmt+0x3ac>
    2110:	fa843783          	ld	a5,-88(s0)
    2114:	fa043583          	ld	a1,-96(s0)
    2118:	02500513          	li	a0,37
    211c:	000780e7          	jalr	a5
    2120:	fb843783          	ld	a5,-72(s0)
    2124:	f8f43c23          	sd	a5,-104(s0)
    2128:	00000013          	nop
    212c:	c7dff06f          	j	1da8 <vprintfmt+0x28>
    2130:	00000013          	nop
    2134:	06813083          	ld	ra,104(sp)
    2138:	06013403          	ld	s0,96(sp)
    213c:	05813483          	ld	s1,88(sp)
    2140:	05013903          	ld	s2,80(sp)
    2144:	07010113          	addi	sp,sp,112
    2148:	00008067          	ret

000000000000214c <printf>:
    214c:	f9010113          	addi	sp,sp,-112
    2150:	02113423          	sd	ra,40(sp)
    2154:	02813023          	sd	s0,32(sp)
    2158:	03010413          	addi	s0,sp,48
    215c:	fca43c23          	sd	a0,-40(s0)
    2160:	00b43423          	sd	a1,8(s0)
    2164:	00c43823          	sd	a2,16(s0)
    2168:	00d43c23          	sd	a3,24(s0)
    216c:	02e43023          	sd	a4,32(s0)
    2170:	02f43423          	sd	a5,40(s0)
    2174:	03043823          	sd	a6,48(s0)
    2178:	03143c23          	sd	a7,56(s0)
    217c:	04040793          	addi	a5,s0,64
    2180:	fc878793          	addi	a5,a5,-56
    2184:	fef43423          	sd	a5,-24(s0)
    2188:	fe843783          	ld	a5,-24(s0)
    218c:	00078693          	mv	a3,a5
    2190:	fd843603          	ld	a2,-40(s0)
    2194:	00000593          	li	a1,0
    2198:	000027b7          	lui	a5,0x2
    219c:	a0c78513          	addi	a0,a5,-1524 # 1a0c <putchar>
    21a0:	be1ff0ef          	jal	ra,1d80 <vprintfmt>
    21a4:	00000793          	li	a5,0
    21a8:	00078513          	mv	a0,a5
    21ac:	02813083          	ld	ra,40(sp)
    21b0:	02013403          	ld	s0,32(sp)
    21b4:	07010113          	addi	sp,sp,112
    21b8:	00008067          	ret

00000000000021bc <sprintf_putch.2970>:
    21bc:	fc010113          	addi	sp,sp,-64
    21c0:	02813c23          	sd	s0,56(sp)
    21c4:	04010413          	addi	s0,sp,64
    21c8:	fca42e23          	sw	a0,-36(s0)
    21cc:	fcb43823          	sd	a1,-48(s0)
    21d0:	fc543423          	sd	t0,-56(s0)
    21d4:	fd043783          	ld	a5,-48(s0)
    21d8:	fef43423          	sd	a5,-24(s0)
    21dc:	fe843783          	ld	a5,-24(s0)
    21e0:	0007b783          	ld	a5,0(a5)
    21e4:	fdc42703          	lw	a4,-36(s0)
    21e8:	0ff77713          	andi	a4,a4,255
    21ec:	00e78023          	sb	a4,0(a5)
    21f0:	fe843783          	ld	a5,-24(s0)
    21f4:	0007b783          	ld	a5,0(a5)
    21f8:	00178713          	addi	a4,a5,1
    21fc:	fe843783          	ld	a5,-24(s0)
    2200:	00e7b023          	sd	a4,0(a5)
    2204:	00000013          	nop
    2208:	03813403          	ld	s0,56(sp)
    220c:	04010113          	addi	sp,sp,64
    2210:	00008067          	ret

0000000000002214 <sprintf>:
    2214:	f1010113          	addi	sp,sp,-240
    2218:	0a113c23          	sd	ra,184(sp)
    221c:	0a813823          	sd	s0,176(sp)
    2220:	0c010413          	addi	s0,sp,192
    2224:	f4a43423          	sd	a0,-184(s0)
    2228:	f4b43023          	sd	a1,-192(s0)
    222c:	00c43023          	sd	a2,0(s0)
    2230:	00d43423          	sd	a3,8(s0)
    2234:	00e43823          	sd	a4,16(s0)
    2238:	00f43c23          	sd	a5,24(s0)
    223c:	03043023          	sd	a6,32(s0)
    2240:	03143423          	sd	a7,40(s0)
    2244:	f5040793          	addi	a5,s0,-176
    2248:	f5040713          	addi	a4,s0,-176
    224c:	29700693          	li	a3,663
    2250:	00d7a023          	sw	a3,0(a5)
    2254:	0182b6b7          	lui	a3,0x182b
    2258:	3036869b          	addiw	a3,a3,771
    225c:	00d7a223          	sw	a3,4(a5)
    2260:	0102b6b7          	lui	a3,0x102b
    2264:	2836869b          	addiw	a3,a3,643
    2268:	00d7a423          	sw	a3,8(a5)
    226c:	000306b7          	lui	a3,0x30
    2270:	0676869b          	addiw	a3,a3,103
    2274:	00d7a623          	sw	a3,12(a5)
    2278:	00e7b823          	sd	a4,16(a5)
    227c:	00002737          	lui	a4,0x2
    2280:	1bc70713          	addi	a4,a4,444 # 21bc <sprintf_putch.2970>
    2284:	00e7bc23          	sd	a4,24(a5)
    2288:	0000100f          	fence.i
    228c:	f4843783          	ld	a5,-184(s0)
    2290:	fef43423          	sd	a5,-24(s0)
    2294:	03040793          	addi	a5,s0,48
    2298:	fd078793          	addi	a5,a5,-48
    229c:	fef43023          	sd	a5,-32(s0)
    22a0:	fe043703          	ld	a4,-32(s0)
    22a4:	f5040793          	addi	a5,s0,-176
    22a8:	00078513          	mv	a0,a5
    22ac:	f4840793          	addi	a5,s0,-184
    22b0:	00070693          	mv	a3,a4
    22b4:	f4043603          	ld	a2,-192(s0)
    22b8:	00078593          	mv	a1,a5
    22bc:	ac5ff0ef          	jal	ra,1d80 <vprintfmt>
    22c0:	f4843783          	ld	a5,-184(s0)
    22c4:	00078023          	sb	zero,0(a5)
    22c8:	f4843783          	ld	a5,-184(s0)
    22cc:	00078713          	mv	a4,a5
    22d0:	fe843783          	ld	a5,-24(s0)
    22d4:	40f707b3          	sub	a5,a4,a5
    22d8:	0007879b          	sext.w	a5,a5
    22dc:	00078513          	mv	a0,a5
    22e0:	0b813083          	ld	ra,184(sp)
    22e4:	0b013403          	ld	s0,176(sp)
    22e8:	0f010113          	addi	sp,sp,240
    22ec:	00008067          	ret

00000000000022f0 <spi_init>:
    22f0:	ff010113          	addi	sp,sp,-16
    22f4:	00813423          	sd	s0,8(sp)
    22f8:	01010413          	addi	s0,sp,16
    22fc:	8081b783          	ld	a5,-2040(gp)
    2300:	04078793          	addi	a5,a5,64
    2304:	00a00713          	li	a4,10
    2308:	00e7a023          	sw	a4,0(a5)
    230c:	8081b783          	ld	a5,-2040(gp)
    2310:	06078793          	addi	a5,a5,96
    2314:	0e400713          	li	a4,228
    2318:	00e7a023          	sw	a4,0(a5)
    231c:	8081b783          	ld	a5,-2040(gp)
    2320:	01c78793          	addi	a5,a5,28
    2324:	0007a023          	sw	zero,0(a5)
    2328:	8081b783          	ld	a5,-2040(gp)
    232c:	06078793          	addi	a5,a5,96
    2330:	08600713          	li	a4,134
    2334:	00e7a023          	sw	a4,0(a5)
    2338:	00000013          	nop
    233c:	00813403          	ld	s0,8(sp)
    2340:	01010113          	addi	sp,sp,16
    2344:	00008067          	ret

0000000000002348 <spi_disable>:
    2348:	ff010113          	addi	sp,sp,-16
    234c:	00813423          	sd	s0,8(sp)
    2350:	01010413          	addi	s0,sp,16
    2354:	8081b783          	ld	a5,-2040(gp)
    2358:	06078793          	addi	a5,a5,96
    235c:	0e400713          	li	a4,228
    2360:	00e7a023          	sw	a4,0(a5)
    2364:	00000013          	nop
    2368:	00813403          	ld	s0,8(sp)
    236c:	01010113          	addi	sp,sp,16
    2370:	00008067          	ret

0000000000002374 <spi_send>:
    2374:	fe010113          	addi	sp,sp,-32
    2378:	00813c23          	sd	s0,24(sp)
    237c:	02010413          	addi	s0,sp,32
    2380:	00050793          	mv	a5,a0
    2384:	fef407a3          	sb	a5,-17(s0)
    2388:	8081b783          	ld	a5,-2040(gp)
    238c:	06878793          	addi	a5,a5,104
    2390:	fef44703          	lbu	a4,-17(s0)
    2394:	00e7a023          	sw	a4,0(a5)
    2398:	00000013          	nop
    239c:	8081b783          	ld	a5,-2040(gp)
    23a0:	06478793          	addi	a5,a5,100
    23a4:	0007a783          	lw	a5,0(a5)
    23a8:	0047f793          	andi	a5,a5,4
    23ac:	0027d79b          	srliw	a5,a5,0x2
    23b0:	fe0786e3          	beqz	a5,239c <spi_send+0x28>
    23b4:	8081b783          	ld	a5,-2040(gp)
    23b8:	06c78793          	addi	a5,a5,108
    23bc:	0007a783          	lw	a5,0(a5)
    23c0:	0ff7f793          	andi	a5,a5,255
    23c4:	00078513          	mv	a0,a5
    23c8:	01813403          	ld	s0,24(sp)
    23cc:	02010113          	addi	sp,sp,32
    23d0:	00008067          	ret

00000000000023d4 <spi_send_multi>:
    23d4:	fd010113          	addi	sp,sp,-48
    23d8:	02813423          	sd	s0,40(sp)
    23dc:	03010413          	addi	s0,sp,48
    23e0:	fca43c23          	sd	a0,-40(s0)
    23e4:	00058793          	mv	a5,a1
    23e8:	fcf40ba3          	sb	a5,-41(s0)
    23ec:	fe0407a3          	sb	zero,-17(s0)
    23f0:	02c0006f          	j	241c <spi_send_multi+0x48>
    23f4:	8081b783          	ld	a5,-2040(gp)
    23f8:	06878713          	addi	a4,a5,104
    23fc:	fd843783          	ld	a5,-40(s0)
    2400:	00178693          	addi	a3,a5,1
    2404:	fcd43c23          	sd	a3,-40(s0)
    2408:	0007c783          	lbu	a5,0(a5)
    240c:	00f72023          	sw	a5,0(a4)
    2410:	fef44783          	lbu	a5,-17(s0)
    2414:	0017879b          	addiw	a5,a5,1
    2418:	fef407a3          	sb	a5,-17(s0)
    241c:	fef44703          	lbu	a4,-17(s0)
    2420:	fd744783          	lbu	a5,-41(s0)
    2424:	fcf768e3          	bltu	a4,a5,23f4 <spi_send_multi+0x20>
    2428:	00000013          	nop
    242c:	8081b783          	ld	a5,-2040(gp)
    2430:	06478793          	addi	a5,a5,100
    2434:	0007a783          	lw	a5,0(a5)
    2438:	0047f793          	andi	a5,a5,4
    243c:	0027d79b          	srliw	a5,a5,0x2
    2440:	fe0786e3          	beqz	a5,242c <spi_send_multi+0x58>
    2444:	8081b783          	ld	a5,-2040(gp)
    2448:	06078793          	addi	a5,a5,96
    244c:	0c600713          	li	a4,198
    2450:	00e7a023          	sw	a4,0(a5)
    2454:	00000013          	nop
    2458:	02813403          	ld	s0,40(sp)
    245c:	03010113          	addi	sp,sp,48
    2460:	00008067          	ret

0000000000002464 <spi_recv_multi>:
    2464:	fd010113          	addi	sp,sp,-48
    2468:	02813423          	sd	s0,40(sp)
    246c:	03010413          	addi	s0,sp,48
    2470:	fca43c23          	sd	a0,-40(s0)
    2474:	00058793          	mv	a5,a1
    2478:	fcf40ba3          	sb	a5,-41(s0)
    247c:	fe0407a3          	sb	zero,-17(s0)
    2480:	0200006f          	j	24a0 <spi_recv_multi+0x3c>
    2484:	8081b783          	ld	a5,-2040(gp)
    2488:	06878793          	addi	a5,a5,104
    248c:	0ff00713          	li	a4,255
    2490:	00e7a023          	sw	a4,0(a5)
    2494:	fef44783          	lbu	a5,-17(s0)
    2498:	0017879b          	addiw	a5,a5,1
    249c:	fef407a3          	sb	a5,-17(s0)
    24a0:	fef44703          	lbu	a4,-17(s0)
    24a4:	fd744783          	lbu	a5,-41(s0)
    24a8:	fcf76ee3          	bltu	a4,a5,2484 <spi_recv_multi+0x20>
    24ac:	00000013          	nop
    24b0:	8081b783          	ld	a5,-2040(gp)
    24b4:	06478793          	addi	a5,a5,100
    24b8:	0007a783          	lw	a5,0(a5)
    24bc:	0047f793          	andi	a5,a5,4
    24c0:	0027d79b          	srliw	a5,a5,0x2
    24c4:	fe0786e3          	beqz	a5,24b0 <spi_recv_multi+0x4c>
    24c8:	fe0407a3          	sb	zero,-17(s0)
    24cc:	0300006f          	j	24fc <spi_recv_multi+0x98>
    24d0:	fd843783          	ld	a5,-40(s0)
    24d4:	00178713          	addi	a4,a5,1
    24d8:	fce43c23          	sd	a4,-40(s0)
    24dc:	8081b703          	ld	a4,-2040(gp)
    24e0:	06c70713          	addi	a4,a4,108
    24e4:	00072703          	lw	a4,0(a4)
    24e8:	0ff77713          	andi	a4,a4,255
    24ec:	00e78023          	sb	a4,0(a5)
    24f0:	fef44783          	lbu	a5,-17(s0)
    24f4:	0017879b          	addiw	a5,a5,1
    24f8:	fef407a3          	sb	a5,-17(s0)
    24fc:	fef44703          	lbu	a4,-17(s0)
    2500:	fd744783          	lbu	a5,-41(s0)
    2504:	fcf766e3          	bltu	a4,a5,24d0 <spi_recv_multi+0x6c>
    2508:	00000013          	nop
    250c:	02813403          	ld	s0,40(sp)
    2510:	03010113          	addi	sp,sp,48
    2514:	00008067          	ret

0000000000002518 <spi_select_slave>:
    2518:	fe010113          	addi	sp,sp,-32
    251c:	00813c23          	sd	s0,24(sp)
    2520:	02010413          	addi	s0,sp,32
    2524:	00050793          	mv	a5,a0
    2528:	fef407a3          	sb	a5,-17(s0)
    252c:	8081b783          	ld	a5,-2040(gp)
    2530:	07078793          	addi	a5,a5,112
    2534:	ffe00713          	li	a4,-2
    2538:	00e7a023          	sw	a4,0(a5)
    253c:	00000013          	nop
    2540:	01813403          	ld	s0,24(sp)
    2544:	02010113          	addi	sp,sp,32
    2548:	00008067          	ret

000000000000254c <spi_deselect_slave>:
    254c:	fe010113          	addi	sp,sp,-32
    2550:	00813c23          	sd	s0,24(sp)
    2554:	02010413          	addi	s0,sp,32
    2558:	00050793          	mv	a5,a0
    255c:	fef407a3          	sb	a5,-17(s0)
    2560:	8081b783          	ld	a5,-2040(gp)
    2564:	07078793          	addi	a5,a5,112
    2568:	fff00713          	li	a4,-1
    256c:	00e7a023          	sw	a4,0(a5)
    2570:	00000013          	nop
    2574:	01813403          	ld	s0,24(sp)
    2578:	02010113          	addi	sp,sp,32
    257c:	00008067          	ret

0000000000002580 <uart_init>:
    2580:	ff010113          	addi	sp,sp,-16
    2584:	00813423          	sd	s0,8(sp)
    2588:	01010413          	addi	s0,sp,16
    258c:	8101b783          	ld	a5,-2032(gp)
    2590:	00c78793          	addi	a5,a5,12
    2594:	08000713          	li	a4,128
    2598:	00e7a023          	sw	a4,0(a5)
    259c:	8101b783          	ld	a5,-2032(gp)
    25a0:	01b00713          	li	a4,27
    25a4:	00e7a023          	sw	a4,0(a5)
    25a8:	8101b783          	ld	a5,-2032(gp)
    25ac:	00478793          	addi	a5,a5,4
    25b0:	0007a023          	sw	zero,0(a5)
    25b4:	8101b783          	ld	a5,-2032(gp)
    25b8:	00c78793          	addi	a5,a5,12
    25bc:	00b00713          	li	a4,11
    25c0:	00e7a023          	sw	a4,0(a5)
    25c4:	8101b783          	ld	a5,-2032(gp)
    25c8:	00478793          	addi	a5,a5,4
    25cc:	00100713          	li	a4,1
    25d0:	00e7a023          	sw	a4,0(a5)
    25d4:	00000013          	nop
    25d8:	00813403          	ld	s0,8(sp)
    25dc:	01010113          	addi	sp,sp,16
    25e0:	00008067          	ret

00000000000025e4 <uart_send>:
    25e4:	fe010113          	addi	sp,sp,-32
    25e8:	00813c23          	sd	s0,24(sp)
    25ec:	02010413          	addi	s0,sp,32
    25f0:	00050793          	mv	a5,a0
    25f4:	fef407a3          	sb	a5,-17(s0)
    25f8:	00000013          	nop
    25fc:	8101b783          	ld	a5,-2032(gp)
    2600:	01478793          	addi	a5,a5,20
    2604:	0007a783          	lw	a5,0(a5)
    2608:	0407f793          	andi	a5,a5,64
    260c:	fe0788e3          	beqz	a5,25fc <uart_send+0x18>
    2610:	8101b783          	ld	a5,-2032(gp)
    2614:	fef44703          	lbu	a4,-17(s0)
    2618:	00e7a023          	sw	a4,0(a5)
    261c:	00000013          	nop
    2620:	01813403          	ld	s0,24(sp)
    2624:	02010113          	addi	sp,sp,32
    2628:	00008067          	ret

000000000000262c <uart_send_string>:
    262c:	fe010113          	addi	sp,sp,-32
    2630:	00813c23          	sd	s0,24(sp)
    2634:	02010413          	addi	s0,sp,32
    2638:	fea43423          	sd	a0,-24(s0)
    263c:	0340006f          	j	2670 <uart_send_string+0x44>
    2640:	00000013          	nop
    2644:	8101b783          	ld	a5,-2032(gp)
    2648:	01478793          	addi	a5,a5,20
    264c:	0007a783          	lw	a5,0(a5)
    2650:	0407f793          	andi	a5,a5,64
    2654:	fe0788e3          	beqz	a5,2644 <uart_send_string+0x18>
    2658:	8101b703          	ld	a4,-2032(gp)
    265c:	fe843783          	ld	a5,-24(s0)
    2660:	00178693          	addi	a3,a5,1
    2664:	fed43423          	sd	a3,-24(s0)
    2668:	0007c783          	lbu	a5,0(a5)
    266c:	00f72023          	sw	a5,0(a4)
    2670:	fe843783          	ld	a5,-24(s0)
    2674:	0007c783          	lbu	a5,0(a5)
    2678:	fc0794e3          	bnez	a5,2640 <uart_send_string+0x14>
    267c:	00000013          	nop
    2680:	01813403          	ld	s0,24(sp)
    2684:	02010113          	addi	sp,sp,32
    2688:	00008067          	ret

000000000000268c <uart_send_buf>:
    268c:	fd010113          	addi	sp,sp,-48
    2690:	02813423          	sd	s0,40(sp)
    2694:	03010413          	addi	s0,sp,48
    2698:	fca43c23          	sd	a0,-40(s0)
    269c:	fcb42a23          	sw	a1,-44(s0)
    26a0:	fe042623          	sw	zero,-20(s0)
    26a4:	0400006f          	j	26e4 <uart_send_buf+0x58>
    26a8:	00000013          	nop
    26ac:	8101b783          	ld	a5,-2032(gp)
    26b0:	01478793          	addi	a5,a5,20
    26b4:	0007a783          	lw	a5,0(a5)
    26b8:	0407f793          	andi	a5,a5,64
    26bc:	fe0788e3          	beqz	a5,26ac <uart_send_buf+0x20>
    26c0:	8101b783          	ld	a5,-2032(gp)
    26c4:	fec42703          	lw	a4,-20(s0)
    26c8:	fd843683          	ld	a3,-40(s0)
    26cc:	00e68733          	add	a4,a3,a4
    26d0:	00074703          	lbu	a4,0(a4)
    26d4:	00e7a023          	sw	a4,0(a5)
    26d8:	fec42783          	lw	a5,-20(s0)
    26dc:	0017879b          	addiw	a5,a5,1
    26e0:	fef42623          	sw	a5,-20(s0)
    26e4:	fec42703          	lw	a4,-20(s0)
    26e8:	fd442783          	lw	a5,-44(s0)
    26ec:	faf74ee3          	blt	a4,a5,26a8 <uart_send_buf+0x1c>
    26f0:	00000013          	nop
    26f4:	02813403          	ld	s0,40(sp)
    26f8:	03010113          	addi	sp,sp,48
    26fc:	00008067          	ret

0000000000002700 <uart_recv>:
    2700:	ff010113          	addi	sp,sp,-16
    2704:	00813423          	sd	s0,8(sp)
    2708:	01010413          	addi	s0,sp,16
    270c:	00000013          	nop
    2710:	8101b783          	ld	a5,-2032(gp)
    2714:	01478793          	addi	a5,a5,20
    2718:	0007a783          	lw	a5,0(a5)
    271c:	0017f793          	andi	a5,a5,1
    2720:	fe0788e3          	beqz	a5,2710 <uart_recv+0x10>
    2724:	8101b783          	ld	a5,-2032(gp)
    2728:	0007a783          	lw	a5,0(a5)
    272c:	0ff7f793          	andi	a5,a5,255
    2730:	00078513          	mv	a0,a5
    2734:	00813403          	ld	s0,8(sp)
    2738:	01010113          	addi	sp,sp,16
    273c:	00008067          	ret

0000000000002740 <uart_read_irq>:
    2740:	ff010113          	addi	sp,sp,-16
    2744:	00813423          	sd	s0,8(sp)
    2748:	01010413          	addi	s0,sp,16
    274c:	8101b783          	ld	a5,-2032(gp)
    2750:	0007a783          	lw	a5,0(a5)
    2754:	0ff7f793          	andi	a5,a5,255
    2758:	00078513          	mv	a0,a5
    275c:	00813403          	ld	s0,8(sp)
    2760:	01010113          	addi	sp,sp,16
    2764:	00008067          	ret

0000000000002768 <uart_check_read_irq>:
    2768:	ff010113          	addi	sp,sp,-16
    276c:	00813423          	sd	s0,8(sp)
    2770:	01010413          	addi	s0,sp,16
    2774:	8101b783          	ld	a5,-2032(gp)
    2778:	01478793          	addi	a5,a5,20
    277c:	0007a783          	lw	a5,0(a5)
    2780:	0ff7f793          	andi	a5,a5,255
    2784:	0017f793          	andi	a5,a5,1
    2788:	0ff7f793          	andi	a5,a5,255
    278c:	00078513          	mv	a0,a5
    2790:	00813403          	ld	s0,8(sp)
    2794:	01010113          	addi	sp,sp,16
    2798:	00008067          	ret

000000000000279c <uart_enable_read_irq>:
    279c:	ff010113          	addi	sp,sp,-16
    27a0:	00813423          	sd	s0,8(sp)
    27a4:	01010413          	addi	s0,sp,16
    27a8:	8101b783          	ld	a5,-2032(gp)
    27ac:	00478793          	addi	a5,a5,4
    27b0:	00100713          	li	a4,1
    27b4:	00e7a023          	sw	a4,0(a5)
    27b8:	00000013          	nop
    27bc:	00813403          	ld	s0,8(sp)
    27c0:	01010113          	addi	sp,sp,16
    27c4:	00008067          	ret

00000000000027c8 <uart_disable_read_irq>:
    27c8:	ff010113          	addi	sp,sp,-16
    27cc:	00813423          	sd	s0,8(sp)
    27d0:	01010413          	addi	s0,sp,16
    27d4:	8101b783          	ld	a5,-2032(gp)
    27d8:	00478793          	addi	a5,a5,4
    27dc:	0007a023          	sw	zero,0(a5)
    27e0:	00000013          	nop
    27e4:	00813403          	ld	s0,8(sp)
    27e8:	01010113          	addi	sp,sp,16
    27ec:	00008067          	ret

00000000000027f0 <get_bram_base>:
    27f0:	ff010113          	addi	sp,sp,-16
    27f4:	00813423          	sd	s0,8(sp)
    27f8:	01010413          	addi	s0,sp,16
    27fc:	00000793          	li	a5,0
    2800:	00078513          	mv	a0,a5
    2804:	00813403          	ld	s0,8(sp)
    2808:	01010113          	addi	sp,sp,16
    280c:	00008067          	ret

0000000000002810 <get_ddr_base>:
    2810:	ff010113          	addi	sp,sp,-16
    2814:	00813423          	sd	s0,8(sp)
    2818:	01010413          	addi	s0,sp,16
    281c:	400007b7          	lui	a5,0x40000
    2820:	00078513          	mv	a0,a5
    2824:	00813403          	ld	s0,8(sp)
    2828:	01010113          	addi	sp,sp,16
    282c:	00008067          	ret

0000000000002830 <load_elf>:
    2830:	fb010113          	addi	sp,sp,-80
    2834:	04113423          	sd	ra,72(sp)
    2838:	04813023          	sd	s0,64(sp)
    283c:	05010413          	addi	s0,sp,80
    2840:	fca43423          	sd	a0,-56(s0)
    2844:	fcb43023          	sd	a1,-64(s0)
    2848:	fac42e23          	sw	a2,-68(s0)
    284c:	fbc42703          	lw	a4,-68(s0)
    2850:	04000793          	li	a5,64
    2854:	00e7e663          	bltu	a5,a4,2860 <load_elf+0x30>
    2858:	00100793          	li	a5,1
    285c:	2bc0006f          	j	2b18 <load_elf+0x2e8>
    2860:	fc043783          	ld	a5,-64(s0)
    2864:	fef43023          	sd	a5,-32(s0)
    2868:	fe043783          	ld	a5,-32(s0)
    286c:	0007c703          	lbu	a4,0(a5) # 40000000 <_gp+0x3fff4648>
    2870:	07f00793          	li	a5,127
    2874:	04f71263          	bne	a4,a5,28b8 <load_elf+0x88>
    2878:	fe043783          	ld	a5,-32(s0)
    287c:	0017c703          	lbu	a4,1(a5)
    2880:	04500793          	li	a5,69
    2884:	02f71a63          	bne	a4,a5,28b8 <load_elf+0x88>
    2888:	fe043783          	ld	a5,-32(s0)
    288c:	0027c703          	lbu	a4,2(a5)
    2890:	04c00793          	li	a5,76
    2894:	02f71263          	bne	a4,a5,28b8 <load_elf+0x88>
    2898:	fe043783          	ld	a5,-32(s0)
    289c:	0037c703          	lbu	a4,3(a5)
    28a0:	04600793          	li	a5,70
    28a4:	00f71a63          	bne	a4,a5,28b8 <load_elf+0x88>
    28a8:	fe043783          	ld	a5,-32(s0)
    28ac:	0047c703          	lbu	a4,4(a5)
    28b0:	00200793          	li	a5,2
    28b4:	00f70663          	beq	a4,a5,28c0 <load_elf+0x90>
    28b8:	00200793          	li	a5,2
    28bc:	25c0006f          	j	2b18 <load_elf+0x2e8>
    28c0:	fe043783          	ld	a5,-32(s0)
    28c4:	0207b783          	ld	a5,32(a5)
    28c8:	fc043703          	ld	a4,-64(s0)
    28cc:	00f707b3          	add	a5,a4,a5
    28d0:	fcf43c23          	sd	a5,-40(s0)
    28d4:	fbc46703          	lwu	a4,-68(s0)
    28d8:	fe043783          	ld	a5,-32(s0)
    28dc:	0207b683          	ld	a3,32(a5)
    28e0:	fe043783          	ld	a5,-32(s0)
    28e4:	0387d783          	lhu	a5,56(a5)
    28e8:	00379793          	slli	a5,a5,0x3
    28ec:	00379613          	slli	a2,a5,0x3
    28f0:	40f607b3          	sub	a5,a2,a5
    28f4:	00f687b3          	add	a5,a3,a5
    28f8:	00f77663          	bleu	a5,a4,2904 <load_elf+0xd4>
    28fc:	00300793          	li	a5,3
    2900:	2180006f          	j	2b18 <load_elf+0x2e8>
    2904:	fe042623          	sw	zero,-20(s0)
    2908:	1f80006f          	j	2b00 <load_elf+0x2d0>
    290c:	fec46783          	lwu	a5,-20(s0)
    2910:	00379793          	slli	a5,a5,0x3
    2914:	00379713          	slli	a4,a5,0x3
    2918:	40f707b3          	sub	a5,a4,a5
    291c:	fd843703          	ld	a4,-40(s0)
    2920:	00f707b3          	add	a5,a4,a5
    2924:	0007a703          	lw	a4,0(a5)
    2928:	00100793          	li	a5,1
    292c:	1cf71463          	bne	a4,a5,2af4 <load_elf+0x2c4>
    2930:	fec46783          	lwu	a5,-20(s0)
    2934:	00379793          	slli	a5,a5,0x3
    2938:	00379713          	slli	a4,a5,0x3
    293c:	40f707b3          	sub	a5,a4,a5
    2940:	fd843703          	ld	a4,-40(s0)
    2944:	00f707b3          	add	a5,a4,a5
    2948:	0287b783          	ld	a5,40(a5)
    294c:	1a078463          	beqz	a5,2af4 <load_elf+0x2c4>
    2950:	fec46783          	lwu	a5,-20(s0)
    2954:	00379793          	slli	a5,a5,0x3
    2958:	00379713          	slli	a4,a5,0x3
    295c:	40f707b3          	sub	a5,a4,a5
    2960:	fd843703          	ld	a4,-40(s0)
    2964:	00f707b3          	add	a5,a4,a5
    2968:	0207b783          	ld	a5,32(a5)
    296c:	0c078063          	beqz	a5,2a2c <load_elf+0x1fc>
    2970:	fbc46703          	lwu	a4,-68(s0)
    2974:	fec46783          	lwu	a5,-20(s0)
    2978:	00379793          	slli	a5,a5,0x3
    297c:	00379693          	slli	a3,a5,0x3
    2980:	40f687b3          	sub	a5,a3,a5
    2984:	fd843683          	ld	a3,-40(s0)
    2988:	00f687b3          	add	a5,a3,a5
    298c:	0087b683          	ld	a3,8(a5)
    2990:	fec46783          	lwu	a5,-20(s0)
    2994:	00379793          	slli	a5,a5,0x3
    2998:	00379613          	slli	a2,a5,0x3
    299c:	40f607b3          	sub	a5,a2,a5
    29a0:	fd843603          	ld	a2,-40(s0)
    29a4:	00f607b3          	add	a5,a2,a5
    29a8:	0207b783          	ld	a5,32(a5)
    29ac:	00f687b3          	add	a5,a3,a5
    29b0:	00f77663          	bleu	a5,a4,29bc <load_elf+0x18c>
    29b4:	00300793          	li	a5,3
    29b8:	1600006f          	j	2b18 <load_elf+0x2e8>
    29bc:	fec46783          	lwu	a5,-20(s0)
    29c0:	00379793          	slli	a5,a5,0x3
    29c4:	00379713          	slli	a4,a5,0x3
    29c8:	40f707b3          	sub	a5,a4,a5
    29cc:	fd843703          	ld	a4,-40(s0)
    29d0:	00f707b3          	add	a5,a4,a5
    29d4:	0187b783          	ld	a5,24(a5)
    29d8:	fc843703          	ld	a4,-56(s0)
    29dc:	00f706b3          	add	a3,a4,a5
    29e0:	fec46783          	lwu	a5,-20(s0)
    29e4:	00379793          	slli	a5,a5,0x3
    29e8:	00379713          	slli	a4,a5,0x3
    29ec:	40f707b3          	sub	a5,a4,a5
    29f0:	fd843703          	ld	a4,-40(s0)
    29f4:	00f707b3          	add	a5,a4,a5
    29f8:	0087b783          	ld	a5,8(a5)
    29fc:	fc043703          	ld	a4,-64(s0)
    2a00:	00f705b3          	add	a1,a4,a5
    2a04:	fec46783          	lwu	a5,-20(s0)
    2a08:	00379793          	slli	a5,a5,0x3
    2a0c:	00379713          	slli	a4,a5,0x3
    2a10:	40f707b3          	sub	a5,a4,a5
    2a14:	fd843703          	ld	a4,-40(s0)
    2a18:	00f707b3          	add	a5,a4,a5
    2a1c:	0207b783          	ld	a5,32(a5)
    2a20:	00078613          	mv	a2,a5
    2a24:	00068513          	mv	a0,a3
    2a28:	178070ef          	jal	ra,9ba0 <memcpy>
    2a2c:	fec46783          	lwu	a5,-20(s0)
    2a30:	00379793          	slli	a5,a5,0x3
    2a34:	00379713          	slli	a4,a5,0x3
    2a38:	40f707b3          	sub	a5,a4,a5
    2a3c:	fd843703          	ld	a4,-40(s0)
    2a40:	00f707b3          	add	a5,a4,a5
    2a44:	0287b703          	ld	a4,40(a5)
    2a48:	fec46783          	lwu	a5,-20(s0)
    2a4c:	00379793          	slli	a5,a5,0x3
    2a50:	00379693          	slli	a3,a5,0x3
    2a54:	40f687b3          	sub	a5,a3,a5
    2a58:	fd843683          	ld	a3,-40(s0)
    2a5c:	00f687b3          	add	a5,a3,a5
    2a60:	0207b783          	ld	a5,32(a5)
    2a64:	08e7f863          	bleu	a4,a5,2af4 <load_elf+0x2c4>
    2a68:	fec46783          	lwu	a5,-20(s0)
    2a6c:	00379793          	slli	a5,a5,0x3
    2a70:	00379713          	slli	a4,a5,0x3
    2a74:	40f707b3          	sub	a5,a4,a5
    2a78:	fd843703          	ld	a4,-40(s0)
    2a7c:	00f707b3          	add	a5,a4,a5
    2a80:	0187b703          	ld	a4,24(a5)
    2a84:	fec46783          	lwu	a5,-20(s0)
    2a88:	00379793          	slli	a5,a5,0x3
    2a8c:	00379693          	slli	a3,a5,0x3
    2a90:	40f687b3          	sub	a5,a3,a5
    2a94:	fd843683          	ld	a3,-40(s0)
    2a98:	00f687b3          	add	a5,a3,a5
    2a9c:	0207b783          	ld	a5,32(a5)
    2aa0:	00f707b3          	add	a5,a4,a5
    2aa4:	fc843703          	ld	a4,-56(s0)
    2aa8:	00f70533          	add	a0,a4,a5
    2aac:	fec46783          	lwu	a5,-20(s0)
    2ab0:	00379793          	slli	a5,a5,0x3
    2ab4:	00379713          	slli	a4,a5,0x3
    2ab8:	40f707b3          	sub	a5,a4,a5
    2abc:	fd843703          	ld	a4,-40(s0)
    2ac0:	00f707b3          	add	a5,a4,a5
    2ac4:	0287b703          	ld	a4,40(a5)
    2ac8:	fec46783          	lwu	a5,-20(s0)
    2acc:	00379793          	slli	a5,a5,0x3
    2ad0:	00379693          	slli	a3,a5,0x3
    2ad4:	40f687b3          	sub	a5,a3,a5
    2ad8:	fd843683          	ld	a3,-40(s0)
    2adc:	00f687b3          	add	a5,a3,a5
    2ae0:	0207b783          	ld	a5,32(a5)
    2ae4:	40f707b3          	sub	a5,a4,a5
    2ae8:	00078613          	mv	a2,a5
    2aec:	00000593          	li	a1,0
    2af0:	1d0070ef          	jal	ra,9cc0 <memset>
    2af4:	fec42783          	lw	a5,-20(s0)
    2af8:	0017879b          	addiw	a5,a5,1
    2afc:	fef42623          	sw	a5,-20(s0)
    2b00:	fe043783          	ld	a5,-32(s0)
    2b04:	0387d783          	lhu	a5,56(a5)
    2b08:	00078713          	mv	a4,a5
    2b0c:	fec42783          	lw	a5,-20(s0)
    2b10:	dee7eee3          	bltu	a5,a4,290c <load_elf+0xdc>
    2b14:	00000793          	li	a5,0
    2b18:	00078513          	mv	a0,a5
    2b1c:	04813083          	ld	ra,72(sp)
    2b20:	04013403          	ld	s0,64(sp)
    2b24:	05010113          	addi	sp,sp,80
    2b28:	00008067          	ret

0000000000002b2c <power_on>:
    2b2c:	ff010113          	addi	sp,sp,-16
    2b30:	00113423          	sd	ra,8(sp)
    2b34:	00813023          	sd	s0,0(sp)
    2b38:	01010413          	addi	s0,sp,16
    2b3c:	fb4ff0ef          	jal	ra,22f0 <spi_init>
    2b40:	00000013          	nop
    2b44:	00813083          	ld	ra,8(sp)
    2b48:	00013403          	ld	s0,0(sp)
    2b4c:	01010113          	addi	sp,sp,16
    2b50:	00008067          	ret

0000000000002b54 <power_off>:
    2b54:	ff010113          	addi	sp,sp,-16
    2b58:	00113423          	sd	ra,8(sp)
    2b5c:	00813023          	sd	s0,0(sp)
    2b60:	01010413          	addi	s0,sp,16
    2b64:	fe4ff0ef          	jal	ra,2348 <spi_disable>
    2b68:	00000013          	nop
    2b6c:	00813083          	ld	ra,8(sp)
    2b70:	00013403          	ld	s0,0(sp)
    2b74:	01010113          	addi	sp,sp,16
    2b78:	00008067          	ret

0000000000002b7c <xchg_spi>:
    2b7c:	fe010113          	addi	sp,sp,-32
    2b80:	00113c23          	sd	ra,24(sp)
    2b84:	00813823          	sd	s0,16(sp)
    2b88:	02010413          	addi	s0,sp,32
    2b8c:	00050793          	mv	a5,a0
    2b90:	fef407a3          	sb	a5,-17(s0)
    2b94:	fef44783          	lbu	a5,-17(s0)
    2b98:	00078513          	mv	a0,a5
    2b9c:	fd8ff0ef          	jal	ra,2374 <spi_send>
    2ba0:	00050793          	mv	a5,a0
    2ba4:	00078513          	mv	a0,a5
    2ba8:	01813083          	ld	ra,24(sp)
    2bac:	01013403          	ld	s0,16(sp)
    2bb0:	02010113          	addi	sp,sp,32
    2bb4:	00008067          	ret

0000000000002bb8 <xmit_spi_multi>:
    2bb8:	fd010113          	addi	sp,sp,-48
    2bbc:	02113423          	sd	ra,40(sp)
    2bc0:	02813023          	sd	s0,32(sp)
    2bc4:	03010413          	addi	s0,sp,48
    2bc8:	fca43c23          	sd	a0,-40(s0)
    2bcc:	fcb42a23          	sw	a1,-44(s0)
    2bd0:	fe042623          	sw	zero,-20(s0)
    2bd4:	fe042623          	sw	zero,-20(s0)
    2bd8:	0700006f          	j	2c48 <xmit_spi_multi+0x90>
    2bdc:	fec42783          	lw	a5,-20(s0)
    2be0:	0107879b          	addiw	a5,a5,16
    2be4:	00078713          	mv	a4,a5
    2be8:	fd442783          	lw	a5,-44(s0)
    2bec:	02e7e063          	bltu	a5,a4,2c0c <xmit_spi_multi+0x54>
    2bf0:	fec42783          	lw	a5,-20(s0)
    2bf4:	fd843703          	ld	a4,-40(s0)
    2bf8:	00f707b3          	add	a5,a4,a5
    2bfc:	01000593          	li	a1,16
    2c00:	00078513          	mv	a0,a5
    2c04:	fd0ff0ef          	jal	ra,23d4 <spi_send_multi>
    2c08:	0340006f          	j	2c3c <xmit_spi_multi+0x84>
    2c0c:	fec42783          	lw	a5,-20(s0)
    2c10:	fd843703          	ld	a4,-40(s0)
    2c14:	00f706b3          	add	a3,a4,a5
    2c18:	fd442783          	lw	a5,-44(s0)
    2c1c:	0ff7f713          	andi	a4,a5,255
    2c20:	fec42783          	lw	a5,-20(s0)
    2c24:	0ff7f793          	andi	a5,a5,255
    2c28:	40f707bb          	subw	a5,a4,a5
    2c2c:	0ff7f793          	andi	a5,a5,255
    2c30:	00078593          	mv	a1,a5
    2c34:	00068513          	mv	a0,a3
    2c38:	f9cff0ef          	jal	ra,23d4 <spi_send_multi>
    2c3c:	fec42783          	lw	a5,-20(s0)
    2c40:	0107879b          	addiw	a5,a5,16
    2c44:	fef42623          	sw	a5,-20(s0)
    2c48:	fec42703          	lw	a4,-20(s0)
    2c4c:	fd442783          	lw	a5,-44(s0)
    2c50:	f8f766e3          	bltu	a4,a5,2bdc <xmit_spi_multi+0x24>
    2c54:	00000013          	nop
    2c58:	02813083          	ld	ra,40(sp)
    2c5c:	02013403          	ld	s0,32(sp)
    2c60:	03010113          	addi	sp,sp,48
    2c64:	00008067          	ret

0000000000002c68 <rcvr_spi_multi>:
    2c68:	fd010113          	addi	sp,sp,-48
    2c6c:	02113423          	sd	ra,40(sp)
    2c70:	02813023          	sd	s0,32(sp)
    2c74:	03010413          	addi	s0,sp,48
    2c78:	fca43c23          	sd	a0,-40(s0)
    2c7c:	fcb42a23          	sw	a1,-44(s0)
    2c80:	fe042623          	sw	zero,-20(s0)
    2c84:	fe042623          	sw	zero,-20(s0)
    2c88:	0700006f          	j	2cf8 <rcvr_spi_multi+0x90>
    2c8c:	fec42783          	lw	a5,-20(s0)
    2c90:	0107879b          	addiw	a5,a5,16
    2c94:	00078713          	mv	a4,a5
    2c98:	fd442783          	lw	a5,-44(s0)
    2c9c:	02e7e063          	bltu	a5,a4,2cbc <rcvr_spi_multi+0x54>
    2ca0:	fec42783          	lw	a5,-20(s0)
    2ca4:	fd843703          	ld	a4,-40(s0)
    2ca8:	00f707b3          	add	a5,a4,a5
    2cac:	01000593          	li	a1,16
    2cb0:	00078513          	mv	a0,a5
    2cb4:	fb0ff0ef          	jal	ra,2464 <spi_recv_multi>
    2cb8:	0340006f          	j	2cec <rcvr_spi_multi+0x84>
    2cbc:	fec42783          	lw	a5,-20(s0)
    2cc0:	fd843703          	ld	a4,-40(s0)
    2cc4:	00f706b3          	add	a3,a4,a5
    2cc8:	fd442783          	lw	a5,-44(s0)
    2ccc:	0ff7f713          	andi	a4,a5,255
    2cd0:	fec42783          	lw	a5,-20(s0)
    2cd4:	0ff7f793          	andi	a5,a5,255
    2cd8:	40f707bb          	subw	a5,a4,a5
    2cdc:	0ff7f793          	andi	a5,a5,255
    2ce0:	00078593          	mv	a1,a5
    2ce4:	00068513          	mv	a0,a3
    2ce8:	f7cff0ef          	jal	ra,2464 <spi_recv_multi>
    2cec:	fec42783          	lw	a5,-20(s0)
    2cf0:	0107879b          	addiw	a5,a5,16
    2cf4:	fef42623          	sw	a5,-20(s0)
    2cf8:	fec42703          	lw	a4,-20(s0)
    2cfc:	fd442783          	lw	a5,-44(s0)
    2d00:	f8f766e3          	bltu	a4,a5,2c8c <rcvr_spi_multi+0x24>
    2d04:	00000013          	nop
    2d08:	02813083          	ld	ra,40(sp)
    2d0c:	02013403          	ld	s0,32(sp)
    2d10:	03010113          	addi	sp,sp,48
    2d14:	00008067          	ret

0000000000002d18 <wait_ready>:
    2d18:	fd010113          	addi	sp,sp,-48
    2d1c:	02113423          	sd	ra,40(sp)
    2d20:	02813023          	sd	s0,32(sp)
    2d24:	03010413          	addi	s0,sp,48
    2d28:	fca42e23          	sw	a0,-36(s0)
    2d2c:	fdc42703          	lw	a4,-36(s0)
    2d30:	000017b7          	lui	a5,0x1
    2d34:	3887879b          	addiw	a5,a5,904
    2d38:	02f707bb          	mulw	a5,a4,a5
    2d3c:	fef42623          	sw	a5,-20(s0)
    2d40:	0ff00513          	li	a0,255
    2d44:	e39ff0ef          	jal	ra,2b7c <xchg_spi>
    2d48:	00050793          	mv	a5,a0
    2d4c:	fef405a3          	sb	a5,-21(s0)
    2d50:	fec42783          	lw	a5,-20(s0)
    2d54:	fff7879b          	addiw	a5,a5,-1
    2d58:	fef42623          	sw	a5,-20(s0)
    2d5c:	feb44703          	lbu	a4,-21(s0)
    2d60:	0ff00793          	li	a5,255
    2d64:	00f70663          	beq	a4,a5,2d70 <wait_ready+0x58>
    2d68:	fec42783          	lw	a5,-20(s0)
    2d6c:	fc079ae3          	bnez	a5,2d40 <wait_ready+0x28>
    2d70:	feb44783          	lbu	a5,-21(s0)
    2d74:	f017879b          	addiw	a5,a5,-255
    2d78:	0017b793          	seqz	a5,a5
    2d7c:	0ff7f793          	andi	a5,a5,255
    2d80:	00078513          	mv	a0,a5
    2d84:	02813083          	ld	ra,40(sp)
    2d88:	02013403          	ld	s0,32(sp)
    2d8c:	03010113          	addi	sp,sp,48
    2d90:	00008067          	ret

0000000000002d94 <deselect>:
    2d94:	ff010113          	addi	sp,sp,-16
    2d98:	00113423          	sd	ra,8(sp)
    2d9c:	00813023          	sd	s0,0(sp)
    2da0:	01010413          	addi	s0,sp,16
    2da4:	00000513          	li	a0,0
    2da8:	fa4ff0ef          	jal	ra,254c <spi_deselect_slave>
    2dac:	00000013          	nop
    2db0:	00813083          	ld	ra,8(sp)
    2db4:	00013403          	ld	s0,0(sp)
    2db8:	01010113          	addi	sp,sp,16
    2dbc:	00008067          	ret

0000000000002dc0 <select>:
    2dc0:	ff010113          	addi	sp,sp,-16
    2dc4:	00113423          	sd	ra,8(sp)
    2dc8:	00813023          	sd	s0,0(sp)
    2dcc:	01010413          	addi	s0,sp,16
    2dd0:	00000513          	li	a0,0
    2dd4:	f44ff0ef          	jal	ra,2518 <spi_select_slave>
    2dd8:	1f400513          	li	a0,500
    2ddc:	f3dff0ef          	jal	ra,2d18 <wait_ready>
    2de0:	00050793          	mv	a5,a0
    2de4:	00078663          	beqz	a5,2df0 <select+0x30>
    2de8:	00100793          	li	a5,1
    2dec:	00c0006f          	j	2df8 <select+0x38>
    2df0:	fa5ff0ef          	jal	ra,2d94 <deselect>
    2df4:	00000793          	li	a5,0
    2df8:	00078513          	mv	a0,a5
    2dfc:	00813083          	ld	ra,8(sp)
    2e00:	00013403          	ld	s0,0(sp)
    2e04:	01010113          	addi	sp,sp,16
    2e08:	00008067          	ret

0000000000002e0c <rcvr_datablock>:
    2e0c:	fd010113          	addi	sp,sp,-48
    2e10:	02113423          	sd	ra,40(sp)
    2e14:	02813023          	sd	s0,32(sp)
    2e18:	03010413          	addi	s0,sp,48
    2e1c:	fca43c23          	sd	a0,-40(s0)
    2e20:	fcb42a23          	sw	a1,-44(s0)
    2e24:	000f47b7          	lui	a5,0xf4
    2e28:	2407879b          	addiw	a5,a5,576
    2e2c:	fef42623          	sw	a5,-20(s0)
    2e30:	0ff00513          	li	a0,255
    2e34:	d49ff0ef          	jal	ra,2b7c <xchg_spi>
    2e38:	00050793          	mv	a5,a0
    2e3c:	fef405a3          	sb	a5,-21(s0)
    2e40:	fec42783          	lw	a5,-20(s0)
    2e44:	fff7879b          	addiw	a5,a5,-1
    2e48:	fef42623          	sw	a5,-20(s0)
    2e4c:	feb44703          	lbu	a4,-21(s0)
    2e50:	0ff00793          	li	a5,255
    2e54:	00f71663          	bne	a4,a5,2e60 <rcvr_datablock+0x54>
    2e58:	fec42783          	lw	a5,-20(s0)
    2e5c:	fc079ae3          	bnez	a5,2e30 <rcvr_datablock+0x24>
    2e60:	feb44703          	lbu	a4,-21(s0)
    2e64:	0fe00793          	li	a5,254
    2e68:	00f70663          	beq	a4,a5,2e74 <rcvr_datablock+0x68>
    2e6c:	00000793          	li	a5,0
    2e70:	0240006f          	j	2e94 <rcvr_datablock+0x88>
    2e74:	fd442583          	lw	a1,-44(s0)
    2e78:	fd843503          	ld	a0,-40(s0)
    2e7c:	dedff0ef          	jal	ra,2c68 <rcvr_spi_multi>
    2e80:	0ff00513          	li	a0,255
    2e84:	cf9ff0ef          	jal	ra,2b7c <xchg_spi>
    2e88:	0ff00513          	li	a0,255
    2e8c:	cf1ff0ef          	jal	ra,2b7c <xchg_spi>
    2e90:	00100793          	li	a5,1
    2e94:	00078513          	mv	a0,a5
    2e98:	02813083          	ld	ra,40(sp)
    2e9c:	02013403          	ld	s0,32(sp)
    2ea0:	03010113          	addi	sp,sp,48
    2ea4:	00008067          	ret

0000000000002ea8 <xmit_datablock>:
    2ea8:	fd010113          	addi	sp,sp,-48
    2eac:	02113423          	sd	ra,40(sp)
    2eb0:	02813023          	sd	s0,32(sp)
    2eb4:	03010413          	addi	s0,sp,48
    2eb8:	fca43c23          	sd	a0,-40(s0)
    2ebc:	00058793          	mv	a5,a1
    2ec0:	fcf40ba3          	sb	a5,-41(s0)
    2ec4:	1f400513          	li	a0,500
    2ec8:	e51ff0ef          	jal	ra,2d18 <wait_ready>
    2ecc:	00050793          	mv	a5,a0
    2ed0:	00079663          	bnez	a5,2edc <xmit_datablock+0x34>
    2ed4:	00000793          	li	a5,0
    2ed8:	0840006f          	j	2f5c <xmit_datablock+0xb4>
    2edc:	fd744783          	lbu	a5,-41(s0)
    2ee0:	00078513          	mv	a0,a5
    2ee4:	c99ff0ef          	jal	ra,2b7c <xchg_spi>
    2ee8:	fd744703          	lbu	a4,-41(s0)
    2eec:	0fd00793          	li	a5,253
    2ef0:	06f70063          	beq	a4,a5,2f50 <xmit_datablock+0xa8>
    2ef4:	20000593          	li	a1,512
    2ef8:	fd843503          	ld	a0,-40(s0)
    2efc:	cbdff0ef          	jal	ra,2bb8 <xmit_spi_multi>
    2f00:	00000013          	nop
    2f04:	0ff00513          	li	a0,255
    2f08:	c75ff0ef          	jal	ra,2b7c <xchg_spi>
    2f0c:	00050793          	mv	a5,a0
    2f10:	fe078ae3          	beqz	a5,2f04 <xmit_datablock+0x5c>
    2f14:	00000013          	nop
    2f18:	0ff00513          	li	a0,255
    2f1c:	c61ff0ef          	jal	ra,2b7c <xchg_spi>
    2f20:	00050793          	mv	a5,a0
    2f24:	fe078ae3          	beqz	a5,2f18 <xmit_datablock+0x70>
    2f28:	0ff00513          	li	a0,255
    2f2c:	c51ff0ef          	jal	ra,2b7c <xchg_spi>
    2f30:	00050793          	mv	a5,a0
    2f34:	fef407a3          	sb	a5,-17(s0)
    2f38:	fef44783          	lbu	a5,-17(s0)
    2f3c:	01f7f713          	andi	a4,a5,31
    2f40:	00500793          	li	a5,5
    2f44:	00f70663          	beq	a4,a5,2f50 <xmit_datablock+0xa8>
    2f48:	00000793          	li	a5,0
    2f4c:	0100006f          	j	2f5c <xmit_datablock+0xb4>
    2f50:	1f400513          	li	a0,500
    2f54:	dc5ff0ef          	jal	ra,2d18 <wait_ready>
    2f58:	00100793          	li	a5,1
    2f5c:	00078513          	mv	a0,a5
    2f60:	02813083          	ld	ra,40(sp)
    2f64:	02013403          	ld	s0,32(sp)
    2f68:	03010113          	addi	sp,sp,48
    2f6c:	00008067          	ret

0000000000002f70 <send_cmd>:
    2f70:	fd010113          	addi	sp,sp,-48
    2f74:	02113423          	sd	ra,40(sp)
    2f78:	02813023          	sd	s0,32(sp)
    2f7c:	03010413          	addi	s0,sp,48
    2f80:	00050793          	mv	a5,a0
    2f84:	fcb42c23          	sw	a1,-40(s0)
    2f88:	fcf40fa3          	sb	a5,-33(s0)
    2f8c:	fdf40783          	lb	a5,-33(s0)
    2f90:	0207dc63          	bgez	a5,2fc8 <send_cmd+0x58>
    2f94:	fdf44783          	lbu	a5,-33(s0)
    2f98:	07f7f793          	andi	a5,a5,127
    2f9c:	fcf40fa3          	sb	a5,-33(s0)
    2fa0:	00000593          	li	a1,0
    2fa4:	03700513          	li	a0,55
    2fa8:	fc9ff0ef          	jal	ra,2f70 <send_cmd>
    2fac:	00050793          	mv	a5,a0
    2fb0:	fef40723          	sb	a5,-18(s0)
    2fb4:	fee44703          	lbu	a4,-18(s0)
    2fb8:	00100793          	li	a5,1
    2fbc:	00e7f663          	bleu	a4,a5,2fc8 <send_cmd+0x58>
    2fc0:	fee44783          	lbu	a5,-18(s0)
    2fc4:	10c0006f          	j	30d0 <send_cmd+0x160>
    2fc8:	fdf44703          	lbu	a4,-33(s0)
    2fcc:	00c00793          	li	a5,12
    2fd0:	00f70e63          	beq	a4,a5,2fec <send_cmd+0x7c>
    2fd4:	dc1ff0ef          	jal	ra,2d94 <deselect>
    2fd8:	de9ff0ef          	jal	ra,2dc0 <select>
    2fdc:	00050793          	mv	a5,a0
    2fe0:	00079663          	bnez	a5,2fec <send_cmd+0x7c>
    2fe4:	0ff00793          	li	a5,255
    2fe8:	0e80006f          	j	30d0 <send_cmd+0x160>
    2fec:	fdf44783          	lbu	a5,-33(s0)
    2ff0:	0407e793          	ori	a5,a5,64
    2ff4:	0ff7f793          	andi	a5,a5,255
    2ff8:	00078513          	mv	a0,a5
    2ffc:	b81ff0ef          	jal	ra,2b7c <xchg_spi>
    3000:	fd842783          	lw	a5,-40(s0)
    3004:	0187d79b          	srliw	a5,a5,0x18
    3008:	0ff7f793          	andi	a5,a5,255
    300c:	00078513          	mv	a0,a5
    3010:	b6dff0ef          	jal	ra,2b7c <xchg_spi>
    3014:	fd842783          	lw	a5,-40(s0)
    3018:	0107d79b          	srliw	a5,a5,0x10
    301c:	0ff7f793          	andi	a5,a5,255
    3020:	00078513          	mv	a0,a5
    3024:	b59ff0ef          	jal	ra,2b7c <xchg_spi>
    3028:	fd842783          	lw	a5,-40(s0)
    302c:	0087d79b          	srliw	a5,a5,0x8
    3030:	0ff7f793          	andi	a5,a5,255
    3034:	00078513          	mv	a0,a5
    3038:	b45ff0ef          	jal	ra,2b7c <xchg_spi>
    303c:	fd842783          	lw	a5,-40(s0)
    3040:	0ff7f793          	andi	a5,a5,255
    3044:	00078513          	mv	a0,a5
    3048:	b35ff0ef          	jal	ra,2b7c <xchg_spi>
    304c:	00100793          	li	a5,1
    3050:	fef407a3          	sb	a5,-17(s0)
    3054:	fdf44783          	lbu	a5,-33(s0)
    3058:	00079663          	bnez	a5,3064 <send_cmd+0xf4>
    305c:	f9500793          	li	a5,-107
    3060:	fef407a3          	sb	a5,-17(s0)
    3064:	fdf44703          	lbu	a4,-33(s0)
    3068:	00800793          	li	a5,8
    306c:	00f71663          	bne	a4,a5,3078 <send_cmd+0x108>
    3070:	f8700793          	li	a5,-121
    3074:	fef407a3          	sb	a5,-17(s0)
    3078:	fef44783          	lbu	a5,-17(s0)
    307c:	00078513          	mv	a0,a5
    3080:	afdff0ef          	jal	ra,2b7c <xchg_spi>
    3084:	fdf44703          	lbu	a4,-33(s0)
    3088:	00c00793          	li	a5,12
    308c:	00f71663          	bne	a4,a5,3098 <send_cmd+0x128>
    3090:	0ff00513          	li	a0,255
    3094:	ae9ff0ef          	jal	ra,2b7c <xchg_spi>
    3098:	00a00793          	li	a5,10
    309c:	fef407a3          	sb	a5,-17(s0)
    30a0:	0ff00513          	li	a0,255
    30a4:	ad9ff0ef          	jal	ra,2b7c <xchg_spi>
    30a8:	00050793          	mv	a5,a0
    30ac:	fef40723          	sb	a5,-18(s0)
    30b0:	fee40783          	lb	a5,-18(s0)
    30b4:	0007dc63          	bgez	a5,30cc <send_cmd+0x15c>
    30b8:	fef44783          	lbu	a5,-17(s0)
    30bc:	fff7879b          	addiw	a5,a5,-1
    30c0:	fef407a3          	sb	a5,-17(s0)
    30c4:	fef44783          	lbu	a5,-17(s0)
    30c8:	fc079ce3          	bnez	a5,30a0 <send_cmd+0x130>
    30cc:	fee44783          	lbu	a5,-18(s0)
    30d0:	00078513          	mv	a0,a5
    30d4:	02813083          	ld	ra,40(sp)
    30d8:	02013403          	ld	s0,32(sp)
    30dc:	03010113          	addi	sp,sp,48
    30e0:	00008067          	ret

00000000000030e4 <disk_initialize>:
    30e4:	fc010113          	addi	sp,sp,-64
    30e8:	02113c23          	sd	ra,56(sp)
    30ec:	02813823          	sd	s0,48(sp)
    30f0:	02913423          	sd	s1,40(sp)
    30f4:	04010413          	addi	s0,sp,64
    30f8:	00050793          	mv	a5,a0
    30fc:	fcf407a3          	sb	a5,-49(s0)
    3100:	fcf44783          	lbu	a5,-49(s0)
    3104:	00078663          	beqz	a5,3110 <disk_initialize+0x2c>
    3108:	00100793          	li	a5,1
    310c:	2980006f          	j	33a4 <disk_initialize+0x2c0>
    3110:	a45ff0ef          	jal	ra,2b54 <power_off>
    3114:	8181c783          	lbu	a5,-2024(gp)
    3118:	0ff7f793          	andi	a5,a5,255
    311c:	0027f793          	andi	a5,a5,2
    3120:	00078863          	beqz	a5,3130 <disk_initialize+0x4c>
    3124:	8181c783          	lbu	a5,-2024(gp)
    3128:	0ff7f793          	andi	a5,a5,255
    312c:	2780006f          	j	33a4 <disk_initialize+0x2c0>
    3130:	9fdff0ef          	jal	ra,2b2c <power_on>
    3134:	00a00793          	li	a5,10
    3138:	fcf40fa3          	sb	a5,-33(s0)
    313c:	0180006f          	j	3154 <disk_initialize+0x70>
    3140:	0ff00513          	li	a0,255
    3144:	a39ff0ef          	jal	ra,2b7c <xchg_spi>
    3148:	fdf44783          	lbu	a5,-33(s0)
    314c:	fff7879b          	addiw	a5,a5,-1
    3150:	fcf40fa3          	sb	a5,-33(s0)
    3154:	fdf44783          	lbu	a5,-33(s0)
    3158:	fe0794e3          	bnez	a5,3140 <disk_initialize+0x5c>
    315c:	fc040ea3          	sb	zero,-35(s0)
    3160:	00000593          	li	a1,0
    3164:	00000513          	li	a0,0
    3168:	e09ff0ef          	jal	ra,2f70 <send_cmd>
    316c:	00050793          	mv	a5,a0
    3170:	00078713          	mv	a4,a5
    3174:	00100793          	li	a5,1
    3178:	1ef71a63          	bne	a4,a5,336c <disk_initialize+0x288>
    317c:	000f47b7          	lui	a5,0xf4
    3180:	2407879b          	addiw	a5,a5,576
    3184:	fcf42c23          	sw	a5,-40(s0)
    3188:	fd842783          	lw	a5,-40(s0)
    318c:	fff7871b          	addiw	a4,a5,-1
    3190:	fce42c23          	sw	a4,-40(s0)
    3194:	12078663          	beqz	a5,32c0 <disk_initialize+0x1dc>
    3198:	1aa00593          	li	a1,426
    319c:	00800513          	li	a0,8
    31a0:	dd1ff0ef          	jal	ra,2f70 <send_cmd>
    31a4:	00050793          	mv	a5,a0
    31a8:	00078713          	mv	a4,a5
    31ac:	00100793          	li	a5,1
    31b0:	10f71863          	bne	a4,a5,32c0 <disk_initialize+0x1dc>
    31b4:	fc040fa3          	sb	zero,-33(s0)
    31b8:	0340006f          	j	31ec <disk_initialize+0x108>
    31bc:	fdf44483          	lbu	s1,-33(s0)
    31c0:	0ff00513          	li	a0,255
    31c4:	9b9ff0ef          	jal	ra,2b7c <xchg_spi>
    31c8:	00050793          	mv	a5,a0
    31cc:	00078713          	mv	a4,a5
    31d0:	00048793          	mv	a5,s1
    31d4:	fe040693          	addi	a3,s0,-32
    31d8:	00f687b3          	add	a5,a3,a5
    31dc:	fee78823          	sb	a4,-16(a5) # f3ff0 <_gp+0xe8638>
    31e0:	fdf44783          	lbu	a5,-33(s0)
    31e4:	0017879b          	addiw	a5,a5,1
    31e8:	fcf40fa3          	sb	a5,-33(s0)
    31ec:	fdf44703          	lbu	a4,-33(s0)
    31f0:	00300793          	li	a5,3
    31f4:	fce7f4e3          	bleu	a4,a5,31bc <disk_initialize+0xd8>
    31f8:	fd244703          	lbu	a4,-46(s0)
    31fc:	00100793          	li	a5,1
    3200:	16f71463          	bne	a4,a5,3368 <disk_initialize+0x284>
    3204:	fd344703          	lbu	a4,-45(s0)
    3208:	0aa00793          	li	a5,170
    320c:	14f71e63          	bne	a4,a5,3368 <disk_initialize+0x284>
    3210:	00000013          	nop
    3214:	fd842783          	lw	a5,-40(s0)
    3218:	fff7871b          	addiw	a4,a5,-1
    321c:	fce42c23          	sw	a4,-40(s0)
    3220:	00078c63          	beqz	a5,3238 <disk_initialize+0x154>
    3224:	400005b7          	lui	a1,0x40000
    3228:	0a900513          	li	a0,169
    322c:	d45ff0ef          	jal	ra,2f70 <send_cmd>
    3230:	00050793          	mv	a5,a0
    3234:	fe0790e3          	bnez	a5,3214 <disk_initialize+0x130>
    3238:	fd842783          	lw	a5,-40(s0)
    323c:	fff7871b          	addiw	a4,a5,-1
    3240:	fce42c23          	sw	a4,-40(s0)
    3244:	12078263          	beqz	a5,3368 <disk_initialize+0x284>
    3248:	00000593          	li	a1,0
    324c:	03a00513          	li	a0,58
    3250:	d21ff0ef          	jal	ra,2f70 <send_cmd>
    3254:	00050793          	mv	a5,a0
    3258:	10079863          	bnez	a5,3368 <disk_initialize+0x284>
    325c:	fc040fa3          	sb	zero,-33(s0)
    3260:	0340006f          	j	3294 <disk_initialize+0x1b0>
    3264:	fdf44483          	lbu	s1,-33(s0)
    3268:	0ff00513          	li	a0,255
    326c:	911ff0ef          	jal	ra,2b7c <xchg_spi>
    3270:	00050793          	mv	a5,a0
    3274:	00078713          	mv	a4,a5
    3278:	00048793          	mv	a5,s1
    327c:	fe040693          	addi	a3,s0,-32
    3280:	00f687b3          	add	a5,a3,a5
    3284:	fee78823          	sb	a4,-16(a5)
    3288:	fdf44783          	lbu	a5,-33(s0)
    328c:	0017879b          	addiw	a5,a5,1
    3290:	fcf40fa3          	sb	a5,-33(s0)
    3294:	fdf44703          	lbu	a4,-33(s0)
    3298:	00300793          	li	a5,3
    329c:	fce7f4e3          	bleu	a4,a5,3264 <disk_initialize+0x180>
    32a0:	fd044783          	lbu	a5,-48(s0)
    32a4:	0407f793          	andi	a5,a5,64
    32a8:	00078663          	beqz	a5,32b4 <disk_initialize+0x1d0>
    32ac:	00c00793          	li	a5,12
    32b0:	0080006f          	j	32b8 <disk_initialize+0x1d4>
    32b4:	00400793          	li	a5,4
    32b8:	fcf40ea3          	sb	a5,-35(s0)
    32bc:	0ac0006f          	j	3368 <disk_initialize+0x284>
    32c0:	fd842783          	lw	a5,-40(s0)
    32c4:	fff7871b          	addiw	a4,a5,-1
    32c8:	fce42c23          	sw	a4,-40(s0)
    32cc:	02078a63          	beqz	a5,3300 <disk_initialize+0x21c>
    32d0:	00000593          	li	a1,0
    32d4:	0a900513          	li	a0,169
    32d8:	c99ff0ef          	jal	ra,2f70 <send_cmd>
    32dc:	00050793          	mv	a5,a0
    32e0:	00078713          	mv	a4,a5
    32e4:	00100793          	li	a5,1
    32e8:	00e7ec63          	bltu	a5,a4,3300 <disk_initialize+0x21c>
    32ec:	00200793          	li	a5,2
    32f0:	fcf40ea3          	sb	a5,-35(s0)
    32f4:	fa900793          	li	a5,-87
    32f8:	fcf40f23          	sb	a5,-34(s0)
    32fc:	0140006f          	j	3310 <disk_initialize+0x22c>
    3300:	00100793          	li	a5,1
    3304:	fcf40ea3          	sb	a5,-35(s0)
    3308:	00100793          	li	a5,1
    330c:	fcf40f23          	sb	a5,-34(s0)
    3310:	00000013          	nop
    3314:	fd842783          	lw	a5,-40(s0)
    3318:	fff7871b          	addiw	a4,a5,-1
    331c:	fce42c23          	sw	a4,-40(s0)
    3320:	00078e63          	beqz	a5,333c <disk_initialize+0x258>
    3324:	fde44783          	lbu	a5,-34(s0)
    3328:	00000593          	li	a1,0
    332c:	00078513          	mv	a0,a5
    3330:	c41ff0ef          	jal	ra,2f70 <send_cmd>
    3334:	00050793          	mv	a5,a0
    3338:	fc079ee3          	bnez	a5,3314 <disk_initialize+0x230>
    333c:	fd842783          	lw	a5,-40(s0)
    3340:	fff7871b          	addiw	a4,a5,-1
    3344:	fce42c23          	sw	a4,-40(s0)
    3348:	00079c63          	bnez	a5,3360 <disk_initialize+0x27c>
    334c:	20000593          	li	a1,512
    3350:	01000513          	li	a0,16
    3354:	c1dff0ef          	jal	ra,2f70 <send_cmd>
    3358:	00050793          	mv	a5,a0
    335c:	00078863          	beqz	a5,336c <disk_initialize+0x288>
    3360:	fc040ea3          	sb	zero,-35(s0)
    3364:	0080006f          	j	336c <disk_initialize+0x288>
    3368:	00000013          	nop
    336c:	fdd44703          	lbu	a4,-35(s0)
    3370:	c6e18c23          	sb	a4,-904(gp)
    3374:	a21ff0ef          	jal	ra,2d94 <deselect>
    3378:	fdd44783          	lbu	a5,-35(s0)
    337c:	00078e63          	beqz	a5,3398 <disk_initialize+0x2b4>
    3380:	8181c783          	lbu	a5,-2024(gp)
    3384:	0ff7f793          	andi	a5,a5,255
    3388:	ffe7f793          	andi	a5,a5,-2
    338c:	0ff7f713          	andi	a4,a5,255
    3390:	80e18c23          	sb	a4,-2024(gp)
    3394:	0080006f          	j	339c <disk_initialize+0x2b8>
    3398:	fbcff0ef          	jal	ra,2b54 <power_off>
    339c:	8181c783          	lbu	a5,-2024(gp)
    33a0:	0ff7f793          	andi	a5,a5,255
    33a4:	00078513          	mv	a0,a5
    33a8:	03813083          	ld	ra,56(sp)
    33ac:	03013403          	ld	s0,48(sp)
    33b0:	02813483          	ld	s1,40(sp)
    33b4:	04010113          	addi	sp,sp,64
    33b8:	00008067          	ret

00000000000033bc <disk_status>:
    33bc:	fe010113          	addi	sp,sp,-32
    33c0:	00813c23          	sd	s0,24(sp)
    33c4:	02010413          	addi	s0,sp,32
    33c8:	00050793          	mv	a5,a0
    33cc:	fef407a3          	sb	a5,-17(s0)
    33d0:	fef44783          	lbu	a5,-17(s0)
    33d4:	00078663          	beqz	a5,33e0 <disk_status+0x24>
    33d8:	00100793          	li	a5,1
    33dc:	00c0006f          	j	33e8 <disk_status+0x2c>
    33e0:	8181c783          	lbu	a5,-2024(gp)
    33e4:	0ff7f793          	andi	a5,a5,255
    33e8:	00078513          	mv	a0,a5
    33ec:	01813403          	ld	s0,24(sp)
    33f0:	02010113          	addi	sp,sp,32
    33f4:	00008067          	ret

00000000000033f8 <disk_read>:
    33f8:	fc010113          	addi	sp,sp,-64
    33fc:	02113c23          	sd	ra,56(sp)
    3400:	02813823          	sd	s0,48(sp)
    3404:	04010413          	addi	s0,sp,64
    3408:	00050793          	mv	a5,a0
    340c:	fcb43823          	sd	a1,-48(s0)
    3410:	fcc42c23          	sw	a2,-40(s0)
    3414:	fcd42623          	sw	a3,-52(s0)
    3418:	fcf40fa3          	sb	a5,-33(s0)
    341c:	fdf44783          	lbu	a5,-33(s0)
    3420:	00079663          	bnez	a5,342c <disk_read+0x34>
    3424:	fcc42783          	lw	a5,-52(s0)
    3428:	00079663          	bnez	a5,3434 <disk_read+0x3c>
    342c:	00400793          	li	a5,4
    3430:	0cc0006f          	j	34fc <disk_read+0x104>
    3434:	8181c783          	lbu	a5,-2024(gp)
    3438:	0ff7f793          	andi	a5,a5,255
    343c:	0017f793          	andi	a5,a5,1
    3440:	00078663          	beqz	a5,344c <disk_read+0x54>
    3444:	00300793          	li	a5,3
    3448:	0b40006f          	j	34fc <disk_read+0x104>
    344c:	c781c783          	lbu	a5,-904(gp)
    3450:	0087f793          	andi	a5,a5,8
    3454:	00079863          	bnez	a5,3464 <disk_read+0x6c>
    3458:	fd842783          	lw	a5,-40(s0)
    345c:	0097979b          	slliw	a5,a5,0x9
    3460:	fcf42c23          	sw	a5,-40(s0)
    3464:	fcc42703          	lw	a4,-52(s0)
    3468:	00100793          	li	a5,1
    346c:	00e7f663          	bleu	a4,a5,3478 <disk_read+0x80>
    3470:	01200793          	li	a5,18
    3474:	0080006f          	j	347c <disk_read+0x84>
    3478:	01100793          	li	a5,17
    347c:	fef407a3          	sb	a5,-17(s0)
    3480:	fef44783          	lbu	a5,-17(s0)
    3484:	fd842583          	lw	a1,-40(s0)
    3488:	00078513          	mv	a0,a5
    348c:	ae5ff0ef          	jal	ra,2f70 <send_cmd>
    3490:	00050793          	mv	a5,a0
    3494:	04079c63          	bnez	a5,34ec <disk_read+0xf4>
    3498:	20000593          	li	a1,512
    349c:	fd043503          	ld	a0,-48(s0)
    34a0:	96dff0ef          	jal	ra,2e0c <rcvr_datablock>
    34a4:	00050793          	mv	a5,a0
    34a8:	02078463          	beqz	a5,34d0 <disk_read+0xd8>
    34ac:	fd043783          	ld	a5,-48(s0)
    34b0:	20078793          	addi	a5,a5,512
    34b4:	fcf43823          	sd	a5,-48(s0)
    34b8:	fcc42783          	lw	a5,-52(s0)
    34bc:	fff7879b          	addiw	a5,a5,-1
    34c0:	fcf42623          	sw	a5,-52(s0)
    34c4:	fcc42783          	lw	a5,-52(s0)
    34c8:	fc0798e3          	bnez	a5,3498 <disk_read+0xa0>
    34cc:	0080006f          	j	34d4 <disk_read+0xdc>
    34d0:	00000013          	nop
    34d4:	fef44703          	lbu	a4,-17(s0)
    34d8:	01200793          	li	a5,18
    34dc:	00f71863          	bne	a4,a5,34ec <disk_read+0xf4>
    34e0:	00000593          	li	a1,0
    34e4:	00c00513          	li	a0,12
    34e8:	a89ff0ef          	jal	ra,2f70 <send_cmd>
    34ec:	8a9ff0ef          	jal	ra,2d94 <deselect>
    34f0:	fcc42783          	lw	a5,-52(s0)
    34f4:	00f037b3          	snez	a5,a5
    34f8:	0ff7f793          	andi	a5,a5,255
    34fc:	00078513          	mv	a0,a5
    3500:	03813083          	ld	ra,56(sp)
    3504:	03013403          	ld	s0,48(sp)
    3508:	04010113          	addi	sp,sp,64
    350c:	00008067          	ret

0000000000003510 <disk_write>:
    3510:	fd010113          	addi	sp,sp,-48
    3514:	02113423          	sd	ra,40(sp)
    3518:	02813023          	sd	s0,32(sp)
    351c:	03010413          	addi	s0,sp,48
    3520:	00050793          	mv	a5,a0
    3524:	feb43023          	sd	a1,-32(s0)
    3528:	fec42423          	sw	a2,-24(s0)
    352c:	fcd42e23          	sw	a3,-36(s0)
    3530:	fef407a3          	sb	a5,-17(s0)
    3534:	fef44783          	lbu	a5,-17(s0)
    3538:	00079663          	bnez	a5,3544 <disk_write+0x34>
    353c:	fdc42783          	lw	a5,-36(s0)
    3540:	00079663          	bnez	a5,354c <disk_write+0x3c>
    3544:	00400793          	li	a5,4
    3548:	11c0006f          	j	3664 <disk_write+0x154>
    354c:	8181c783          	lbu	a5,-2024(gp)
    3550:	0ff7f793          	andi	a5,a5,255
    3554:	0017f793          	andi	a5,a5,1
    3558:	00078663          	beqz	a5,3564 <disk_write+0x54>
    355c:	00300793          	li	a5,3
    3560:	1040006f          	j	3664 <disk_write+0x154>
    3564:	8181c783          	lbu	a5,-2024(gp)
    3568:	0ff7f793          	andi	a5,a5,255
    356c:	0047f793          	andi	a5,a5,4
    3570:	00078663          	beqz	a5,357c <disk_write+0x6c>
    3574:	00200793          	li	a5,2
    3578:	0ec0006f          	j	3664 <disk_write+0x154>
    357c:	c781c783          	lbu	a5,-904(gp)
    3580:	0087f793          	andi	a5,a5,8
    3584:	00079863          	bnez	a5,3594 <disk_write+0x84>
    3588:	fe842783          	lw	a5,-24(s0)
    358c:	0097979b          	slliw	a5,a5,0x9
    3590:	fef42423          	sw	a5,-24(s0)
    3594:	fdc42703          	lw	a4,-36(s0)
    3598:	00100793          	li	a5,1
    359c:	02f71a63          	bne	a4,a5,35d0 <disk_write+0xc0>
    35a0:	fe842583          	lw	a1,-24(s0)
    35a4:	01800513          	li	a0,24
    35a8:	9c9ff0ef          	jal	ra,2f70 <send_cmd>
    35ac:	00050793          	mv	a5,a0
    35b0:	0a079263          	bnez	a5,3654 <disk_write+0x144>
    35b4:	0fe00593          	li	a1,254
    35b8:	fe043503          	ld	a0,-32(s0)
    35bc:	8edff0ef          	jal	ra,2ea8 <xmit_datablock>
    35c0:	00050793          	mv	a5,a0
    35c4:	08078863          	beqz	a5,3654 <disk_write+0x144>
    35c8:	fc042e23          	sw	zero,-36(s0)
    35cc:	0880006f          	j	3654 <disk_write+0x144>
    35d0:	c781c783          	lbu	a5,-904(gp)
    35d4:	0067f793          	andi	a5,a5,6
    35d8:	00078863          	beqz	a5,35e8 <disk_write+0xd8>
    35dc:	fdc42583          	lw	a1,-36(s0)
    35e0:	09700513          	li	a0,151
    35e4:	98dff0ef          	jal	ra,2f70 <send_cmd>
    35e8:	fe842583          	lw	a1,-24(s0)
    35ec:	01900513          	li	a0,25
    35f0:	981ff0ef          	jal	ra,2f70 <send_cmd>
    35f4:	00050793          	mv	a5,a0
    35f8:	04079e63          	bnez	a5,3654 <disk_write+0x144>
    35fc:	0fc00593          	li	a1,252
    3600:	fe043503          	ld	a0,-32(s0)
    3604:	8a5ff0ef          	jal	ra,2ea8 <xmit_datablock>
    3608:	00050793          	mv	a5,a0
    360c:	02078463          	beqz	a5,3634 <disk_write+0x124>
    3610:	fe043783          	ld	a5,-32(s0)
    3614:	20078793          	addi	a5,a5,512
    3618:	fef43023          	sd	a5,-32(s0)
    361c:	fdc42783          	lw	a5,-36(s0)
    3620:	fff7879b          	addiw	a5,a5,-1
    3624:	fcf42e23          	sw	a5,-36(s0)
    3628:	fdc42783          	lw	a5,-36(s0)
    362c:	fc0798e3          	bnez	a5,35fc <disk_write+0xec>
    3630:	0080006f          	j	3638 <disk_write+0x128>
    3634:	00000013          	nop
    3638:	0fd00593          	li	a1,253
    363c:	00000513          	li	a0,0
    3640:	869ff0ef          	jal	ra,2ea8 <xmit_datablock>
    3644:	00050793          	mv	a5,a0
    3648:	00079663          	bnez	a5,3654 <disk_write+0x144>
    364c:	00100793          	li	a5,1
    3650:	fcf42e23          	sw	a5,-36(s0)
    3654:	f40ff0ef          	jal	ra,2d94 <deselect>
    3658:	fdc42783          	lw	a5,-36(s0)
    365c:	00f037b3          	snez	a5,a5
    3660:	0ff7f793          	andi	a5,a5,255
    3664:	00078513          	mv	a0,a5
    3668:	02813083          	ld	ra,40(sp)
    366c:	02013403          	ld	s0,32(sp)
    3670:	03010113          	addi	sp,sp,48
    3674:	00008067          	ret

0000000000003678 <disk_ioctl>:
    3678:	fa010113          	addi	sp,sp,-96
    367c:	04113c23          	sd	ra,88(sp)
    3680:	04813823          	sd	s0,80(sp)
    3684:	04913423          	sd	s1,72(sp)
    3688:	06010413          	addi	s0,sp,96
    368c:	00050713          	mv	a4,a0
    3690:	00058793          	mv	a5,a1
    3694:	fac43023          	sd	a2,-96(s0)
    3698:	fae407a3          	sb	a4,-81(s0)
    369c:	faf40723          	sb	a5,-82(s0)
    36a0:	fa043783          	ld	a5,-96(s0)
    36a4:	fcf43823          	sd	a5,-48(s0)
    36a8:	faf44783          	lbu	a5,-81(s0)
    36ac:	00078663          	beqz	a5,36b8 <disk_ioctl+0x40>
    36b0:	00400793          	li	a5,4
    36b4:	4540006f          	j	3b08 <disk_ioctl+0x490>
    36b8:	00100793          	li	a5,1
    36bc:	fcf42e23          	sw	a5,-36(s0)
    36c0:	8181c783          	lbu	a5,-2024(gp)
    36c4:	0ff7f793          	andi	a5,a5,255
    36c8:	0017f793          	andi	a5,a5,1
    36cc:	00078663          	beqz	a5,36d8 <disk_ioctl+0x60>
    36d0:	00300793          	li	a5,3
    36d4:	4340006f          	j	3b08 <disk_ioctl+0x490>
    36d8:	fae44783          	lbu	a5,-82(s0)
    36dc:	03600713          	li	a4,54
    36e0:	3ef76063          	bltu	a4,a5,3ac0 <disk_ioctl+0x448>
    36e4:	02079793          	slli	a5,a5,0x20
    36e8:	0207d793          	srli	a5,a5,0x20
    36ec:	00279713          	slli	a4,a5,0x2
    36f0:	0000a7b7          	lui	a5,0xa
    36f4:	29878793          	addi	a5,a5,664 # a298 <strnlen+0x430>
    36f8:	00f707b3          	add	a5,a4,a5
    36fc:	0007a783          	lw	a5,0(a5)
    3700:	00078067          	jr	a5
    3704:	ebcff0ef          	jal	ra,2dc0 <select>
    3708:	00050793          	mv	a5,a0
    370c:	3c078063          	beqz	a5,3acc <disk_ioctl+0x454>
    3710:	fc042e23          	sw	zero,-36(s0)
    3714:	3b80006f          	j	3acc <disk_ioctl+0x454>
    3718:	00000593          	li	a1,0
    371c:	00900513          	li	a0,9
    3720:	851ff0ef          	jal	ra,2f70 <send_cmd>
    3724:	00050793          	mv	a5,a0
    3728:	3a079663          	bnez	a5,3ad4 <disk_ioctl+0x45c>
    372c:	fb840793          	addi	a5,s0,-72
    3730:	01000593          	li	a1,16
    3734:	00078513          	mv	a0,a5
    3738:	ed4ff0ef          	jal	ra,2e0c <rcvr_datablock>
    373c:	00050793          	mv	a5,a0
    3740:	38078a63          	beqz	a5,3ad4 <disk_ioctl+0x45c>
    3744:	fb844783          	lbu	a5,-72(s0)
    3748:	0067d79b          	srliw	a5,a5,0x6
    374c:	0ff7f713          	andi	a4,a5,255
    3750:	00100793          	li	a5,1
    3754:	04f71463          	bne	a4,a5,379c <disk_ioctl+0x124>
    3758:	fc144783          	lbu	a5,-63(s0)
    375c:	00078713          	mv	a4,a5
    3760:	fc044783          	lbu	a5,-64(s0)
    3764:	0087979b          	slliw	a5,a5,0x8
    3768:	00f707bb          	addw	a5,a4,a5
    376c:	00078713          	mv	a4,a5
    3770:	fbf44783          	lbu	a5,-65(s0)
    3774:	03f7f793          	andi	a5,a5,63
    3778:	0107979b          	slliw	a5,a5,0x10
    377c:	00f707bb          	addw	a5,a4,a5
    3780:	0017879b          	addiw	a5,a5,1
    3784:	fcf42623          	sw	a5,-52(s0)
    3788:	fcc42783          	lw	a5,-52(s0)
    378c:	00a7971b          	slliw	a4,a5,0xa
    3790:	fa043783          	ld	a5,-96(s0)
    3794:	00e7a023          	sw	a4,0(a5)
    3798:	0940006f          	j	382c <disk_ioctl+0x1b4>
    379c:	fbd44783          	lbu	a5,-67(s0)
    37a0:	00f7f793          	andi	a5,a5,15
    37a4:	0ff7f713          	andi	a4,a5,255
    37a8:	fc244783          	lbu	a5,-62(s0)
    37ac:	0077d79b          	srliw	a5,a5,0x7
    37b0:	0ff7f793          	andi	a5,a5,255
    37b4:	00f707bb          	addw	a5,a4,a5
    37b8:	0ff7f713          	andi	a4,a5,255
    37bc:	fc144783          	lbu	a5,-63(s0)
    37c0:	0037f793          	andi	a5,a5,3
    37c4:	0ff7f793          	andi	a5,a5,255
    37c8:	0017979b          	slliw	a5,a5,0x1
    37cc:	0ff7f793          	andi	a5,a5,255
    37d0:	00f707bb          	addw	a5,a4,a5
    37d4:	0ff7f793          	andi	a5,a5,255
    37d8:	0027879b          	addiw	a5,a5,2
    37dc:	fcf40da3          	sb	a5,-37(s0)
    37e0:	fc044783          	lbu	a5,-64(s0)
    37e4:	0067d79b          	srliw	a5,a5,0x6
    37e8:	0ff7f793          	andi	a5,a5,255
    37ec:	00078713          	mv	a4,a5
    37f0:	fbf44783          	lbu	a5,-65(s0)
    37f4:	0027979b          	slliw	a5,a5,0x2
    37f8:	00f7073b          	addw	a4,a4,a5
    37fc:	fbe44783          	lbu	a5,-66(s0)
    3800:	0037f793          	andi	a5,a5,3
    3804:	00a7979b          	slliw	a5,a5,0xa
    3808:	00f707bb          	addw	a5,a4,a5
    380c:	0017879b          	addiw	a5,a5,1
    3810:	fcf42623          	sw	a5,-52(s0)
    3814:	fdb44783          	lbu	a5,-37(s0)
    3818:	ff77879b          	addiw	a5,a5,-9
    381c:	fcc42703          	lw	a4,-52(s0)
    3820:	00f7173b          	sllw	a4,a4,a5
    3824:	fa043783          	ld	a5,-96(s0)
    3828:	00e7a023          	sw	a4,0(a5)
    382c:	fc042e23          	sw	zero,-36(s0)
    3830:	2a40006f          	j	3ad4 <disk_ioctl+0x45c>
    3834:	c781c783          	lbu	a5,-904(gp)
    3838:	0047f793          	andi	a5,a5,4
    383c:	08078863          	beqz	a5,38cc <disk_ioctl+0x254>
    3840:	00000593          	li	a1,0
    3844:	08d00513          	li	a0,141
    3848:	f28ff0ef          	jal	ra,2f70 <send_cmd>
    384c:	00050793          	mv	a5,a0
    3850:	28079663          	bnez	a5,3adc <disk_ioctl+0x464>
    3854:	0ff00513          	li	a0,255
    3858:	b24ff0ef          	jal	ra,2b7c <xchg_spi>
    385c:	fb840793          	addi	a5,s0,-72
    3860:	01000593          	li	a1,16
    3864:	00078513          	mv	a0,a5
    3868:	da4ff0ef          	jal	ra,2e0c <rcvr_datablock>
    386c:	00050793          	mv	a5,a0
    3870:	26078663          	beqz	a5,3adc <disk_ioctl+0x464>
    3874:	03000793          	li	a5,48
    3878:	fcf40da3          	sb	a5,-37(s0)
    387c:	0180006f          	j	3894 <disk_ioctl+0x21c>
    3880:	0ff00513          	li	a0,255
    3884:	af8ff0ef          	jal	ra,2b7c <xchg_spi>
    3888:	fdb44783          	lbu	a5,-37(s0)
    388c:	fff7879b          	addiw	a5,a5,-1
    3890:	fcf40da3          	sb	a5,-37(s0)
    3894:	fdb44783          	lbu	a5,-37(s0)
    3898:	fe0794e3          	bnez	a5,3880 <disk_ioctl+0x208>
    389c:	fc244783          	lbu	a5,-62(s0)
    38a0:	0047d79b          	srliw	a5,a5,0x4
    38a4:	0ff7f793          	andi	a5,a5,255
    38a8:	02079793          	slli	a5,a5,0x20
    38ac:	0207d793          	srli	a5,a5,0x20
    38b0:	01000713          	li	a4,16
    38b4:	00f717b3          	sll	a5,a4,a5
    38b8:	0007871b          	sext.w	a4,a5
    38bc:	fa043783          	ld	a5,-96(s0)
    38c0:	00e7a023          	sw	a4,0(a5)
    38c4:	fc042e23          	sw	zero,-36(s0)
    38c8:	2140006f          	j	3adc <disk_ioctl+0x464>
    38cc:	00000593          	li	a1,0
    38d0:	00900513          	li	a0,9
    38d4:	e9cff0ef          	jal	ra,2f70 <send_cmd>
    38d8:	00050793          	mv	a5,a0
    38dc:	20079063          	bnez	a5,3adc <disk_ioctl+0x464>
    38e0:	fb840793          	addi	a5,s0,-72
    38e4:	01000593          	li	a1,16
    38e8:	00078513          	mv	a0,a5
    38ec:	d20ff0ef          	jal	ra,2e0c <rcvr_datablock>
    38f0:	00050793          	mv	a5,a0
    38f4:	1e078463          	beqz	a5,3adc <disk_ioctl+0x464>
    38f8:	c781c783          	lbu	a5,-904(gp)
    38fc:	0027f793          	andi	a5,a5,2
    3900:	04078463          	beqz	a5,3948 <disk_ioctl+0x2d0>
    3904:	fc244783          	lbu	a5,-62(s0)
    3908:	03f7f793          	andi	a5,a5,63
    390c:	0017979b          	slliw	a5,a5,0x1
    3910:	fc344703          	lbu	a4,-61(s0)
    3914:	0077571b          	srliw	a4,a4,0x7
    3918:	0ff77713          	andi	a4,a4,255
    391c:	00e787bb          	addw	a5,a5,a4
    3920:	0017871b          	addiw	a4,a5,1
    3924:	fc544783          	lbu	a5,-59(s0)
    3928:	0067d79b          	srliw	a5,a5,0x6
    392c:	0ff7f793          	andi	a5,a5,255
    3930:	fff7879b          	addiw	a5,a5,-1
    3934:	00f717bb          	sllw	a5,a4,a5
    3938:	00078713          	mv	a4,a5
    393c:	fa043783          	ld	a5,-96(s0)
    3940:	00e7a023          	sw	a4,0(a5)
    3944:	0500006f          	j	3994 <disk_ioctl+0x31c>
    3948:	fc244783          	lbu	a5,-62(s0)
    394c:	07c7f793          	andi	a5,a5,124
    3950:	4027d71b          	sraiw	a4,a5,0x2
    3954:	000107b7          	lui	a5,0x10
    3958:	fff7879b          	addiw	a5,a5,-1
    395c:	00f777b3          	and	a5,a4,a5
    3960:	0017871b          	addiw	a4,a5,1
    3964:	fc344783          	lbu	a5,-61(s0)
    3968:	0037f793          	andi	a5,a5,3
    396c:	0037979b          	slliw	a5,a5,0x3
    3970:	fc344683          	lbu	a3,-61(s0)
    3974:	0056d69b          	srliw	a3,a3,0x5
    3978:	0ff6f693          	andi	a3,a3,255
    397c:	00d787bb          	addw	a5,a5,a3
    3980:	0017879b          	addiw	a5,a5,1
    3984:	02f707bb          	mulw	a5,a4,a5
    3988:	00078713          	mv	a4,a5
    398c:	fa043783          	ld	a5,-96(s0)
    3990:	00e7a023          	sw	a4,0(a5) # 10000 <_gp+0x4648>
    3994:	fc042e23          	sw	zero,-36(s0)
    3998:	1440006f          	j	3adc <disk_ioctl+0x464>
    399c:	c781c703          	lbu	a4,-904(gp)
    39a0:	fd043783          	ld	a5,-48(s0)
    39a4:	00e78023          	sb	a4,0(a5)
    39a8:	fc042e23          	sw	zero,-36(s0)
    39ac:	1540006f          	j	3b00 <disk_ioctl+0x488>
    39b0:	00000593          	li	a1,0
    39b4:	00900513          	li	a0,9
    39b8:	db8ff0ef          	jal	ra,2f70 <send_cmd>
    39bc:	00050793          	mv	a5,a0
    39c0:	12079263          	bnez	a5,3ae4 <disk_ioctl+0x46c>
    39c4:	01000593          	li	a1,16
    39c8:	fd043503          	ld	a0,-48(s0)
    39cc:	c40ff0ef          	jal	ra,2e0c <rcvr_datablock>
    39d0:	00050793          	mv	a5,a0
    39d4:	10078863          	beqz	a5,3ae4 <disk_ioctl+0x46c>
    39d8:	fc042e23          	sw	zero,-36(s0)
    39dc:	1080006f          	j	3ae4 <disk_ioctl+0x46c>
    39e0:	00000593          	li	a1,0
    39e4:	00a00513          	li	a0,10
    39e8:	d88ff0ef          	jal	ra,2f70 <send_cmd>
    39ec:	00050793          	mv	a5,a0
    39f0:	0e079e63          	bnez	a5,3aec <disk_ioctl+0x474>
    39f4:	01000593          	li	a1,16
    39f8:	fd043503          	ld	a0,-48(s0)
    39fc:	c10ff0ef          	jal	ra,2e0c <rcvr_datablock>
    3a00:	00050793          	mv	a5,a0
    3a04:	0e078463          	beqz	a5,3aec <disk_ioctl+0x474>
    3a08:	fc042e23          	sw	zero,-36(s0)
    3a0c:	0e00006f          	j	3aec <disk_ioctl+0x474>
    3a10:	00000593          	li	a1,0
    3a14:	03a00513          	li	a0,58
    3a18:	d58ff0ef          	jal	ra,2f70 <send_cmd>
    3a1c:	00050793          	mv	a5,a0
    3a20:	0c079a63          	bnez	a5,3af4 <disk_ioctl+0x47c>
    3a24:	00400793          	li	a5,4
    3a28:	fcf40da3          	sb	a5,-37(s0)
    3a2c:	02c0006f          	j	3a58 <disk_ioctl+0x3e0>
    3a30:	fd043483          	ld	s1,-48(s0)
    3a34:	00148793          	addi	a5,s1,1
    3a38:	fcf43823          	sd	a5,-48(s0)
    3a3c:	0ff00513          	li	a0,255
    3a40:	93cff0ef          	jal	ra,2b7c <xchg_spi>
    3a44:	00050793          	mv	a5,a0
    3a48:	00f48023          	sb	a5,0(s1)
    3a4c:	fdb44783          	lbu	a5,-37(s0)
    3a50:	fff7879b          	addiw	a5,a5,-1
    3a54:	fcf40da3          	sb	a5,-37(s0)
    3a58:	fdb44783          	lbu	a5,-37(s0)
    3a5c:	fc079ae3          	bnez	a5,3a30 <disk_ioctl+0x3b8>
    3a60:	fc042e23          	sw	zero,-36(s0)
    3a64:	0900006f          	j	3af4 <disk_ioctl+0x47c>
    3a68:	00000593          	li	a1,0
    3a6c:	08d00513          	li	a0,141
    3a70:	d00ff0ef          	jal	ra,2f70 <send_cmd>
    3a74:	00050793          	mv	a5,a0
    3a78:	08079263          	bnez	a5,3afc <disk_ioctl+0x484>
    3a7c:	0ff00513          	li	a0,255
    3a80:	8fcff0ef          	jal	ra,2b7c <xchg_spi>
    3a84:	04000593          	li	a1,64
    3a88:	fd043503          	ld	a0,-48(s0)
    3a8c:	b80ff0ef          	jal	ra,2e0c <rcvr_datablock>
    3a90:	00050793          	mv	a5,a0
    3a94:	06078463          	beqz	a5,3afc <disk_ioctl+0x484>
    3a98:	fc042e23          	sw	zero,-36(s0)
    3a9c:	0600006f          	j	3afc <disk_ioctl+0x484>
    3aa0:	8b4ff0ef          	jal	ra,2b54 <power_off>
    3aa4:	8181c783          	lbu	a5,-2024(gp)
    3aa8:	0ff7f793          	andi	a5,a5,255
    3aac:	0017e793          	ori	a5,a5,1
    3ab0:	0ff7f713          	andi	a4,a5,255
    3ab4:	80e18c23          	sb	a4,-2024(gp)
    3ab8:	fc042e23          	sw	zero,-36(s0)
    3abc:	0440006f          	j	3b00 <disk_ioctl+0x488>
    3ac0:	00400793          	li	a5,4
    3ac4:	fcf42e23          	sw	a5,-36(s0)
    3ac8:	0380006f          	j	3b00 <disk_ioctl+0x488>
    3acc:	00000013          	nop
    3ad0:	0300006f          	j	3b00 <disk_ioctl+0x488>
    3ad4:	00000013          	nop
    3ad8:	0280006f          	j	3b00 <disk_ioctl+0x488>
    3adc:	00000013          	nop
    3ae0:	0200006f          	j	3b00 <disk_ioctl+0x488>
    3ae4:	00000013          	nop
    3ae8:	0180006f          	j	3b00 <disk_ioctl+0x488>
    3aec:	00000013          	nop
    3af0:	0100006f          	j	3b00 <disk_ioctl+0x488>
    3af4:	00000013          	nop
    3af8:	0080006f          	j	3b00 <disk_ioctl+0x488>
    3afc:	00000013          	nop
    3b00:	a94ff0ef          	jal	ra,2d94 <deselect>
    3b04:	fdc42783          	lw	a5,-36(s0)
    3b08:	00078513          	mv	a0,a5
    3b0c:	05813083          	ld	ra,88(sp)
    3b10:	05013403          	ld	s0,80(sp)
    3b14:	04813483          	ld	s1,72(sp)
    3b18:	06010113          	addi	sp,sp,96
    3b1c:	00008067          	ret

0000000000003b20 <mem_cpy>:
    3b20:	fc010113          	addi	sp,sp,-64
    3b24:	02813c23          	sd	s0,56(sp)
    3b28:	04010413          	addi	s0,sp,64
    3b2c:	fca43c23          	sd	a0,-40(s0)
    3b30:	fcb43823          	sd	a1,-48(s0)
    3b34:	fcc42623          	sw	a2,-52(s0)
    3b38:	fd843783          	ld	a5,-40(s0)
    3b3c:	fef43423          	sd	a5,-24(s0)
    3b40:	fd043783          	ld	a5,-48(s0)
    3b44:	fef43023          	sd	a5,-32(s0)
    3b48:	0240006f          	j	3b6c <mem_cpy+0x4c>
    3b4c:	fe843783          	ld	a5,-24(s0)
    3b50:	00178713          	addi	a4,a5,1
    3b54:	fee43423          	sd	a4,-24(s0)
    3b58:	fe043703          	ld	a4,-32(s0)
    3b5c:	00170693          	addi	a3,a4,1
    3b60:	fed43023          	sd	a3,-32(s0)
    3b64:	00074703          	lbu	a4,0(a4)
    3b68:	00e78023          	sb	a4,0(a5)
    3b6c:	fcc42783          	lw	a5,-52(s0)
    3b70:	fff7871b          	addiw	a4,a5,-1
    3b74:	fce42623          	sw	a4,-52(s0)
    3b78:	fc079ae3          	bnez	a5,3b4c <mem_cpy+0x2c>
    3b7c:	00000013          	nop
    3b80:	03813403          	ld	s0,56(sp)
    3b84:	04010113          	addi	sp,sp,64
    3b88:	00008067          	ret

0000000000003b8c <mem_set>:
    3b8c:	fd010113          	addi	sp,sp,-48
    3b90:	02813423          	sd	s0,40(sp)
    3b94:	03010413          	addi	s0,sp,48
    3b98:	fca43c23          	sd	a0,-40(s0)
    3b9c:	fcb42a23          	sw	a1,-44(s0)
    3ba0:	fcc42823          	sw	a2,-48(s0)
    3ba4:	fd843783          	ld	a5,-40(s0)
    3ba8:	fef43423          	sd	a5,-24(s0)
    3bac:	01c0006f          	j	3bc8 <mem_set+0x3c>
    3bb0:	fe843783          	ld	a5,-24(s0)
    3bb4:	00178713          	addi	a4,a5,1
    3bb8:	fee43423          	sd	a4,-24(s0)
    3bbc:	fd442703          	lw	a4,-44(s0)
    3bc0:	0ff77713          	andi	a4,a4,255
    3bc4:	00e78023          	sb	a4,0(a5)
    3bc8:	fd042783          	lw	a5,-48(s0)
    3bcc:	fff7871b          	addiw	a4,a5,-1
    3bd0:	fce42823          	sw	a4,-48(s0)
    3bd4:	fc079ee3          	bnez	a5,3bb0 <mem_set+0x24>
    3bd8:	00000013          	nop
    3bdc:	02813403          	ld	s0,40(sp)
    3be0:	03010113          	addi	sp,sp,48
    3be4:	00008067          	ret

0000000000003be8 <mem_cmp>:
    3be8:	fb010113          	addi	sp,sp,-80
    3bec:	04813423          	sd	s0,72(sp)
    3bf0:	05010413          	addi	s0,sp,80
    3bf4:	fca43423          	sd	a0,-56(s0)
    3bf8:	fcb43023          	sd	a1,-64(s0)
    3bfc:	fac42e23          	sw	a2,-68(s0)
    3c00:	fc843783          	ld	a5,-56(s0)
    3c04:	fef43423          	sd	a5,-24(s0)
    3c08:	fc043783          	ld	a5,-64(s0)
    3c0c:	fef43023          	sd	a5,-32(s0)
    3c10:	fc042e23          	sw	zero,-36(s0)
    3c14:	00000013          	nop
    3c18:	fbc42783          	lw	a5,-68(s0)
    3c1c:	fff7871b          	addiw	a4,a5,-1
    3c20:	fae42e23          	sw	a4,-68(s0)
    3c24:	02078c63          	beqz	a5,3c5c <mem_cmp+0x74>
    3c28:	fe843783          	ld	a5,-24(s0)
    3c2c:	00178713          	addi	a4,a5,1
    3c30:	fee43423          	sd	a4,-24(s0)
    3c34:	0007c783          	lbu	a5,0(a5)
    3c38:	00078693          	mv	a3,a5
    3c3c:	fe043783          	ld	a5,-32(s0)
    3c40:	00178713          	addi	a4,a5,1
    3c44:	fee43023          	sd	a4,-32(s0)
    3c48:	0007c783          	lbu	a5,0(a5)
    3c4c:	40f687bb          	subw	a5,a3,a5
    3c50:	fcf42e23          	sw	a5,-36(s0)
    3c54:	fdc42783          	lw	a5,-36(s0)
    3c58:	fc0780e3          	beqz	a5,3c18 <mem_cmp+0x30>
    3c5c:	fdc42783          	lw	a5,-36(s0)
    3c60:	00078513          	mv	a0,a5
    3c64:	04813403          	ld	s0,72(sp)
    3c68:	05010113          	addi	sp,sp,80
    3c6c:	00008067          	ret

0000000000003c70 <chk_chr>:
    3c70:	fe010113          	addi	sp,sp,-32
    3c74:	00813c23          	sd	s0,24(sp)
    3c78:	02010413          	addi	s0,sp,32
    3c7c:	fea43423          	sd	a0,-24(s0)
    3c80:	feb42223          	sw	a1,-28(s0)
    3c84:	0100006f          	j	3c94 <chk_chr+0x24>
    3c88:	fe843783          	ld	a5,-24(s0)
    3c8c:	00178793          	addi	a5,a5,1
    3c90:	fef43423          	sd	a5,-24(s0)
    3c94:	fe843783          	ld	a5,-24(s0)
    3c98:	0007c783          	lbu	a5,0(a5)
    3c9c:	00078c63          	beqz	a5,3cb4 <chk_chr+0x44>
    3ca0:	fe843783          	ld	a5,-24(s0)
    3ca4:	0007c783          	lbu	a5,0(a5)
    3ca8:	00078713          	mv	a4,a5
    3cac:	fe442783          	lw	a5,-28(s0)
    3cb0:	fcf71ce3          	bne	a4,a5,3c88 <chk_chr+0x18>
    3cb4:	fe843783          	ld	a5,-24(s0)
    3cb8:	0007c783          	lbu	a5,0(a5)
    3cbc:	00078513          	mv	a0,a5
    3cc0:	01813403          	ld	s0,24(sp)
    3cc4:	02010113          	addi	sp,sp,32
    3cc8:	00008067          	ret

0000000000003ccc <sync_window>:
    3ccc:	fd010113          	addi	sp,sp,-48
    3cd0:	02113423          	sd	ra,40(sp)
    3cd4:	02813023          	sd	s0,32(sp)
    3cd8:	03010413          	addi	s0,sp,48
    3cdc:	fca43c23          	sd	a0,-40(s0)
    3ce0:	fe042223          	sw	zero,-28(s0)
    3ce4:	fd843783          	ld	a5,-40(s0)
    3ce8:	0047c783          	lbu	a5,4(a5)
    3cec:	0c078663          	beqz	a5,3db8 <sync_window+0xec>
    3cf0:	fd843783          	ld	a5,-40(s0)
    3cf4:	0307a783          	lw	a5,48(a5)
    3cf8:	fef42623          	sw	a5,-20(s0)
    3cfc:	fd843783          	ld	a5,-40(s0)
    3d00:	0017c703          	lbu	a4,1(a5)
    3d04:	fd843783          	ld	a5,-40(s0)
    3d08:	03478793          	addi	a5,a5,52
    3d0c:	00100693          	li	a3,1
    3d10:	fec42603          	lw	a2,-20(s0)
    3d14:	00078593          	mv	a1,a5
    3d18:	00070513          	mv	a0,a4
    3d1c:	ff4ff0ef          	jal	ra,3510 <disk_write>
    3d20:	00050793          	mv	a5,a0
    3d24:	00078863          	beqz	a5,3d34 <sync_window+0x68>
    3d28:	00100793          	li	a5,1
    3d2c:	fef42223          	sw	a5,-28(s0)
    3d30:	0880006f          	j	3db8 <sync_window+0xec>
    3d34:	fd843783          	ld	a5,-40(s0)
    3d38:	00078223          	sb	zero,4(a5)
    3d3c:	fd843783          	ld	a5,-40(s0)
    3d40:	0247a783          	lw	a5,36(a5)
    3d44:	fec42703          	lw	a4,-20(s0)
    3d48:	40f7073b          	subw	a4,a4,a5
    3d4c:	fd843783          	ld	a5,-40(s0)
    3d50:	01c7a783          	lw	a5,28(a5)
    3d54:	06f77263          	bleu	a5,a4,3db8 <sync_window+0xec>
    3d58:	fd843783          	ld	a5,-40(s0)
    3d5c:	0037c783          	lbu	a5,3(a5)
    3d60:	fef42423          	sw	a5,-24(s0)
    3d64:	0480006f          	j	3dac <sync_window+0xe0>
    3d68:	fd843783          	ld	a5,-40(s0)
    3d6c:	01c7a783          	lw	a5,28(a5)
    3d70:	fec42703          	lw	a4,-20(s0)
    3d74:	00f707bb          	addw	a5,a4,a5
    3d78:	fef42623          	sw	a5,-20(s0)
    3d7c:	fd843783          	ld	a5,-40(s0)
    3d80:	0017c703          	lbu	a4,1(a5)
    3d84:	fd843783          	ld	a5,-40(s0)
    3d88:	03478793          	addi	a5,a5,52
    3d8c:	00100693          	li	a3,1
    3d90:	fec42603          	lw	a2,-20(s0)
    3d94:	00078593          	mv	a1,a5
    3d98:	00070513          	mv	a0,a4
    3d9c:	f74ff0ef          	jal	ra,3510 <disk_write>
    3da0:	fe842783          	lw	a5,-24(s0)
    3da4:	fff7879b          	addiw	a5,a5,-1
    3da8:	fef42423          	sw	a5,-24(s0)
    3dac:	fe842703          	lw	a4,-24(s0)
    3db0:	00100793          	li	a5,1
    3db4:	fae7eae3          	bltu	a5,a4,3d68 <sync_window+0x9c>
    3db8:	fe442783          	lw	a5,-28(s0)
    3dbc:	00078513          	mv	a0,a5
    3dc0:	02813083          	ld	ra,40(sp)
    3dc4:	02013403          	ld	s0,32(sp)
    3dc8:	03010113          	addi	sp,sp,48
    3dcc:	00008067          	ret

0000000000003dd0 <move_window>:
    3dd0:	fd010113          	addi	sp,sp,-48
    3dd4:	02113423          	sd	ra,40(sp)
    3dd8:	02813023          	sd	s0,32(sp)
    3ddc:	03010413          	addi	s0,sp,48
    3de0:	fca43c23          	sd	a0,-40(s0)
    3de4:	fcb42a23          	sw	a1,-44(s0)
    3de8:	fe042623          	sw	zero,-20(s0)
    3dec:	fd843783          	ld	a5,-40(s0)
    3df0:	0307a703          	lw	a4,48(a5)
    3df4:	fd442783          	lw	a5,-44(s0)
    3df8:	06f70063          	beq	a4,a5,3e58 <move_window+0x88>
    3dfc:	fd843503          	ld	a0,-40(s0)
    3e00:	ecdff0ef          	jal	ra,3ccc <sync_window>
    3e04:	fea42623          	sw	a0,-20(s0)
    3e08:	fec42783          	lw	a5,-20(s0)
    3e0c:	04079663          	bnez	a5,3e58 <move_window+0x88>
    3e10:	fd843783          	ld	a5,-40(s0)
    3e14:	0017c703          	lbu	a4,1(a5)
    3e18:	fd843783          	ld	a5,-40(s0)
    3e1c:	03478793          	addi	a5,a5,52
    3e20:	00100693          	li	a3,1
    3e24:	fd442603          	lw	a2,-44(s0)
    3e28:	00078593          	mv	a1,a5
    3e2c:	00070513          	mv	a0,a4
    3e30:	dc8ff0ef          	jal	ra,33f8 <disk_read>
    3e34:	00050793          	mv	a5,a0
    3e38:	00078a63          	beqz	a5,3e4c <move_window+0x7c>
    3e3c:	fff00793          	li	a5,-1
    3e40:	fcf42a23          	sw	a5,-44(s0)
    3e44:	00100793          	li	a5,1
    3e48:	fef42623          	sw	a5,-20(s0)
    3e4c:	fd843783          	ld	a5,-40(s0)
    3e50:	fd442703          	lw	a4,-44(s0)
    3e54:	02e7a823          	sw	a4,48(a5)
    3e58:	fec42783          	lw	a5,-20(s0)
    3e5c:	00078513          	mv	a0,a5
    3e60:	02813083          	ld	ra,40(sp)
    3e64:	02013403          	ld	s0,32(sp)
    3e68:	03010113          	addi	sp,sp,48
    3e6c:	00008067          	ret

0000000000003e70 <sync_fs>:
    3e70:	fd010113          	addi	sp,sp,-48
    3e74:	02113423          	sd	ra,40(sp)
    3e78:	02813023          	sd	s0,32(sp)
    3e7c:	03010413          	addi	s0,sp,48
    3e80:	fca43c23          	sd	a0,-40(s0)
    3e84:	fd843503          	ld	a0,-40(s0)
    3e88:	e45ff0ef          	jal	ra,3ccc <sync_window>
    3e8c:	fea42623          	sw	a0,-20(s0)
    3e90:	fec42783          	lw	a5,-20(s0)
    3e94:	1e079c63          	bnez	a5,408c <sync_fs+0x21c>
    3e98:	fd843783          	ld	a5,-40(s0)
    3e9c:	0007c703          	lbu	a4,0(a5)
    3ea0:	00300793          	li	a5,3
    3ea4:	1cf71063          	bne	a4,a5,4064 <sync_fs+0x1f4>
    3ea8:	fd843783          	ld	a5,-40(s0)
    3eac:	0057c703          	lbu	a4,5(a5)
    3eb0:	00100793          	li	a5,1
    3eb4:	1af71863          	bne	a4,a5,4064 <sync_fs+0x1f4>
    3eb8:	fd843783          	ld	a5,-40(s0)
    3ebc:	03478793          	addi	a5,a5,52
    3ec0:	20000613          	li	a2,512
    3ec4:	00000593          	li	a1,0
    3ec8:	00078513          	mv	a0,a5
    3ecc:	cc1ff0ef          	jal	ra,3b8c <mem_set>
    3ed0:	fd843783          	ld	a5,-40(s0)
    3ed4:	05500713          	li	a4,85
    3ed8:	22e78923          	sb	a4,562(a5)
    3edc:	fd843783          	ld	a5,-40(s0)
    3ee0:	faa00713          	li	a4,-86
    3ee4:	22e789a3          	sb	a4,563(a5)
    3ee8:	fd843783          	ld	a5,-40(s0)
    3eec:	05200713          	li	a4,82
    3ef0:	02e78a23          	sb	a4,52(a5)
    3ef4:	fd843783          	ld	a5,-40(s0)
    3ef8:	05200713          	li	a4,82
    3efc:	02e78aa3          	sb	a4,53(a5)
    3f00:	fd843783          	ld	a5,-40(s0)
    3f04:	06100713          	li	a4,97
    3f08:	02e78b23          	sb	a4,54(a5)
    3f0c:	fd843783          	ld	a5,-40(s0)
    3f10:	04100713          	li	a4,65
    3f14:	02e78ba3          	sb	a4,55(a5)
    3f18:	fd843783          	ld	a5,-40(s0)
    3f1c:	07200713          	li	a4,114
    3f20:	20e78c23          	sb	a4,536(a5)
    3f24:	fd843783          	ld	a5,-40(s0)
    3f28:	07200713          	li	a4,114
    3f2c:	20e78ca3          	sb	a4,537(a5)
    3f30:	fd843783          	ld	a5,-40(s0)
    3f34:	04100713          	li	a4,65
    3f38:	20e78d23          	sb	a4,538(a5)
    3f3c:	fd843783          	ld	a5,-40(s0)
    3f40:	06100713          	li	a4,97
    3f44:	20e78da3          	sb	a4,539(a5)
    3f48:	fd843783          	ld	a5,-40(s0)
    3f4c:	0107a783          	lw	a5,16(a5)
    3f50:	0ff7f713          	andi	a4,a5,255
    3f54:	fd843783          	ld	a5,-40(s0)
    3f58:	20e78e23          	sb	a4,540(a5)
    3f5c:	fd843783          	ld	a5,-40(s0)
    3f60:	0107a783          	lw	a5,16(a5)
    3f64:	00078713          	mv	a4,a5
    3f68:	000107b7          	lui	a5,0x10
    3f6c:	fff7879b          	addiw	a5,a5,-1
    3f70:	00f777b3          	and	a5,a4,a5
    3f74:	4087d79b          	sraiw	a5,a5,0x8
    3f78:	0ff7f713          	andi	a4,a5,255
    3f7c:	fd843783          	ld	a5,-40(s0)
    3f80:	20e78ea3          	sb	a4,541(a5) # 1021d <_gp+0x4865>
    3f84:	fd843783          	ld	a5,-40(s0)
    3f88:	0107a783          	lw	a5,16(a5)
    3f8c:	0107d79b          	srliw	a5,a5,0x10
    3f90:	0ff7f713          	andi	a4,a5,255
    3f94:	fd843783          	ld	a5,-40(s0)
    3f98:	20e78f23          	sb	a4,542(a5)
    3f9c:	fd843783          	ld	a5,-40(s0)
    3fa0:	0107a783          	lw	a5,16(a5)
    3fa4:	0187d79b          	srliw	a5,a5,0x18
    3fa8:	0ff7f713          	andi	a4,a5,255
    3fac:	fd843783          	ld	a5,-40(s0)
    3fb0:	20e78fa3          	sb	a4,543(a5)
    3fb4:	fd843783          	ld	a5,-40(s0)
    3fb8:	00c7a783          	lw	a5,12(a5)
    3fbc:	0ff7f713          	andi	a4,a5,255
    3fc0:	fd843783          	ld	a5,-40(s0)
    3fc4:	22e78023          	sb	a4,544(a5)
    3fc8:	fd843783          	ld	a5,-40(s0)
    3fcc:	00c7a783          	lw	a5,12(a5)
    3fd0:	00078713          	mv	a4,a5
    3fd4:	000107b7          	lui	a5,0x10
    3fd8:	fff7879b          	addiw	a5,a5,-1
    3fdc:	00f777b3          	and	a5,a4,a5
    3fe0:	4087d79b          	sraiw	a5,a5,0x8
    3fe4:	0ff7f713          	andi	a4,a5,255
    3fe8:	fd843783          	ld	a5,-40(s0)
    3fec:	22e780a3          	sb	a4,545(a5) # 10221 <_gp+0x4869>
    3ff0:	fd843783          	ld	a5,-40(s0)
    3ff4:	00c7a783          	lw	a5,12(a5)
    3ff8:	0107d79b          	srliw	a5,a5,0x10
    3ffc:	0ff7f713          	andi	a4,a5,255
    4000:	fd843783          	ld	a5,-40(s0)
    4004:	22e78123          	sb	a4,546(a5)
    4008:	fd843783          	ld	a5,-40(s0)
    400c:	00c7a783          	lw	a5,12(a5)
    4010:	0187d79b          	srliw	a5,a5,0x18
    4014:	0ff7f713          	andi	a4,a5,255
    4018:	fd843783          	ld	a5,-40(s0)
    401c:	22e781a3          	sb	a4,547(a5)
    4020:	fd843783          	ld	a5,-40(s0)
    4024:	0207a783          	lw	a5,32(a5)
    4028:	0017871b          	addiw	a4,a5,1
    402c:	fd843783          	ld	a5,-40(s0)
    4030:	02e7a823          	sw	a4,48(a5)
    4034:	fd843783          	ld	a5,-40(s0)
    4038:	0017c703          	lbu	a4,1(a5)
    403c:	fd843783          	ld	a5,-40(s0)
    4040:	03478593          	addi	a1,a5,52
    4044:	fd843783          	ld	a5,-40(s0)
    4048:	0307a783          	lw	a5,48(a5)
    404c:	00100693          	li	a3,1
    4050:	00078613          	mv	a2,a5
    4054:	00070513          	mv	a0,a4
    4058:	cb8ff0ef          	jal	ra,3510 <disk_write>
    405c:	fd843783          	ld	a5,-40(s0)
    4060:	000782a3          	sb	zero,5(a5)
    4064:	fd843783          	ld	a5,-40(s0)
    4068:	0017c783          	lbu	a5,1(a5)
    406c:	00000613          	li	a2,0
    4070:	00000593          	li	a1,0
    4074:	00078513          	mv	a0,a5
    4078:	e00ff0ef          	jal	ra,3678 <disk_ioctl>
    407c:	00050793          	mv	a5,a0
    4080:	00078663          	beqz	a5,408c <sync_fs+0x21c>
    4084:	00100793          	li	a5,1
    4088:	fef42623          	sw	a5,-20(s0)
    408c:	fec42783          	lw	a5,-20(s0)
    4090:	00078513          	mv	a0,a5
    4094:	02813083          	ld	ra,40(sp)
    4098:	02013403          	ld	s0,32(sp)
    409c:	03010113          	addi	sp,sp,48
    40a0:	00008067          	ret

00000000000040a4 <clust2sect>:
    40a4:	fe010113          	addi	sp,sp,-32
    40a8:	00813c23          	sd	s0,24(sp)
    40ac:	02010413          	addi	s0,sp,32
    40b0:	fea43423          	sd	a0,-24(s0)
    40b4:	feb42223          	sw	a1,-28(s0)
    40b8:	fe442783          	lw	a5,-28(s0)
    40bc:	ffe7879b          	addiw	a5,a5,-2
    40c0:	fef42223          	sw	a5,-28(s0)
    40c4:	fe843783          	ld	a5,-24(s0)
    40c8:	0187a783          	lw	a5,24(a5)
    40cc:	ffe7871b          	addiw	a4,a5,-2
    40d0:	fe442783          	lw	a5,-28(s0)
    40d4:	00e7e663          	bltu	a5,a4,40e0 <clust2sect+0x3c>
    40d8:	00000793          	li	a5,0
    40dc:	0240006f          	j	4100 <clust2sect+0x5c>
    40e0:	fe843783          	ld	a5,-24(s0)
    40e4:	0027c783          	lbu	a5,2(a5)
    40e8:	00078713          	mv	a4,a5
    40ec:	fe442783          	lw	a5,-28(s0)
    40f0:	02f7073b          	mulw	a4,a4,a5
    40f4:	fe843783          	ld	a5,-24(s0)
    40f8:	02c7a783          	lw	a5,44(a5)
    40fc:	00f707bb          	addw	a5,a4,a5
    4100:	00078513          	mv	a0,a5
    4104:	01813403          	ld	s0,24(sp)
    4108:	02010113          	addi	sp,sp,32
    410c:	00008067          	ret

0000000000004110 <get_fat>:
    4110:	fc010113          	addi	sp,sp,-64
    4114:	02113c23          	sd	ra,56(sp)
    4118:	02813823          	sd	s0,48(sp)
    411c:	04010413          	addi	s0,sp,64
    4120:	fca43423          	sd	a0,-56(s0)
    4124:	fcb42223          	sw	a1,-60(s0)
    4128:	fc442703          	lw	a4,-60(s0)
    412c:	00100793          	li	a5,1
    4130:	00e7fa63          	bleu	a4,a5,4144 <get_fat+0x34>
    4134:	fc843783          	ld	a5,-56(s0)
    4138:	0187a703          	lw	a4,24(a5)
    413c:	fc442783          	lw	a5,-60(s0)
    4140:	00e7e863          	bltu	a5,a4,4150 <get_fat+0x40>
    4144:	00100793          	li	a5,1
    4148:	fef42623          	sw	a5,-20(s0)
    414c:	2840006f          	j	43d0 <get_fat+0x2c0>
    4150:	fff00793          	li	a5,-1
    4154:	fef42623          	sw	a5,-20(s0)
    4158:	fc843783          	ld	a5,-56(s0)
    415c:	0007c783          	lbu	a5,0(a5)
    4160:	00200713          	li	a4,2
    4164:	10e78463          	beq	a5,a4,426c <get_fat+0x15c>
    4168:	00300713          	li	a4,3
    416c:	18e78a63          	beq	a5,a4,4300 <get_fat+0x1f0>
    4170:	00100713          	li	a4,1
    4174:	22e79a63          	bne	a5,a4,43a8 <get_fat+0x298>
    4178:	fc442783          	lw	a5,-60(s0)
    417c:	fef42423          	sw	a5,-24(s0)
    4180:	fe842783          	lw	a5,-24(s0)
    4184:	0017d79b          	srliw	a5,a5,0x1
    4188:	fe842703          	lw	a4,-24(s0)
    418c:	00f707bb          	addw	a5,a4,a5
    4190:	fef42423          	sw	a5,-24(s0)
    4194:	fc843783          	ld	a5,-56(s0)
    4198:	0247a703          	lw	a4,36(a5)
    419c:	fe842783          	lw	a5,-24(s0)
    41a0:	0097d79b          	srliw	a5,a5,0x9
    41a4:	00f707bb          	addw	a5,a4,a5
    41a8:	00078593          	mv	a1,a5
    41ac:	fc843503          	ld	a0,-56(s0)
    41b0:	c21ff0ef          	jal	ra,3dd0 <move_window>
    41b4:	00050793          	mv	a5,a0
    41b8:	1e079e63          	bnez	a5,43b4 <get_fat+0x2a4>
    41bc:	fe842783          	lw	a5,-24(s0)
    41c0:	0017871b          	addiw	a4,a5,1
    41c4:	fee42423          	sw	a4,-24(s0)
    41c8:	1ff7f793          	andi	a5,a5,511
    41cc:	fc843703          	ld	a4,-56(s0)
    41d0:	02079793          	slli	a5,a5,0x20
    41d4:	0207d793          	srli	a5,a5,0x20
    41d8:	00f707b3          	add	a5,a4,a5
    41dc:	0347c783          	lbu	a5,52(a5)
    41e0:	fef42223          	sw	a5,-28(s0)
    41e4:	fc843783          	ld	a5,-56(s0)
    41e8:	0247a703          	lw	a4,36(a5)
    41ec:	fe842783          	lw	a5,-24(s0)
    41f0:	0097d79b          	srliw	a5,a5,0x9
    41f4:	00f707bb          	addw	a5,a4,a5
    41f8:	00078593          	mv	a1,a5
    41fc:	fc843503          	ld	a0,-56(s0)
    4200:	bd1ff0ef          	jal	ra,3dd0 <move_window>
    4204:	00050793          	mv	a5,a0
    4208:	1a079a63          	bnez	a5,43bc <get_fat+0x2ac>
    420c:	fe842783          	lw	a5,-24(s0)
    4210:	1ff7f793          	andi	a5,a5,511
    4214:	fc843703          	ld	a4,-56(s0)
    4218:	02079793          	slli	a5,a5,0x20
    421c:	0207d793          	srli	a5,a5,0x20
    4220:	00f707b3          	add	a5,a4,a5
    4224:	0347c783          	lbu	a5,52(a5)
    4228:	0087979b          	slliw	a5,a5,0x8
    422c:	00078713          	mv	a4,a5
    4230:	fe442783          	lw	a5,-28(s0)
    4234:	00e7e7b3          	or	a5,a5,a4
    4238:	fef42223          	sw	a5,-28(s0)
    423c:	fc442783          	lw	a5,-60(s0)
    4240:	0017f793          	andi	a5,a5,1
    4244:	00078863          	beqz	a5,4254 <get_fat+0x144>
    4248:	fe442783          	lw	a5,-28(s0)
    424c:	0047d79b          	srliw	a5,a5,0x4
    4250:	0140006f          	j	4264 <get_fat+0x154>
    4254:	fe442703          	lw	a4,-28(s0)
    4258:	000017b7          	lui	a5,0x1
    425c:	fff7879b          	addiw	a5,a5,-1
    4260:	00f777b3          	and	a5,a4,a5
    4264:	fef42623          	sw	a5,-20(s0)
    4268:	1680006f          	j	43d0 <get_fat+0x2c0>
    426c:	fc843783          	ld	a5,-56(s0)
    4270:	0247a703          	lw	a4,36(a5) # 1024 <handle_stats+0x74c>
    4274:	fc442783          	lw	a5,-60(s0)
    4278:	0087d79b          	srliw	a5,a5,0x8
    427c:	00f707bb          	addw	a5,a4,a5
    4280:	00078593          	mv	a1,a5
    4284:	fc843503          	ld	a0,-56(s0)
    4288:	b49ff0ef          	jal	ra,3dd0 <move_window>
    428c:	00050793          	mv	a5,a0
    4290:	12079a63          	bnez	a5,43c4 <get_fat+0x2b4>
    4294:	fc442783          	lw	a5,-60(s0)
    4298:	0017979b          	slliw	a5,a5,0x1
    429c:	1fe7f793          	andi	a5,a5,510
    42a0:	02079793          	slli	a5,a5,0x20
    42a4:	0207d793          	srli	a5,a5,0x20
    42a8:	03078793          	addi	a5,a5,48
    42ac:	fc843703          	ld	a4,-56(s0)
    42b0:	00f707b3          	add	a5,a4,a5
    42b4:	00478793          	addi	a5,a5,4
    42b8:	fcf43c23          	sd	a5,-40(s0)
    42bc:	fd843783          	ld	a5,-40(s0)
    42c0:	00178793          	addi	a5,a5,1
    42c4:	0007c783          	lbu	a5,0(a5)
    42c8:	0087979b          	slliw	a5,a5,0x8
    42cc:	0107971b          	slliw	a4,a5,0x10
    42d0:	4107571b          	sraiw	a4,a4,0x10
    42d4:	fd843783          	ld	a5,-40(s0)
    42d8:	0007c783          	lbu	a5,0(a5)
    42dc:	0107979b          	slliw	a5,a5,0x10
    42e0:	4107d79b          	sraiw	a5,a5,0x10
    42e4:	00f767b3          	or	a5,a4,a5
    42e8:	0107979b          	slliw	a5,a5,0x10
    42ec:	4107d79b          	sraiw	a5,a5,0x10
    42f0:	03079793          	slli	a5,a5,0x30
    42f4:	0307d793          	srli	a5,a5,0x30
    42f8:	fef42623          	sw	a5,-20(s0)
    42fc:	0d40006f          	j	43d0 <get_fat+0x2c0>
    4300:	fc843783          	ld	a5,-56(s0)
    4304:	0247a703          	lw	a4,36(a5)
    4308:	fc442783          	lw	a5,-60(s0)
    430c:	0077d79b          	srliw	a5,a5,0x7
    4310:	00f707bb          	addw	a5,a4,a5
    4314:	00078593          	mv	a1,a5
    4318:	fc843503          	ld	a0,-56(s0)
    431c:	ab5ff0ef          	jal	ra,3dd0 <move_window>
    4320:	00050793          	mv	a5,a0
    4324:	0a079463          	bnez	a5,43cc <get_fat+0x2bc>
    4328:	fc442783          	lw	a5,-60(s0)
    432c:	0027979b          	slliw	a5,a5,0x2
    4330:	1fc7f793          	andi	a5,a5,508
    4334:	02079793          	slli	a5,a5,0x20
    4338:	0207d793          	srli	a5,a5,0x20
    433c:	03078793          	addi	a5,a5,48
    4340:	fc843703          	ld	a4,-56(s0)
    4344:	00f707b3          	add	a5,a4,a5
    4348:	00478793          	addi	a5,a5,4
    434c:	fcf43c23          	sd	a5,-40(s0)
    4350:	fd843783          	ld	a5,-40(s0)
    4354:	00378793          	addi	a5,a5,3
    4358:	0007c783          	lbu	a5,0(a5)
    435c:	0187971b          	slliw	a4,a5,0x18
    4360:	fd843783          	ld	a5,-40(s0)
    4364:	00278793          	addi	a5,a5,2
    4368:	0007c783          	lbu	a5,0(a5)
    436c:	0107979b          	slliw	a5,a5,0x10
    4370:	00f767b3          	or	a5,a4,a5
    4374:	fd843703          	ld	a4,-40(s0)
    4378:	00170713          	addi	a4,a4,1
    437c:	00074703          	lbu	a4,0(a4)
    4380:	0087171b          	slliw	a4,a4,0x8
    4384:	00e7e7b3          	or	a5,a5,a4
    4388:	fd843703          	ld	a4,-40(s0)
    438c:	00074703          	lbu	a4,0(a4)
    4390:	00e7e733          	or	a4,a5,a4
    4394:	100007b7          	lui	a5,0x10000
    4398:	fff7879b          	addiw	a5,a5,-1
    439c:	00f777b3          	and	a5,a4,a5
    43a0:	fef42623          	sw	a5,-20(s0)
    43a4:	02c0006f          	j	43d0 <get_fat+0x2c0>
    43a8:	00100793          	li	a5,1
    43ac:	fef42623          	sw	a5,-20(s0)
    43b0:	0200006f          	j	43d0 <get_fat+0x2c0>
    43b4:	00000013          	nop
    43b8:	0180006f          	j	43d0 <get_fat+0x2c0>
    43bc:	00000013          	nop
    43c0:	0100006f          	j	43d0 <get_fat+0x2c0>
    43c4:	00000013          	nop
    43c8:	0080006f          	j	43d0 <get_fat+0x2c0>
    43cc:	00000013          	nop
    43d0:	fec42783          	lw	a5,-20(s0)
    43d4:	00078513          	mv	a0,a5
    43d8:	03813083          	ld	ra,56(sp)
    43dc:	03013403          	ld	s0,48(sp)
    43e0:	04010113          	addi	sp,sp,64
    43e4:	00008067          	ret

00000000000043e8 <put_fat>:
    43e8:	fd010113          	addi	sp,sp,-48
    43ec:	02113423          	sd	ra,40(sp)
    43f0:	02813023          	sd	s0,32(sp)
    43f4:	03010413          	addi	s0,sp,48
    43f8:	fca43c23          	sd	a0,-40(s0)
    43fc:	fcb42a23          	sw	a1,-44(s0)
    4400:	fcc42823          	sw	a2,-48(s0)
    4404:	fd442703          	lw	a4,-44(s0)
    4408:	00100793          	li	a5,1
    440c:	00e7fa63          	bleu	a4,a5,4420 <put_fat+0x38>
    4410:	fd843783          	ld	a5,-40(s0)
    4414:	0187a703          	lw	a4,24(a5) # 10000018 <_gp+0xfff4660>
    4418:	fd442783          	lw	a5,-44(s0)
    441c:	00e7e863          	bltu	a5,a4,442c <put_fat+0x44>
    4420:	00200793          	li	a5,2
    4424:	fef42623          	sw	a5,-20(s0)
    4428:	3b00006f          	j	47d8 <put_fat+0x3f0>
    442c:	fd843783          	ld	a5,-40(s0)
    4430:	0007c783          	lbu	a5,0(a5)
    4434:	00200713          	li	a4,2
    4438:	1ce78063          	beq	a5,a4,45f8 <put_fat+0x210>
    443c:	00300713          	li	a4,3
    4440:	24e78863          	beq	a5,a4,4690 <put_fat+0x2a8>
    4444:	00100713          	li	a4,1
    4448:	36e79463          	bne	a5,a4,47b0 <put_fat+0x3c8>
    444c:	fd442783          	lw	a5,-44(s0)
    4450:	fef42423          	sw	a5,-24(s0)
    4454:	fe842783          	lw	a5,-24(s0)
    4458:	0017d79b          	srliw	a5,a5,0x1
    445c:	fe842703          	lw	a4,-24(s0)
    4460:	00f707bb          	addw	a5,a4,a5
    4464:	fef42423          	sw	a5,-24(s0)
    4468:	fd843783          	ld	a5,-40(s0)
    446c:	0247a703          	lw	a4,36(a5)
    4470:	fe842783          	lw	a5,-24(s0)
    4474:	0097d79b          	srliw	a5,a5,0x9
    4478:	00f707bb          	addw	a5,a4,a5
    447c:	00078593          	mv	a1,a5
    4480:	fd843503          	ld	a0,-40(s0)
    4484:	94dff0ef          	jal	ra,3dd0 <move_window>
    4488:	fea42623          	sw	a0,-20(s0)
    448c:	fec42783          	lw	a5,-20(s0)
    4490:	32079663          	bnez	a5,47bc <put_fat+0x3d4>
    4494:	fe842783          	lw	a5,-24(s0)
    4498:	0017871b          	addiw	a4,a5,1
    449c:	fee42423          	sw	a4,-24(s0)
    44a0:	1ff7f793          	andi	a5,a5,511
    44a4:	02079793          	slli	a5,a5,0x20
    44a8:	0207d793          	srli	a5,a5,0x20
    44ac:	03078793          	addi	a5,a5,48
    44b0:	fd843703          	ld	a4,-40(s0)
    44b4:	00f707b3          	add	a5,a4,a5
    44b8:	00478793          	addi	a5,a5,4
    44bc:	fef43023          	sd	a5,-32(s0)
    44c0:	fd442783          	lw	a5,-44(s0)
    44c4:	0017f793          	andi	a5,a5,1
    44c8:	04078463          	beqz	a5,4510 <put_fat+0x128>
    44cc:	fe043783          	ld	a5,-32(s0)
    44d0:	0007c783          	lbu	a5,0(a5)
    44d4:	0187979b          	slliw	a5,a5,0x18
    44d8:	4187d79b          	sraiw	a5,a5,0x18
    44dc:	00f7f793          	andi	a5,a5,15
    44e0:	0187971b          	slliw	a4,a5,0x18
    44e4:	4187571b          	sraiw	a4,a4,0x18
    44e8:	fd042783          	lw	a5,-48(s0)
    44ec:	0ff7f793          	andi	a5,a5,255
    44f0:	0047979b          	slliw	a5,a5,0x4
    44f4:	0187979b          	slliw	a5,a5,0x18
    44f8:	4187d79b          	sraiw	a5,a5,0x18
    44fc:	00f767b3          	or	a5,a4,a5
    4500:	0187979b          	slliw	a5,a5,0x18
    4504:	4187d79b          	sraiw	a5,a5,0x18
    4508:	0ff7f793          	andi	a5,a5,255
    450c:	00c0006f          	j	4518 <put_fat+0x130>
    4510:	fd042783          	lw	a5,-48(s0)
    4514:	0ff7f793          	andi	a5,a5,255
    4518:	fe043703          	ld	a4,-32(s0)
    451c:	00f70023          	sb	a5,0(a4)
    4520:	fd843783          	ld	a5,-40(s0)
    4524:	00100713          	li	a4,1
    4528:	00e78223          	sb	a4,4(a5)
    452c:	fd843783          	ld	a5,-40(s0)
    4530:	0247a703          	lw	a4,36(a5)
    4534:	fe842783          	lw	a5,-24(s0)
    4538:	0097d79b          	srliw	a5,a5,0x9
    453c:	00f707bb          	addw	a5,a4,a5
    4540:	00078593          	mv	a1,a5
    4544:	fd843503          	ld	a0,-40(s0)
    4548:	889ff0ef          	jal	ra,3dd0 <move_window>
    454c:	fea42623          	sw	a0,-20(s0)
    4550:	fec42783          	lw	a5,-20(s0)
    4554:	26079863          	bnez	a5,47c4 <put_fat+0x3dc>
    4558:	fe842783          	lw	a5,-24(s0)
    455c:	1ff7f793          	andi	a5,a5,511
    4560:	02079793          	slli	a5,a5,0x20
    4564:	0207d793          	srli	a5,a5,0x20
    4568:	03078793          	addi	a5,a5,48
    456c:	fd843703          	ld	a4,-40(s0)
    4570:	00f707b3          	add	a5,a4,a5
    4574:	00478793          	addi	a5,a5,4
    4578:	fef43023          	sd	a5,-32(s0)
    457c:	fd442783          	lw	a5,-44(s0)
    4580:	0017f793          	andi	a5,a5,1
    4584:	00078a63          	beqz	a5,4598 <put_fat+0x1b0>
    4588:	fd042783          	lw	a5,-48(s0)
    458c:	0047d79b          	srliw	a5,a5,0x4
    4590:	0ff7f793          	andi	a5,a5,255
    4594:	04c0006f          	j	45e0 <put_fat+0x1f8>
    4598:	fe043783          	ld	a5,-32(s0)
    459c:	0007c783          	lbu	a5,0(a5)
    45a0:	0187979b          	slliw	a5,a5,0x18
    45a4:	4187d79b          	sraiw	a5,a5,0x18
    45a8:	ff07f793          	andi	a5,a5,-16
    45ac:	0187971b          	slliw	a4,a5,0x18
    45b0:	4187571b          	sraiw	a4,a4,0x18
    45b4:	fd042783          	lw	a5,-48(s0)
    45b8:	0087d79b          	srliw	a5,a5,0x8
    45bc:	0187979b          	slliw	a5,a5,0x18
    45c0:	4187d79b          	sraiw	a5,a5,0x18
    45c4:	00f7f793          	andi	a5,a5,15
    45c8:	0187979b          	slliw	a5,a5,0x18
    45cc:	4187d79b          	sraiw	a5,a5,0x18
    45d0:	00f767b3          	or	a5,a4,a5
    45d4:	0187979b          	slliw	a5,a5,0x18
    45d8:	4187d79b          	sraiw	a5,a5,0x18
    45dc:	0ff7f793          	andi	a5,a5,255
    45e0:	fe043703          	ld	a4,-32(s0)
    45e4:	00f70023          	sb	a5,0(a4)
    45e8:	fd843783          	ld	a5,-40(s0)
    45ec:	00100713          	li	a4,1
    45f0:	00e78223          	sb	a4,4(a5)
    45f4:	1e40006f          	j	47d8 <put_fat+0x3f0>
    45f8:	fd843783          	ld	a5,-40(s0)
    45fc:	0247a703          	lw	a4,36(a5)
    4600:	fd442783          	lw	a5,-44(s0)
    4604:	0087d79b          	srliw	a5,a5,0x8
    4608:	00f707bb          	addw	a5,a4,a5
    460c:	00078593          	mv	a1,a5
    4610:	fd843503          	ld	a0,-40(s0)
    4614:	fbcff0ef          	jal	ra,3dd0 <move_window>
    4618:	fea42623          	sw	a0,-20(s0)
    461c:	fec42783          	lw	a5,-20(s0)
    4620:	1a079663          	bnez	a5,47cc <put_fat+0x3e4>
    4624:	fd442783          	lw	a5,-44(s0)
    4628:	0017979b          	slliw	a5,a5,0x1
    462c:	1fe7f793          	andi	a5,a5,510
    4630:	02079793          	slli	a5,a5,0x20
    4634:	0207d793          	srli	a5,a5,0x20
    4638:	03078793          	addi	a5,a5,48
    463c:	fd843703          	ld	a4,-40(s0)
    4640:	00f707b3          	add	a5,a4,a5
    4644:	00478793          	addi	a5,a5,4
    4648:	fef43023          	sd	a5,-32(s0)
    464c:	fd042783          	lw	a5,-48(s0)
    4650:	0ff7f713          	andi	a4,a5,255
    4654:	fe043783          	ld	a5,-32(s0)
    4658:	00e78023          	sb	a4,0(a5)
    465c:	fe043783          	ld	a5,-32(s0)
    4660:	00178793          	addi	a5,a5,1
    4664:	fd042683          	lw	a3,-48(s0)
    4668:	00010737          	lui	a4,0x10
    466c:	fff7071b          	addiw	a4,a4,-1
    4670:	00e6f733          	and	a4,a3,a4
    4674:	4087571b          	sraiw	a4,a4,0x8
    4678:	0ff77713          	andi	a4,a4,255
    467c:	00e78023          	sb	a4,0(a5)
    4680:	fd843783          	ld	a5,-40(s0)
    4684:	00100713          	li	a4,1
    4688:	00e78223          	sb	a4,4(a5)
    468c:	14c0006f          	j	47d8 <put_fat+0x3f0>
    4690:	fd843783          	ld	a5,-40(s0)
    4694:	0247a703          	lw	a4,36(a5)
    4698:	fd442783          	lw	a5,-44(s0)
    469c:	0077d79b          	srliw	a5,a5,0x7
    46a0:	00f707bb          	addw	a5,a4,a5
    46a4:	00078593          	mv	a1,a5
    46a8:	fd843503          	ld	a0,-40(s0)
    46ac:	f24ff0ef          	jal	ra,3dd0 <move_window>
    46b0:	fea42623          	sw	a0,-20(s0)
    46b4:	fec42783          	lw	a5,-20(s0)
    46b8:	10079e63          	bnez	a5,47d4 <put_fat+0x3ec>
    46bc:	fd442783          	lw	a5,-44(s0)
    46c0:	0027979b          	slliw	a5,a5,0x2
    46c4:	1fc7f793          	andi	a5,a5,508
    46c8:	02079793          	slli	a5,a5,0x20
    46cc:	0207d793          	srli	a5,a5,0x20
    46d0:	03078793          	addi	a5,a5,48
    46d4:	fd843703          	ld	a4,-40(s0)
    46d8:	00f707b3          	add	a5,a4,a5
    46dc:	00478793          	addi	a5,a5,4
    46e0:	fef43023          	sd	a5,-32(s0)
    46e4:	fe043783          	ld	a5,-32(s0)
    46e8:	00378793          	addi	a5,a5,3
    46ec:	0007c783          	lbu	a5,0(a5)
    46f0:	0187971b          	slliw	a4,a5,0x18
    46f4:	fe043783          	ld	a5,-32(s0)
    46f8:	00278793          	addi	a5,a5,2
    46fc:	0007c783          	lbu	a5,0(a5)
    4700:	0107979b          	slliw	a5,a5,0x10
    4704:	00f767b3          	or	a5,a4,a5
    4708:	fe043703          	ld	a4,-32(s0)
    470c:	00170713          	addi	a4,a4,1 # 10001 <_gp+0x4649>
    4710:	00074703          	lbu	a4,0(a4)
    4714:	0087171b          	slliw	a4,a4,0x8
    4718:	00e7e7b3          	or	a5,a5,a4
    471c:	fe043703          	ld	a4,-32(s0)
    4720:	00074703          	lbu	a4,0(a4)
    4724:	00e7e733          	or	a4,a5,a4
    4728:	f00007b7          	lui	a5,0xf0000
    472c:	00f777b3          	and	a5,a4,a5
    4730:	fd042703          	lw	a4,-48(s0)
    4734:	00f767b3          	or	a5,a4,a5
    4738:	fcf42823          	sw	a5,-48(s0)
    473c:	fd042783          	lw	a5,-48(s0)
    4740:	0ff7f713          	andi	a4,a5,255
    4744:	fe043783          	ld	a5,-32(s0)
    4748:	00e78023          	sb	a4,0(a5) # fffffffff0000000 <_gp+0xffffffffefff4648>
    474c:	fe043783          	ld	a5,-32(s0)
    4750:	00178793          	addi	a5,a5,1
    4754:	fd042683          	lw	a3,-48(s0)
    4758:	00010737          	lui	a4,0x10
    475c:	fff7071b          	addiw	a4,a4,-1
    4760:	00e6f733          	and	a4,a3,a4
    4764:	4087571b          	sraiw	a4,a4,0x8
    4768:	0ff77713          	andi	a4,a4,255
    476c:	00e78023          	sb	a4,0(a5)
    4770:	fe043783          	ld	a5,-32(s0)
    4774:	00278793          	addi	a5,a5,2
    4778:	fd042703          	lw	a4,-48(s0)
    477c:	0107571b          	srliw	a4,a4,0x10
    4780:	0ff77713          	andi	a4,a4,255
    4784:	00e78023          	sb	a4,0(a5)
    4788:	fe043783          	ld	a5,-32(s0)
    478c:	00378793          	addi	a5,a5,3
    4790:	fd042703          	lw	a4,-48(s0)
    4794:	0187571b          	srliw	a4,a4,0x18
    4798:	0ff77713          	andi	a4,a4,255
    479c:	00e78023          	sb	a4,0(a5)
    47a0:	fd843783          	ld	a5,-40(s0)
    47a4:	00100713          	li	a4,1
    47a8:	00e78223          	sb	a4,4(a5)
    47ac:	02c0006f          	j	47d8 <put_fat+0x3f0>
    47b0:	00200793          	li	a5,2
    47b4:	fef42623          	sw	a5,-20(s0)
    47b8:	0200006f          	j	47d8 <put_fat+0x3f0>
    47bc:	00000013          	nop
    47c0:	0180006f          	j	47d8 <put_fat+0x3f0>
    47c4:	00000013          	nop
    47c8:	0100006f          	j	47d8 <put_fat+0x3f0>
    47cc:	00000013          	nop
    47d0:	0080006f          	j	47d8 <put_fat+0x3f0>
    47d4:	00000013          	nop
    47d8:	fec42783          	lw	a5,-20(s0)
    47dc:	00078513          	mv	a0,a5
    47e0:	02813083          	ld	ra,40(sp)
    47e4:	02013403          	ld	s0,32(sp)
    47e8:	03010113          	addi	sp,sp,48
    47ec:	00008067          	ret

00000000000047f0 <remove_chain>:
    47f0:	fd010113          	addi	sp,sp,-48
    47f4:	02113423          	sd	ra,40(sp)
    47f8:	02813023          	sd	s0,32(sp)
    47fc:	03010413          	addi	s0,sp,48
    4800:	fca43c23          	sd	a0,-40(s0)
    4804:	fcb42a23          	sw	a1,-44(s0)
    4808:	fd442703          	lw	a4,-44(s0)
    480c:	00100793          	li	a5,1
    4810:	00e7fa63          	bleu	a4,a5,4824 <remove_chain+0x34>
    4814:	fd843783          	ld	a5,-40(s0)
    4818:	0187a703          	lw	a4,24(a5)
    481c:	fd442783          	lw	a5,-44(s0)
    4820:	00e7e863          	bltu	a5,a4,4830 <remove_chain+0x40>
    4824:	00200793          	li	a5,2
    4828:	fef42623          	sw	a5,-20(s0)
    482c:	0d40006f          	j	4900 <remove_chain+0x110>
    4830:	fe042623          	sw	zero,-20(s0)
    4834:	0ac0006f          	j	48e0 <remove_chain+0xf0>
    4838:	fd442583          	lw	a1,-44(s0)
    483c:	fd843503          	ld	a0,-40(s0)
    4840:	8d1ff0ef          	jal	ra,4110 <get_fat>
    4844:	fea42423          	sw	a0,-24(s0)
    4848:	fe842783          	lw	a5,-24(s0)
    484c:	0a078463          	beqz	a5,48f4 <remove_chain+0x104>
    4850:	fe842703          	lw	a4,-24(s0)
    4854:	00100793          	li	a5,1
    4858:	00f71863          	bne	a4,a5,4868 <remove_chain+0x78>
    485c:	00200793          	li	a5,2
    4860:	fef42623          	sw	a5,-20(s0)
    4864:	09c0006f          	j	4900 <remove_chain+0x110>
    4868:	fe842703          	lw	a4,-24(s0)
    486c:	fff00793          	li	a5,-1
    4870:	00f71863          	bne	a4,a5,4880 <remove_chain+0x90>
    4874:	00100793          	li	a5,1
    4878:	fef42623          	sw	a5,-20(s0)
    487c:	0840006f          	j	4900 <remove_chain+0x110>
    4880:	00000613          	li	a2,0
    4884:	fd442583          	lw	a1,-44(s0)
    4888:	fd843503          	ld	a0,-40(s0)
    488c:	b5dff0ef          	jal	ra,43e8 <put_fat>
    4890:	fea42623          	sw	a0,-20(s0)
    4894:	fec42783          	lw	a5,-20(s0)
    4898:	06079263          	bnez	a5,48fc <remove_chain+0x10c>
    489c:	fd843783          	ld	a5,-40(s0)
    48a0:	0107a703          	lw	a4,16(a5)
    48a4:	fff00793          	li	a5,-1
    48a8:	02f70863          	beq	a4,a5,48d8 <remove_chain+0xe8>
    48ac:	fd843783          	ld	a5,-40(s0)
    48b0:	0107a783          	lw	a5,16(a5)
    48b4:	0017871b          	addiw	a4,a5,1
    48b8:	fd843783          	ld	a5,-40(s0)
    48bc:	00e7a823          	sw	a4,16(a5)
    48c0:	fd843783          	ld	a5,-40(s0)
    48c4:	0057c783          	lbu	a5,5(a5)
    48c8:	0017e793          	ori	a5,a5,1
    48cc:	0ff7f713          	andi	a4,a5,255
    48d0:	fd843783          	ld	a5,-40(s0)
    48d4:	00e782a3          	sb	a4,5(a5)
    48d8:	fe842783          	lw	a5,-24(s0)
    48dc:	fcf42a23          	sw	a5,-44(s0)
    48e0:	fd843783          	ld	a5,-40(s0)
    48e4:	0187a703          	lw	a4,24(a5)
    48e8:	fd442783          	lw	a5,-44(s0)
    48ec:	f4e7e6e3          	bltu	a5,a4,4838 <remove_chain+0x48>
    48f0:	0100006f          	j	4900 <remove_chain+0x110>
    48f4:	00000013          	nop
    48f8:	0080006f          	j	4900 <remove_chain+0x110>
    48fc:	00000013          	nop
    4900:	fec42783          	lw	a5,-20(s0)
    4904:	00078513          	mv	a0,a5
    4908:	02813083          	ld	ra,40(sp)
    490c:	02013403          	ld	s0,32(sp)
    4910:	03010113          	addi	sp,sp,48
    4914:	00008067          	ret

0000000000004918 <create_chain>:
    4918:	fd010113          	addi	sp,sp,-48
    491c:	02113423          	sd	ra,40(sp)
    4920:	02813023          	sd	s0,32(sp)
    4924:	03010413          	addi	s0,sp,48
    4928:	fca43c23          	sd	a0,-40(s0)
    492c:	fcb42a23          	sw	a1,-44(s0)
    4930:	fd442783          	lw	a5,-44(s0)
    4934:	02079a63          	bnez	a5,4968 <create_chain+0x50>
    4938:	fd843783          	ld	a5,-40(s0)
    493c:	00c7a783          	lw	a5,12(a5)
    4940:	fef42423          	sw	a5,-24(s0)
    4944:	fe842783          	lw	a5,-24(s0)
    4948:	00078a63          	beqz	a5,495c <create_chain+0x44>
    494c:	fd843783          	ld	a5,-40(s0)
    4950:	0187a703          	lw	a4,24(a5)
    4954:	fe842783          	lw	a5,-24(s0)
    4958:	06e7e463          	bltu	a5,a4,49c0 <create_chain+0xa8>
    495c:	00100793          	li	a5,1
    4960:	fef42423          	sw	a5,-24(s0)
    4964:	05c0006f          	j	49c0 <create_chain+0xa8>
    4968:	fd442583          	lw	a1,-44(s0)
    496c:	fd843503          	ld	a0,-40(s0)
    4970:	fa0ff0ef          	jal	ra,4110 <get_fat>
    4974:	fea42023          	sw	a0,-32(s0)
    4978:	fe042703          	lw	a4,-32(s0)
    497c:	00100793          	li	a5,1
    4980:	00e7e663          	bltu	a5,a4,498c <create_chain+0x74>
    4984:	00100793          	li	a5,1
    4988:	1780006f          	j	4b00 <create_chain+0x1e8>
    498c:	fe042703          	lw	a4,-32(s0)
    4990:	fff00793          	li	a5,-1
    4994:	00f71663          	bne	a4,a5,49a0 <create_chain+0x88>
    4998:	fe042783          	lw	a5,-32(s0)
    499c:	1640006f          	j	4b00 <create_chain+0x1e8>
    49a0:	fd843783          	ld	a5,-40(s0)
    49a4:	0187a703          	lw	a4,24(a5)
    49a8:	fe042783          	lw	a5,-32(s0)
    49ac:	00e7f663          	bleu	a4,a5,49b8 <create_chain+0xa0>
    49b0:	fe042783          	lw	a5,-32(s0)
    49b4:	14c0006f          	j	4b00 <create_chain+0x1e8>
    49b8:	fd442783          	lw	a5,-44(s0)
    49bc:	fef42423          	sw	a5,-24(s0)
    49c0:	fe842783          	lw	a5,-24(s0)
    49c4:	fef42623          	sw	a5,-20(s0)
    49c8:	fec42783          	lw	a5,-20(s0)
    49cc:	0017879b          	addiw	a5,a5,1
    49d0:	fef42623          	sw	a5,-20(s0)
    49d4:	fd843783          	ld	a5,-40(s0)
    49d8:	0187a703          	lw	a4,24(a5)
    49dc:	fec42783          	lw	a5,-20(s0)
    49e0:	02e7e063          	bltu	a5,a4,4a00 <create_chain+0xe8>
    49e4:	00200793          	li	a5,2
    49e8:	fef42623          	sw	a5,-20(s0)
    49ec:	fec42703          	lw	a4,-20(s0)
    49f0:	fe842783          	lw	a5,-24(s0)
    49f4:	00e7f663          	bleu	a4,a5,4a00 <create_chain+0xe8>
    49f8:	00000793          	li	a5,0
    49fc:	1040006f          	j	4b00 <create_chain+0x1e8>
    4a00:	fec42583          	lw	a1,-20(s0)
    4a04:	fd843503          	ld	a0,-40(s0)
    4a08:	f08ff0ef          	jal	ra,4110 <get_fat>
    4a0c:	fea42023          	sw	a0,-32(s0)
    4a10:	fe042783          	lw	a5,-32(s0)
    4a14:	02078c63          	beqz	a5,4a4c <create_chain+0x134>
    4a18:	fe042703          	lw	a4,-32(s0)
    4a1c:	fff00793          	li	a5,-1
    4a20:	00f70863          	beq	a4,a5,4a30 <create_chain+0x118>
    4a24:	fe042703          	lw	a4,-32(s0)
    4a28:	00100793          	li	a5,1
    4a2c:	00f71663          	bne	a4,a5,4a38 <create_chain+0x120>
    4a30:	fe042783          	lw	a5,-32(s0)
    4a34:	0cc0006f          	j	4b00 <create_chain+0x1e8>
    4a38:	fec42703          	lw	a4,-20(s0)
    4a3c:	fe842783          	lw	a5,-24(s0)
    4a40:	f8f714e3          	bne	a4,a5,49c8 <create_chain+0xb0>
    4a44:	00000793          	li	a5,0
    4a48:	0b80006f          	j	4b00 <create_chain+0x1e8>
    4a4c:	00000013          	nop
    4a50:	100007b7          	lui	a5,0x10000
    4a54:	fff7861b          	addiw	a2,a5,-1
    4a58:	fec42583          	lw	a1,-20(s0)
    4a5c:	fd843503          	ld	a0,-40(s0)
    4a60:	989ff0ef          	jal	ra,43e8 <put_fat>
    4a64:	fea42223          	sw	a0,-28(s0)
    4a68:	fe442783          	lw	a5,-28(s0)
    4a6c:	02079063          	bnez	a5,4a8c <create_chain+0x174>
    4a70:	fd442783          	lw	a5,-44(s0)
    4a74:	00078c63          	beqz	a5,4a8c <create_chain+0x174>
    4a78:	fec42603          	lw	a2,-20(s0)
    4a7c:	fd442583          	lw	a1,-44(s0)
    4a80:	fd843503          	ld	a0,-40(s0)
    4a84:	965ff0ef          	jal	ra,43e8 <put_fat>
    4a88:	fea42223          	sw	a0,-28(s0)
    4a8c:	fe442783          	lw	a5,-28(s0)
    4a90:	04079863          	bnez	a5,4ae0 <create_chain+0x1c8>
    4a94:	fd843783          	ld	a5,-40(s0)
    4a98:	fec42703          	lw	a4,-20(s0)
    4a9c:	00e7a623          	sw	a4,12(a5) # 1000000c <_gp+0xfff4654>
    4aa0:	fd843783          	ld	a5,-40(s0)
    4aa4:	0107a703          	lw	a4,16(a5)
    4aa8:	fff00793          	li	a5,-1
    4aac:	04f70863          	beq	a4,a5,4afc <create_chain+0x1e4>
    4ab0:	fd843783          	ld	a5,-40(s0)
    4ab4:	0107a783          	lw	a5,16(a5)
    4ab8:	fff7871b          	addiw	a4,a5,-1
    4abc:	fd843783          	ld	a5,-40(s0)
    4ac0:	00e7a823          	sw	a4,16(a5)
    4ac4:	fd843783          	ld	a5,-40(s0)
    4ac8:	0057c783          	lbu	a5,5(a5)
    4acc:	0017e793          	ori	a5,a5,1
    4ad0:	0ff7f713          	andi	a4,a5,255
    4ad4:	fd843783          	ld	a5,-40(s0)
    4ad8:	00e782a3          	sb	a4,5(a5)
    4adc:	0200006f          	j	4afc <create_chain+0x1e4>
    4ae0:	fe442703          	lw	a4,-28(s0)
    4ae4:	00100793          	li	a5,1
    4ae8:	00f71663          	bne	a4,a5,4af4 <create_chain+0x1dc>
    4aec:	fff00793          	li	a5,-1
    4af0:	0080006f          	j	4af8 <create_chain+0x1e0>
    4af4:	00100793          	li	a5,1
    4af8:	fef42623          	sw	a5,-20(s0)
    4afc:	fec42783          	lw	a5,-20(s0)
    4b00:	00078513          	mv	a0,a5
    4b04:	02813083          	ld	ra,40(sp)
    4b08:	02013403          	ld	s0,32(sp)
    4b0c:	03010113          	addi	sp,sp,48
    4b10:	00008067          	ret

0000000000004b14 <dir_sdi>:
    4b14:	fd010113          	addi	sp,sp,-48
    4b18:	02113423          	sd	ra,40(sp)
    4b1c:	02813023          	sd	s0,32(sp)
    4b20:	03010413          	addi	s0,sp,48
    4b24:	fca43c23          	sd	a0,-40(s0)
    4b28:	fcb42a23          	sw	a1,-44(s0)
    4b2c:	fd442783          	lw	a5,-44(s0)
    4b30:	03079713          	slli	a4,a5,0x30
    4b34:	03075713          	srli	a4,a4,0x30
    4b38:	fd843783          	ld	a5,-40(s0)
    4b3c:	00e79523          	sh	a4,10(a5)
    4b40:	fd843783          	ld	a5,-40(s0)
    4b44:	00c7a783          	lw	a5,12(a5)
    4b48:	fef42623          	sw	a5,-20(s0)
    4b4c:	fec42703          	lw	a4,-20(s0)
    4b50:	00100793          	li	a5,1
    4b54:	00f70c63          	beq	a4,a5,4b6c <dir_sdi+0x58>
    4b58:	fd843783          	ld	a5,-40(s0)
    4b5c:	0007b783          	ld	a5,0(a5)
    4b60:	0187a703          	lw	a4,24(a5)
    4b64:	fec42783          	lw	a5,-20(s0)
    4b68:	00e7e663          	bltu	a5,a4,4b74 <dir_sdi+0x60>
    4b6c:	00200793          	li	a5,2
    4b70:	1700006f          	j	4ce0 <dir_sdi+0x1cc>
    4b74:	fec42783          	lw	a5,-20(s0)
    4b78:	02079463          	bnez	a5,4ba0 <dir_sdi+0x8c>
    4b7c:	fd843783          	ld	a5,-40(s0)
    4b80:	0007b783          	ld	a5,0(a5)
    4b84:	0007c703          	lbu	a4,0(a5)
    4b88:	00300793          	li	a5,3
    4b8c:	00f71a63          	bne	a4,a5,4ba0 <dir_sdi+0x8c>
    4b90:	fd843783          	ld	a5,-40(s0)
    4b94:	0007b783          	ld	a5,0(a5)
    4b98:	0287a783          	lw	a5,40(a5)
    4b9c:	fef42623          	sw	a5,-20(s0)
    4ba0:	fec42783          	lw	a5,-20(s0)
    4ba4:	02079c63          	bnez	a5,4bdc <dir_sdi+0xc8>
    4ba8:	fd843783          	ld	a5,-40(s0)
    4bac:	0007b783          	ld	a5,0(a5)
    4bb0:	0087d783          	lhu	a5,8(a5)
    4bb4:	00078713          	mv	a4,a5
    4bb8:	fd442783          	lw	a5,-44(s0)
    4bbc:	00e7e663          	bltu	a5,a4,4bc8 <dir_sdi+0xb4>
    4bc0:	00200793          	li	a5,2
    4bc4:	11c0006f          	j	4ce0 <dir_sdi+0x1cc>
    4bc8:	fd843783          	ld	a5,-40(s0)
    4bcc:	0007b783          	ld	a5,0(a5)
    4bd0:	0287a783          	lw	a5,40(a5)
    4bd4:	fef42423          	sw	a5,-24(s0)
    4bd8:	0a40006f          	j	4c7c <dir_sdi+0x168>
    4bdc:	fd843783          	ld	a5,-40(s0)
    4be0:	0007b783          	ld	a5,0(a5)
    4be4:	0027c783          	lbu	a5,2(a5)
    4be8:	0047979b          	slliw	a5,a5,0x4
    4bec:	fef42223          	sw	a5,-28(s0)
    4bf0:	0680006f          	j	4c58 <dir_sdi+0x144>
    4bf4:	fd843783          	ld	a5,-40(s0)
    4bf8:	0007b783          	ld	a5,0(a5)
    4bfc:	fec42583          	lw	a1,-20(s0)
    4c00:	00078513          	mv	a0,a5
    4c04:	d0cff0ef          	jal	ra,4110 <get_fat>
    4c08:	fea42623          	sw	a0,-20(s0)
    4c0c:	fec42703          	lw	a4,-20(s0)
    4c10:	fff00793          	li	a5,-1
    4c14:	00f71663          	bne	a4,a5,4c20 <dir_sdi+0x10c>
    4c18:	00100793          	li	a5,1
    4c1c:	0c40006f          	j	4ce0 <dir_sdi+0x1cc>
    4c20:	fec42703          	lw	a4,-20(s0)
    4c24:	00100793          	li	a5,1
    4c28:	00e7fc63          	bleu	a4,a5,4c40 <dir_sdi+0x12c>
    4c2c:	fd843783          	ld	a5,-40(s0)
    4c30:	0007b783          	ld	a5,0(a5)
    4c34:	0187a703          	lw	a4,24(a5)
    4c38:	fec42783          	lw	a5,-20(s0)
    4c3c:	00e7e663          	bltu	a5,a4,4c48 <dir_sdi+0x134>
    4c40:	00200793          	li	a5,2
    4c44:	09c0006f          	j	4ce0 <dir_sdi+0x1cc>
    4c48:	fd442703          	lw	a4,-44(s0)
    4c4c:	fe442783          	lw	a5,-28(s0)
    4c50:	40f707bb          	subw	a5,a4,a5
    4c54:	fcf42a23          	sw	a5,-44(s0)
    4c58:	fd442703          	lw	a4,-44(s0)
    4c5c:	fe442783          	lw	a5,-28(s0)
    4c60:	f8f77ae3          	bleu	a5,a4,4bf4 <dir_sdi+0xe0>
    4c64:	fd843783          	ld	a5,-40(s0)
    4c68:	0007b783          	ld	a5,0(a5)
    4c6c:	fec42583          	lw	a1,-20(s0)
    4c70:	00078513          	mv	a0,a5
    4c74:	c30ff0ef          	jal	ra,40a4 <clust2sect>
    4c78:	fea42423          	sw	a0,-24(s0)
    4c7c:	fd843783          	ld	a5,-40(s0)
    4c80:	fec42703          	lw	a4,-20(s0)
    4c84:	00e7a823          	sw	a4,16(a5)
    4c88:	fe842783          	lw	a5,-24(s0)
    4c8c:	00079663          	bnez	a5,4c98 <dir_sdi+0x184>
    4c90:	00200793          	li	a5,2
    4c94:	04c0006f          	j	4ce0 <dir_sdi+0x1cc>
    4c98:	fd442783          	lw	a5,-44(s0)
    4c9c:	0047d71b          	srliw	a4,a5,0x4
    4ca0:	fe842783          	lw	a5,-24(s0)
    4ca4:	00f7073b          	addw	a4,a4,a5
    4ca8:	fd843783          	ld	a5,-40(s0)
    4cac:	00e7aa23          	sw	a4,20(a5)
    4cb0:	fd843783          	ld	a5,-40(s0)
    4cb4:	0007b783          	ld	a5,0(a5)
    4cb8:	03478713          	addi	a4,a5,52
    4cbc:	fd442783          	lw	a5,-44(s0)
    4cc0:	00f7f793          	andi	a5,a5,15
    4cc4:	0057979b          	slliw	a5,a5,0x5
    4cc8:	02079793          	slli	a5,a5,0x20
    4ccc:	0207d793          	srli	a5,a5,0x20
    4cd0:	00f70733          	add	a4,a4,a5
    4cd4:	fd843783          	ld	a5,-40(s0)
    4cd8:	00e7bc23          	sd	a4,24(a5)
    4cdc:	00000793          	li	a5,0
    4ce0:	00078513          	mv	a0,a5
    4ce4:	02813083          	ld	ra,40(sp)
    4ce8:	02013403          	ld	s0,32(sp)
    4cec:	03010113          	addi	sp,sp,48
    4cf0:	00008067          	ret

0000000000004cf4 <dir_next>:
    4cf4:	fc010113          	addi	sp,sp,-64
    4cf8:	02113c23          	sd	ra,56(sp)
    4cfc:	02813823          	sd	s0,48(sp)
    4d00:	02913423          	sd	s1,40(sp)
    4d04:	04010413          	addi	s0,sp,64
    4d08:	fca43423          	sd	a0,-56(s0)
    4d0c:	fcb42223          	sw	a1,-60(s0)
    4d10:	fc843783          	ld	a5,-56(s0)
    4d14:	00a7d783          	lhu	a5,10(a5)
    4d18:	0017879b          	addiw	a5,a5,1
    4d1c:	fcf42a23          	sw	a5,-44(s0)
    4d20:	fd442703          	lw	a4,-44(s0)
    4d24:	000107b7          	lui	a5,0x10
    4d28:	fff7879b          	addiw	a5,a5,-1
    4d2c:	00f777b3          	and	a5,a4,a5
    4d30:	00078863          	beqz	a5,4d40 <dir_next+0x4c>
    4d34:	fc843783          	ld	a5,-56(s0)
    4d38:	0147a783          	lw	a5,20(a5) # 10014 <_gp+0x465c>
    4d3c:	00079663          	bnez	a5,4d48 <dir_next+0x54>
    4d40:	00400793          	li	a5,4
    4d44:	2940006f          	j	4fd8 <dir_next+0x2e4>
    4d48:	fd442783          	lw	a5,-44(s0)
    4d4c:	00f7f793          	andi	a5,a5,15
    4d50:	24079263          	bnez	a5,4f94 <dir_next+0x2a0>
    4d54:	fc843783          	ld	a5,-56(s0)
    4d58:	0147a783          	lw	a5,20(a5)
    4d5c:	0017871b          	addiw	a4,a5,1
    4d60:	fc843783          	ld	a5,-56(s0)
    4d64:	00e7aa23          	sw	a4,20(a5)
    4d68:	fc843783          	ld	a5,-56(s0)
    4d6c:	0107a783          	lw	a5,16(a5)
    4d70:	02079263          	bnez	a5,4d94 <dir_next+0xa0>
    4d74:	fc843783          	ld	a5,-56(s0)
    4d78:	0007b783          	ld	a5,0(a5)
    4d7c:	0087d783          	lhu	a5,8(a5)
    4d80:	00078713          	mv	a4,a5
    4d84:	fd442783          	lw	a5,-44(s0)
    4d88:	20e7e663          	bltu	a5,a4,4f94 <dir_next+0x2a0>
    4d8c:	00400793          	li	a5,4
    4d90:	2480006f          	j	4fd8 <dir_next+0x2e4>
    4d94:	fd442783          	lw	a5,-44(s0)
    4d98:	0047d79b          	srliw	a5,a5,0x4
    4d9c:	fc843703          	ld	a4,-56(s0)
    4da0:	00073703          	ld	a4,0(a4) # 10000 <_gp+0x4648>
    4da4:	00274703          	lbu	a4,2(a4)
    4da8:	fff7071b          	addiw	a4,a4,-1
    4dac:	00e7f7b3          	and	a5,a5,a4
    4db0:	1e079263          	bnez	a5,4f94 <dir_next+0x2a0>
    4db4:	fc843783          	ld	a5,-56(s0)
    4db8:	0007b703          	ld	a4,0(a5)
    4dbc:	fc843783          	ld	a5,-56(s0)
    4dc0:	0107a783          	lw	a5,16(a5)
    4dc4:	00078593          	mv	a1,a5
    4dc8:	00070513          	mv	a0,a4
    4dcc:	b44ff0ef          	jal	ra,4110 <get_fat>
    4dd0:	fca42e23          	sw	a0,-36(s0)
    4dd4:	fdc42703          	lw	a4,-36(s0)
    4dd8:	00100793          	li	a5,1
    4ddc:	00e7e663          	bltu	a5,a4,4de8 <dir_next+0xf4>
    4de0:	00200793          	li	a5,2
    4de4:	1f40006f          	j	4fd8 <dir_next+0x2e4>
    4de8:	fdc42703          	lw	a4,-36(s0)
    4dec:	fff00793          	li	a5,-1
    4df0:	00f71663          	bne	a4,a5,4dfc <dir_next+0x108>
    4df4:	00100793          	li	a5,1
    4df8:	1e00006f          	j	4fd8 <dir_next+0x2e4>
    4dfc:	fc843783          	ld	a5,-56(s0)
    4e00:	0007b783          	ld	a5,0(a5)
    4e04:	0187a703          	lw	a4,24(a5)
    4e08:	fdc42783          	lw	a5,-36(s0)
    4e0c:	14e7ee63          	bltu	a5,a4,4f68 <dir_next+0x274>
    4e10:	fc442783          	lw	a5,-60(s0)
    4e14:	00079663          	bnez	a5,4e20 <dir_next+0x12c>
    4e18:	00400793          	li	a5,4
    4e1c:	1bc0006f          	j	4fd8 <dir_next+0x2e4>
    4e20:	fc843783          	ld	a5,-56(s0)
    4e24:	0007b703          	ld	a4,0(a5)
    4e28:	fc843783          	ld	a5,-56(s0)
    4e2c:	0107a783          	lw	a5,16(a5)
    4e30:	00078593          	mv	a1,a5
    4e34:	00070513          	mv	a0,a4
    4e38:	ae1ff0ef          	jal	ra,4918 <create_chain>
    4e3c:	fca42e23          	sw	a0,-36(s0)
    4e40:	fdc42783          	lw	a5,-36(s0)
    4e44:	00079663          	bnez	a5,4e50 <dir_next+0x15c>
    4e48:	00700793          	li	a5,7
    4e4c:	18c0006f          	j	4fd8 <dir_next+0x2e4>
    4e50:	fdc42703          	lw	a4,-36(s0)
    4e54:	00100793          	li	a5,1
    4e58:	00f71663          	bne	a4,a5,4e64 <dir_next+0x170>
    4e5c:	00200793          	li	a5,2
    4e60:	1780006f          	j	4fd8 <dir_next+0x2e4>
    4e64:	fdc42703          	lw	a4,-36(s0)
    4e68:	fff00793          	li	a5,-1
    4e6c:	00f71663          	bne	a4,a5,4e78 <dir_next+0x184>
    4e70:	00100793          	li	a5,1
    4e74:	1640006f          	j	4fd8 <dir_next+0x2e4>
    4e78:	fc843783          	ld	a5,-56(s0)
    4e7c:	0007b783          	ld	a5,0(a5)
    4e80:	00078513          	mv	a0,a5
    4e84:	e49fe0ef          	jal	ra,3ccc <sync_window>
    4e88:	00050793          	mv	a5,a0
    4e8c:	00078663          	beqz	a5,4e98 <dir_next+0x1a4>
    4e90:	00100793          	li	a5,1
    4e94:	1440006f          	j	4fd8 <dir_next+0x2e4>
    4e98:	fc843783          	ld	a5,-56(s0)
    4e9c:	0007b783          	ld	a5,0(a5)
    4ea0:	03478793          	addi	a5,a5,52
    4ea4:	20000613          	li	a2,512
    4ea8:	00000593          	li	a1,0
    4eac:	00078513          	mv	a0,a5
    4eb0:	cddfe0ef          	jal	ra,3b8c <mem_set>
    4eb4:	fc843783          	ld	a5,-56(s0)
    4eb8:	0007b483          	ld	s1,0(a5)
    4ebc:	fc843783          	ld	a5,-56(s0)
    4ec0:	0007b783          	ld	a5,0(a5)
    4ec4:	fdc42583          	lw	a1,-36(s0)
    4ec8:	00078513          	mv	a0,a5
    4ecc:	9d8ff0ef          	jal	ra,40a4 <clust2sect>
    4ed0:	00050793          	mv	a5,a0
    4ed4:	02f4a823          	sw	a5,48(s1)
    4ed8:	fc042c23          	sw	zero,-40(s0)
    4edc:	0540006f          	j	4f30 <dir_next+0x23c>
    4ee0:	fc843783          	ld	a5,-56(s0)
    4ee4:	0007b783          	ld	a5,0(a5)
    4ee8:	00100713          	li	a4,1
    4eec:	00e78223          	sb	a4,4(a5)
    4ef0:	fc843783          	ld	a5,-56(s0)
    4ef4:	0007b783          	ld	a5,0(a5)
    4ef8:	00078513          	mv	a0,a5
    4efc:	dd1fe0ef          	jal	ra,3ccc <sync_window>
    4f00:	00050793          	mv	a5,a0
    4f04:	00078663          	beqz	a5,4f10 <dir_next+0x21c>
    4f08:	00100793          	li	a5,1
    4f0c:	0cc0006f          	j	4fd8 <dir_next+0x2e4>
    4f10:	fc843783          	ld	a5,-56(s0)
    4f14:	0007b783          	ld	a5,0(a5)
    4f18:	0307a703          	lw	a4,48(a5)
    4f1c:	0017071b          	addiw	a4,a4,1
    4f20:	02e7a823          	sw	a4,48(a5)
    4f24:	fd842783          	lw	a5,-40(s0)
    4f28:	0017879b          	addiw	a5,a5,1
    4f2c:	fcf42c23          	sw	a5,-40(s0)
    4f30:	fc843783          	ld	a5,-56(s0)
    4f34:	0007b783          	ld	a5,0(a5)
    4f38:	0027c783          	lbu	a5,2(a5)
    4f3c:	00078713          	mv	a4,a5
    4f40:	fd842783          	lw	a5,-40(s0)
    4f44:	f8e7eee3          	bltu	a5,a4,4ee0 <dir_next+0x1ec>
    4f48:	fc843783          	ld	a5,-56(s0)
    4f4c:	0007b783          	ld	a5,0(a5)
    4f50:	fc843703          	ld	a4,-56(s0)
    4f54:	00073703          	ld	a4,0(a4)
    4f58:	03072683          	lw	a3,48(a4)
    4f5c:	fd842703          	lw	a4,-40(s0)
    4f60:	40e6873b          	subw	a4,a3,a4
    4f64:	02e7a823          	sw	a4,48(a5)
    4f68:	fc843783          	ld	a5,-56(s0)
    4f6c:	fdc42703          	lw	a4,-36(s0)
    4f70:	00e7a823          	sw	a4,16(a5)
    4f74:	fc843783          	ld	a5,-56(s0)
    4f78:	0007b783          	ld	a5,0(a5)
    4f7c:	fdc42583          	lw	a1,-36(s0)
    4f80:	00078513          	mv	a0,a5
    4f84:	920ff0ef          	jal	ra,40a4 <clust2sect>
    4f88:	00050713          	mv	a4,a0
    4f8c:	fc843783          	ld	a5,-56(s0)
    4f90:	00e7aa23          	sw	a4,20(a5)
    4f94:	fd442783          	lw	a5,-44(s0)
    4f98:	03079713          	slli	a4,a5,0x30
    4f9c:	03075713          	srli	a4,a4,0x30
    4fa0:	fc843783          	ld	a5,-56(s0)
    4fa4:	00e79523          	sh	a4,10(a5)
    4fa8:	fc843783          	ld	a5,-56(s0)
    4fac:	0007b783          	ld	a5,0(a5)
    4fb0:	03478713          	addi	a4,a5,52
    4fb4:	fd442783          	lw	a5,-44(s0)
    4fb8:	00f7f793          	andi	a5,a5,15
    4fbc:	0057979b          	slliw	a5,a5,0x5
    4fc0:	02079793          	slli	a5,a5,0x20
    4fc4:	0207d793          	srli	a5,a5,0x20
    4fc8:	00f70733          	add	a4,a4,a5
    4fcc:	fc843783          	ld	a5,-56(s0)
    4fd0:	00e7bc23          	sd	a4,24(a5)
    4fd4:	00000793          	li	a5,0
    4fd8:	00078513          	mv	a0,a5
    4fdc:	03813083          	ld	ra,56(sp)
    4fe0:	03013403          	ld	s0,48(sp)
    4fe4:	02813483          	ld	s1,40(sp)
    4fe8:	04010113          	addi	sp,sp,64
    4fec:	00008067          	ret

0000000000004ff0 <dir_alloc>:
    4ff0:	fd010113          	addi	sp,sp,-48
    4ff4:	02113423          	sd	ra,40(sp)
    4ff8:	02813023          	sd	s0,32(sp)
    4ffc:	03010413          	addi	s0,sp,48
    5000:	fca43c23          	sd	a0,-40(s0)
    5004:	fcb42a23          	sw	a1,-44(s0)
    5008:	00000593          	li	a1,0
    500c:	fd843503          	ld	a0,-40(s0)
    5010:	b05ff0ef          	jal	ra,4b14 <dir_sdi>
    5014:	fea42623          	sw	a0,-20(s0)
    5018:	fec42783          	lw	a5,-20(s0)
    501c:	08079a63          	bnez	a5,50b0 <dir_alloc+0xc0>
    5020:	fe042423          	sw	zero,-24(s0)
    5024:	fd843783          	ld	a5,-40(s0)
    5028:	0007b703          	ld	a4,0(a5)
    502c:	fd843783          	ld	a5,-40(s0)
    5030:	0147a783          	lw	a5,20(a5)
    5034:	00078593          	mv	a1,a5
    5038:	00070513          	mv	a0,a4
    503c:	d95fe0ef          	jal	ra,3dd0 <move_window>
    5040:	fea42623          	sw	a0,-20(s0)
    5044:	fec42783          	lw	a5,-20(s0)
    5048:	06079263          	bnez	a5,50ac <dir_alloc+0xbc>
    504c:	fd843783          	ld	a5,-40(s0)
    5050:	0187b783          	ld	a5,24(a5)
    5054:	0007c703          	lbu	a4,0(a5)
    5058:	0e500793          	li	a5,229
    505c:	00f70a63          	beq	a4,a5,5070 <dir_alloc+0x80>
    5060:	fd843783          	ld	a5,-40(s0)
    5064:	0187b783          	ld	a5,24(a5)
    5068:	0007c783          	lbu	a5,0(a5)
    506c:	02079063          	bnez	a5,508c <dir_alloc+0x9c>
    5070:	fe842783          	lw	a5,-24(s0)
    5074:	0017879b          	addiw	a5,a5,1
    5078:	fef42423          	sw	a5,-24(s0)
    507c:	fe842703          	lw	a4,-24(s0)
    5080:	fd442783          	lw	a5,-44(s0)
    5084:	00f71663          	bne	a4,a5,5090 <dir_alloc+0xa0>
    5088:	0280006f          	j	50b0 <dir_alloc+0xc0>
    508c:	fe042423          	sw	zero,-24(s0)
    5090:	00100593          	li	a1,1
    5094:	fd843503          	ld	a0,-40(s0)
    5098:	c5dff0ef          	jal	ra,4cf4 <dir_next>
    509c:	fea42623          	sw	a0,-20(s0)
    50a0:	fec42783          	lw	a5,-20(s0)
    50a4:	f80780e3          	beqz	a5,5024 <dir_alloc+0x34>
    50a8:	0080006f          	j	50b0 <dir_alloc+0xc0>
    50ac:	00000013          	nop
    50b0:	fec42703          	lw	a4,-20(s0)
    50b4:	00400793          	li	a5,4
    50b8:	00f71663          	bne	a4,a5,50c4 <dir_alloc+0xd4>
    50bc:	00700793          	li	a5,7
    50c0:	fef42623          	sw	a5,-20(s0)
    50c4:	fec42783          	lw	a5,-20(s0)
    50c8:	00078513          	mv	a0,a5
    50cc:	02813083          	ld	ra,40(sp)
    50d0:	02013403          	ld	s0,32(sp)
    50d4:	03010113          	addi	sp,sp,48
    50d8:	00008067          	ret

00000000000050dc <ld_clust>:
    50dc:	fd010113          	addi	sp,sp,-48
    50e0:	02813423          	sd	s0,40(sp)
    50e4:	03010413          	addi	s0,sp,48
    50e8:	fca43c23          	sd	a0,-40(s0)
    50ec:	fcb43823          	sd	a1,-48(s0)
    50f0:	fd043783          	ld	a5,-48(s0)
    50f4:	01b78793          	addi	a5,a5,27
    50f8:	0007c783          	lbu	a5,0(a5)
    50fc:	0087979b          	slliw	a5,a5,0x8
    5100:	0107971b          	slliw	a4,a5,0x10
    5104:	4107571b          	sraiw	a4,a4,0x10
    5108:	fd043783          	ld	a5,-48(s0)
    510c:	01a78793          	addi	a5,a5,26
    5110:	0007c783          	lbu	a5,0(a5)
    5114:	0107979b          	slliw	a5,a5,0x10
    5118:	4107d79b          	sraiw	a5,a5,0x10
    511c:	00f767b3          	or	a5,a4,a5
    5120:	0107979b          	slliw	a5,a5,0x10
    5124:	4107d79b          	sraiw	a5,a5,0x10
    5128:	03079793          	slli	a5,a5,0x30
    512c:	0307d793          	srli	a5,a5,0x30
    5130:	fef42623          	sw	a5,-20(s0)
    5134:	fd843783          	ld	a5,-40(s0)
    5138:	0007c703          	lbu	a4,0(a5)
    513c:	00300793          	li	a5,3
    5140:	04f71a63          	bne	a4,a5,5194 <ld_clust+0xb8>
    5144:	fd043783          	ld	a5,-48(s0)
    5148:	01578793          	addi	a5,a5,21
    514c:	0007c783          	lbu	a5,0(a5)
    5150:	0087979b          	slliw	a5,a5,0x8
    5154:	0107971b          	slliw	a4,a5,0x10
    5158:	4107571b          	sraiw	a4,a4,0x10
    515c:	fd043783          	ld	a5,-48(s0)
    5160:	01478793          	addi	a5,a5,20
    5164:	0007c783          	lbu	a5,0(a5)
    5168:	0107979b          	slliw	a5,a5,0x10
    516c:	4107d79b          	sraiw	a5,a5,0x10
    5170:	00f767b3          	or	a5,a4,a5
    5174:	0107979b          	slliw	a5,a5,0x10
    5178:	4107d79b          	sraiw	a5,a5,0x10
    517c:	03079793          	slli	a5,a5,0x30
    5180:	0307d793          	srli	a5,a5,0x30
    5184:	0107979b          	slliw	a5,a5,0x10
    5188:	fec42703          	lw	a4,-20(s0)
    518c:	00f767b3          	or	a5,a4,a5
    5190:	fef42623          	sw	a5,-20(s0)
    5194:	fec42783          	lw	a5,-20(s0)
    5198:	00078513          	mv	a0,a5
    519c:	02813403          	ld	s0,40(sp)
    51a0:	03010113          	addi	sp,sp,48
    51a4:	00008067          	ret

00000000000051a8 <st_clust>:
    51a8:	fe010113          	addi	sp,sp,-32
    51ac:	00813c23          	sd	s0,24(sp)
    51b0:	02010413          	addi	s0,sp,32
    51b4:	fea43423          	sd	a0,-24(s0)
    51b8:	feb42223          	sw	a1,-28(s0)
    51bc:	fe843783          	ld	a5,-24(s0)
    51c0:	01a78793          	addi	a5,a5,26
    51c4:	fe442703          	lw	a4,-28(s0)
    51c8:	0ff77713          	andi	a4,a4,255
    51cc:	00e78023          	sb	a4,0(a5)
    51d0:	fe843783          	ld	a5,-24(s0)
    51d4:	01b78793          	addi	a5,a5,27
    51d8:	fe442683          	lw	a3,-28(s0)
    51dc:	00010737          	lui	a4,0x10
    51e0:	fff7071b          	addiw	a4,a4,-1
    51e4:	00e6f733          	and	a4,a3,a4
    51e8:	4087571b          	sraiw	a4,a4,0x8
    51ec:	0ff77713          	andi	a4,a4,255
    51f0:	00e78023          	sb	a4,0(a5)
    51f4:	fe843783          	ld	a5,-24(s0)
    51f8:	01478793          	addi	a5,a5,20
    51fc:	fe442703          	lw	a4,-28(s0)
    5200:	0107571b          	srliw	a4,a4,0x10
    5204:	0ff77713          	andi	a4,a4,255
    5208:	00e78023          	sb	a4,0(a5)
    520c:	fe843783          	ld	a5,-24(s0)
    5210:	01578793          	addi	a5,a5,21
    5214:	fe442703          	lw	a4,-28(s0)
    5218:	0107571b          	srliw	a4,a4,0x10
    521c:	4087571b          	sraiw	a4,a4,0x8
    5220:	0ff77713          	andi	a4,a4,255
    5224:	00e78023          	sb	a4,0(a5)
    5228:	00000013          	nop
    522c:	01813403          	ld	s0,24(sp)
    5230:	02010113          	addi	sp,sp,32
    5234:	00008067          	ret

0000000000005238 <dir_find>:
    5238:	fc010113          	addi	sp,sp,-64
    523c:	02113c23          	sd	ra,56(sp)
    5240:	02813823          	sd	s0,48(sp)
    5244:	04010413          	addi	s0,sp,64
    5248:	fca43423          	sd	a0,-56(s0)
    524c:	00000593          	li	a1,0
    5250:	fc843503          	ld	a0,-56(s0)
    5254:	8c1ff0ef          	jal	ra,4b14 <dir_sdi>
    5258:	fea42623          	sw	a0,-20(s0)
    525c:	fec42783          	lw	a5,-20(s0)
    5260:	00078663          	beqz	a5,526c <dir_find+0x34>
    5264:	fec42783          	lw	a5,-20(s0)
    5268:	0b80006f          	j	5320 <dir_find+0xe8>
    526c:	fc843783          	ld	a5,-56(s0)
    5270:	0007b703          	ld	a4,0(a5)
    5274:	fc843783          	ld	a5,-56(s0)
    5278:	0147a783          	lw	a5,20(a5)
    527c:	00078593          	mv	a1,a5
    5280:	00070513          	mv	a0,a4
    5284:	b4dfe0ef          	jal	ra,3dd0 <move_window>
    5288:	fea42623          	sw	a0,-20(s0)
    528c:	fec42783          	lw	a5,-20(s0)
    5290:	08079063          	bnez	a5,5310 <dir_find+0xd8>
    5294:	fc843783          	ld	a5,-56(s0)
    5298:	0187b783          	ld	a5,24(a5)
    529c:	fef43023          	sd	a5,-32(s0)
    52a0:	fe043783          	ld	a5,-32(s0)
    52a4:	0007c783          	lbu	a5,0(a5)
    52a8:	fcf40fa3          	sb	a5,-33(s0)
    52ac:	fdf44783          	lbu	a5,-33(s0)
    52b0:	00079863          	bnez	a5,52c0 <dir_find+0x88>
    52b4:	00400793          	li	a5,4
    52b8:	fef42623          	sw	a5,-20(s0)
    52bc:	0600006f          	j	531c <dir_find+0xe4>
    52c0:	fe043783          	ld	a5,-32(s0)
    52c4:	00b78793          	addi	a5,a5,11
    52c8:	0007c783          	lbu	a5,0(a5)
    52cc:	0087f793          	andi	a5,a5,8
    52d0:	02079263          	bnez	a5,52f4 <dir_find+0xbc>
    52d4:	fc843783          	ld	a5,-56(s0)
    52d8:	0207b783          	ld	a5,32(a5)
    52dc:	00b00613          	li	a2,11
    52e0:	00078593          	mv	a1,a5
    52e4:	fe043503          	ld	a0,-32(s0)
    52e8:	901fe0ef          	jal	ra,3be8 <mem_cmp>
    52ec:	00050793          	mv	a5,a0
    52f0:	02078463          	beqz	a5,5318 <dir_find+0xe0>
    52f4:	00000593          	li	a1,0
    52f8:	fc843503          	ld	a0,-56(s0)
    52fc:	9f9ff0ef          	jal	ra,4cf4 <dir_next>
    5300:	fea42623          	sw	a0,-20(s0)
    5304:	fec42783          	lw	a5,-20(s0)
    5308:	f60782e3          	beqz	a5,526c <dir_find+0x34>
    530c:	0100006f          	j	531c <dir_find+0xe4>
    5310:	00000013          	nop
    5314:	0080006f          	j	531c <dir_find+0xe4>
    5318:	00000013          	nop
    531c:	fec42783          	lw	a5,-20(s0)
    5320:	00078513          	mv	a0,a5
    5324:	03813083          	ld	ra,56(sp)
    5328:	03013403          	ld	s0,48(sp)
    532c:	04010113          	addi	sp,sp,64
    5330:	00008067          	ret

0000000000005334 <dir_read>:
    5334:	fc010113          	addi	sp,sp,-64
    5338:	02113c23          	sd	ra,56(sp)
    533c:	02813823          	sd	s0,48(sp)
    5340:	04010413          	addi	s0,sp,64
    5344:	fca43423          	sd	a0,-56(s0)
    5348:	fcb42223          	sw	a1,-60(s0)
    534c:	00400793          	li	a5,4
    5350:	fef42623          	sw	a5,-20(s0)
    5354:	0bc0006f          	j	5410 <dir_read+0xdc>
    5358:	fc843783          	ld	a5,-56(s0)
    535c:	0007b703          	ld	a4,0(a5)
    5360:	fc843783          	ld	a5,-56(s0)
    5364:	0147a783          	lw	a5,20(a5)
    5368:	00078593          	mv	a1,a5
    536c:	00070513          	mv	a0,a4
    5370:	a61fe0ef          	jal	ra,3dd0 <move_window>
    5374:	fea42623          	sw	a0,-20(s0)
    5378:	fec42783          	lw	a5,-20(s0)
    537c:	0a079263          	bnez	a5,5420 <dir_read+0xec>
    5380:	fc843783          	ld	a5,-56(s0)
    5384:	0187b783          	ld	a5,24(a5)
    5388:	fef43023          	sd	a5,-32(s0)
    538c:	fe043783          	ld	a5,-32(s0)
    5390:	0007c783          	lbu	a5,0(a5)
    5394:	fcf40fa3          	sb	a5,-33(s0)
    5398:	fdf44783          	lbu	a5,-33(s0)
    539c:	00079863          	bnez	a5,53ac <dir_read+0x78>
    53a0:	00400793          	li	a5,4
    53a4:	fef42623          	sw	a5,-20(s0)
    53a8:	08c0006f          	j	5434 <dir_read+0x100>
    53ac:	fe043783          	ld	a5,-32(s0)
    53b0:	00b78793          	addi	a5,a5,11
    53b4:	0007c783          	lbu	a5,0(a5)
    53b8:	03f7f793          	andi	a5,a5,63
    53bc:	fcf40f23          	sb	a5,-34(s0)
    53c0:	fdf44703          	lbu	a4,-33(s0)
    53c4:	0e500793          	li	a5,229
    53c8:	02f70863          	beq	a4,a5,53f8 <dir_read+0xc4>
    53cc:	fde44703          	lbu	a4,-34(s0)
    53d0:	00f00793          	li	a5,15
    53d4:	02f70263          	beq	a4,a5,53f8 <dir_read+0xc4>
    53d8:	fde44783          	lbu	a5,-34(s0)
    53dc:	fdf7f793          	andi	a5,a5,-33
    53e0:	ff87879b          	addiw	a5,a5,-8
    53e4:	0017b793          	seqz	a5,a5
    53e8:	0ff7f793          	andi	a5,a5,255
    53ec:	00078713          	mv	a4,a5
    53f0:	fc442783          	lw	a5,-60(s0)
    53f4:	02f70a63          	beq	a4,a5,5428 <dir_read+0xf4>
    53f8:	00000593          	li	a1,0
    53fc:	fc843503          	ld	a0,-56(s0)
    5400:	8f5ff0ef          	jal	ra,4cf4 <dir_next>
    5404:	fea42623          	sw	a0,-20(s0)
    5408:	fec42783          	lw	a5,-20(s0)
    540c:	02079263          	bnez	a5,5430 <dir_read+0xfc>
    5410:	fc843783          	ld	a5,-56(s0)
    5414:	0147a783          	lw	a5,20(a5)
    5418:	f40790e3          	bnez	a5,5358 <dir_read+0x24>
    541c:	0180006f          	j	5434 <dir_read+0x100>
    5420:	00000013          	nop
    5424:	0100006f          	j	5434 <dir_read+0x100>
    5428:	00000013          	nop
    542c:	0080006f          	j	5434 <dir_read+0x100>
    5430:	00000013          	nop
    5434:	fec42783          	lw	a5,-20(s0)
    5438:	00078663          	beqz	a5,5444 <dir_read+0x110>
    543c:	fc843783          	ld	a5,-56(s0)
    5440:	0007aa23          	sw	zero,20(a5)
    5444:	fec42783          	lw	a5,-20(s0)
    5448:	00078513          	mv	a0,a5
    544c:	03813083          	ld	ra,56(sp)
    5450:	03013403          	ld	s0,48(sp)
    5454:	04010113          	addi	sp,sp,64
    5458:	00008067          	ret

000000000000545c <dir_register>:
    545c:	fd010113          	addi	sp,sp,-48
    5460:	02113423          	sd	ra,40(sp)
    5464:	02813023          	sd	s0,32(sp)
    5468:	03010413          	addi	s0,sp,48
    546c:	fca43c23          	sd	a0,-40(s0)
    5470:	00100593          	li	a1,1
    5474:	fd843503          	ld	a0,-40(s0)
    5478:	b79ff0ef          	jal	ra,4ff0 <dir_alloc>
    547c:	fea42623          	sw	a0,-20(s0)
    5480:	fec42783          	lw	a5,-20(s0)
    5484:	06079a63          	bnez	a5,54f8 <dir_register+0x9c>
    5488:	fd843783          	ld	a5,-40(s0)
    548c:	0007b703          	ld	a4,0(a5)
    5490:	fd843783          	ld	a5,-40(s0)
    5494:	0147a783          	lw	a5,20(a5)
    5498:	00078593          	mv	a1,a5
    549c:	00070513          	mv	a0,a4
    54a0:	931fe0ef          	jal	ra,3dd0 <move_window>
    54a4:	fea42623          	sw	a0,-20(s0)
    54a8:	fec42783          	lw	a5,-20(s0)
    54ac:	04079663          	bnez	a5,54f8 <dir_register+0x9c>
    54b0:	fd843783          	ld	a5,-40(s0)
    54b4:	0187b783          	ld	a5,24(a5)
    54b8:	02000613          	li	a2,32
    54bc:	00000593          	li	a1,0
    54c0:	00078513          	mv	a0,a5
    54c4:	ec8fe0ef          	jal	ra,3b8c <mem_set>
    54c8:	fd843783          	ld	a5,-40(s0)
    54cc:	0187b703          	ld	a4,24(a5)
    54d0:	fd843783          	ld	a5,-40(s0)
    54d4:	0207b783          	ld	a5,32(a5)
    54d8:	00b00613          	li	a2,11
    54dc:	00078593          	mv	a1,a5
    54e0:	00070513          	mv	a0,a4
    54e4:	e3cfe0ef          	jal	ra,3b20 <mem_cpy>
    54e8:	fd843783          	ld	a5,-40(s0)
    54ec:	0007b783          	ld	a5,0(a5)
    54f0:	00100713          	li	a4,1
    54f4:	00e78223          	sb	a4,4(a5)
    54f8:	fec42783          	lw	a5,-20(s0)
    54fc:	00078513          	mv	a0,a5
    5500:	02813083          	ld	ra,40(sp)
    5504:	02013403          	ld	s0,32(sp)
    5508:	03010113          	addi	sp,sp,48
    550c:	00008067          	ret

0000000000005510 <dir_remove>:
    5510:	fd010113          	addi	sp,sp,-48
    5514:	02113423          	sd	ra,40(sp)
    5518:	02813023          	sd	s0,32(sp)
    551c:	03010413          	addi	s0,sp,48
    5520:	fca43c23          	sd	a0,-40(s0)
    5524:	fd843783          	ld	a5,-40(s0)
    5528:	00a7d783          	lhu	a5,10(a5)
    552c:	00078593          	mv	a1,a5
    5530:	fd843503          	ld	a0,-40(s0)
    5534:	de0ff0ef          	jal	ra,4b14 <dir_sdi>
    5538:	fea42623          	sw	a0,-20(s0)
    553c:	fec42783          	lw	a5,-20(s0)
    5540:	06079263          	bnez	a5,55a4 <dir_remove+0x94>
    5544:	fd843783          	ld	a5,-40(s0)
    5548:	0007b703          	ld	a4,0(a5)
    554c:	fd843783          	ld	a5,-40(s0)
    5550:	0147a783          	lw	a5,20(a5)
    5554:	00078593          	mv	a1,a5
    5558:	00070513          	mv	a0,a4
    555c:	875fe0ef          	jal	ra,3dd0 <move_window>
    5560:	fea42623          	sw	a0,-20(s0)
    5564:	fec42783          	lw	a5,-20(s0)
    5568:	02079e63          	bnez	a5,55a4 <dir_remove+0x94>
    556c:	fd843783          	ld	a5,-40(s0)
    5570:	0187b783          	ld	a5,24(a5)
    5574:	02000613          	li	a2,32
    5578:	00000593          	li	a1,0
    557c:	00078513          	mv	a0,a5
    5580:	e0cfe0ef          	jal	ra,3b8c <mem_set>
    5584:	fd843783          	ld	a5,-40(s0)
    5588:	0187b783          	ld	a5,24(a5)
    558c:	fe500713          	li	a4,-27
    5590:	00e78023          	sb	a4,0(a5)
    5594:	fd843783          	ld	a5,-40(s0)
    5598:	0007b783          	ld	a5,0(a5)
    559c:	00100713          	li	a4,1
    55a0:	00e78223          	sb	a4,4(a5)
    55a4:	fec42783          	lw	a5,-20(s0)
    55a8:	00078513          	mv	a0,a5
    55ac:	02813083          	ld	ra,40(sp)
    55b0:	02013403          	ld	s0,32(sp)
    55b4:	03010113          	addi	sp,sp,48
    55b8:	00008067          	ret

00000000000055bc <get_fileinfo>:
    55bc:	fc010113          	addi	sp,sp,-64
    55c0:	02813c23          	sd	s0,56(sp)
    55c4:	04010413          	addi	s0,sp,64
    55c8:	fca43423          	sd	a0,-56(s0)
    55cc:	fcb43023          	sd	a1,-64(s0)
    55d0:	fc043783          	ld	a5,-64(s0)
    55d4:	00978793          	addi	a5,a5,9
    55d8:	fef43023          	sd	a5,-32(s0)
    55dc:	fc843783          	ld	a5,-56(s0)
    55e0:	0147a783          	lw	a5,20(a5)
    55e4:	18078863          	beqz	a5,5774 <get_fileinfo+0x1b8>
    55e8:	fc843783          	ld	a5,-56(s0)
    55ec:	0187b783          	ld	a5,24(a5)
    55f0:	fcf43823          	sd	a5,-48(s0)
    55f4:	fe042623          	sw	zero,-20(s0)
    55f8:	0800006f          	j	5678 <get_fileinfo+0xbc>
    55fc:	fec42783          	lw	a5,-20(s0)
    5600:	0017871b          	addiw	a4,a5,1
    5604:	fee42623          	sw	a4,-20(s0)
    5608:	02079793          	slli	a5,a5,0x20
    560c:	0207d793          	srli	a5,a5,0x20
    5610:	fd043703          	ld	a4,-48(s0)
    5614:	00f707b3          	add	a5,a4,a5
    5618:	0007c783          	lbu	a5,0(a5)
    561c:	fcf40fa3          	sb	a5,-33(s0)
    5620:	fdf44703          	lbu	a4,-33(s0)
    5624:	02000793          	li	a5,32
    5628:	00f71463          	bne	a4,a5,5630 <get_fileinfo+0x74>
    562c:	04c0006f          	j	5678 <get_fileinfo+0xbc>
    5630:	fdf44703          	lbu	a4,-33(s0)
    5634:	00500793          	li	a5,5
    5638:	00f71663          	bne	a4,a5,5644 <get_fileinfo+0x88>
    563c:	fe500793          	li	a5,-27
    5640:	fcf40fa3          	sb	a5,-33(s0)
    5644:	fec42703          	lw	a4,-20(s0)
    5648:	00900793          	li	a5,9
    564c:	00f71c63          	bne	a4,a5,5664 <get_fileinfo+0xa8>
    5650:	fe043783          	ld	a5,-32(s0)
    5654:	00178713          	addi	a4,a5,1
    5658:	fee43023          	sd	a4,-32(s0)
    565c:	02e00713          	li	a4,46
    5660:	00e78023          	sb	a4,0(a5)
    5664:	fe043783          	ld	a5,-32(s0)
    5668:	00178713          	addi	a4,a5,1
    566c:	fee43023          	sd	a4,-32(s0)
    5670:	fdf44703          	lbu	a4,-33(s0)
    5674:	00e78023          	sb	a4,0(a5)
    5678:	fec42703          	lw	a4,-20(s0)
    567c:	00a00793          	li	a5,10
    5680:	f6e7fee3          	bleu	a4,a5,55fc <get_fileinfo+0x40>
    5684:	fd043783          	ld	a5,-48(s0)
    5688:	00b7c703          	lbu	a4,11(a5)
    568c:	fc043783          	ld	a5,-64(s0)
    5690:	00e78423          	sb	a4,8(a5)
    5694:	fd043783          	ld	a5,-48(s0)
    5698:	01f78793          	addi	a5,a5,31
    569c:	0007c783          	lbu	a5,0(a5)
    56a0:	0187971b          	slliw	a4,a5,0x18
    56a4:	fd043783          	ld	a5,-48(s0)
    56a8:	01e78793          	addi	a5,a5,30
    56ac:	0007c783          	lbu	a5,0(a5)
    56b0:	0107979b          	slliw	a5,a5,0x10
    56b4:	00f767b3          	or	a5,a4,a5
    56b8:	fd043703          	ld	a4,-48(s0)
    56bc:	01d70713          	addi	a4,a4,29 # 1001d <_gp+0x4665>
    56c0:	00074703          	lbu	a4,0(a4)
    56c4:	0087171b          	slliw	a4,a4,0x8
    56c8:	00e7e7b3          	or	a5,a5,a4
    56cc:	fd043703          	ld	a4,-48(s0)
    56d0:	01c70713          	addi	a4,a4,28
    56d4:	00074703          	lbu	a4,0(a4)
    56d8:	00e7e733          	or	a4,a5,a4
    56dc:	fc043783          	ld	a5,-64(s0)
    56e0:	00e7a023          	sw	a4,0(a5)
    56e4:	fd043783          	ld	a5,-48(s0)
    56e8:	01978793          	addi	a5,a5,25
    56ec:	0007c783          	lbu	a5,0(a5)
    56f0:	0087979b          	slliw	a5,a5,0x8
    56f4:	0107971b          	slliw	a4,a5,0x10
    56f8:	4107571b          	sraiw	a4,a4,0x10
    56fc:	fd043783          	ld	a5,-48(s0)
    5700:	01878793          	addi	a5,a5,24
    5704:	0007c783          	lbu	a5,0(a5)
    5708:	0107979b          	slliw	a5,a5,0x10
    570c:	4107d79b          	sraiw	a5,a5,0x10
    5710:	00f767b3          	or	a5,a4,a5
    5714:	0107979b          	slliw	a5,a5,0x10
    5718:	4107d79b          	sraiw	a5,a5,0x10
    571c:	03079713          	slli	a4,a5,0x30
    5720:	03075713          	srli	a4,a4,0x30
    5724:	fc043783          	ld	a5,-64(s0)
    5728:	00e79223          	sh	a4,4(a5)
    572c:	fd043783          	ld	a5,-48(s0)
    5730:	01778793          	addi	a5,a5,23
    5734:	0007c783          	lbu	a5,0(a5)
    5738:	0087979b          	slliw	a5,a5,0x8
    573c:	0107971b          	slliw	a4,a5,0x10
    5740:	4107571b          	sraiw	a4,a4,0x10
    5744:	fd043783          	ld	a5,-48(s0)
    5748:	01678793          	addi	a5,a5,22
    574c:	0007c783          	lbu	a5,0(a5)
    5750:	0107979b          	slliw	a5,a5,0x10
    5754:	4107d79b          	sraiw	a5,a5,0x10
    5758:	00f767b3          	or	a5,a4,a5
    575c:	0107979b          	slliw	a5,a5,0x10
    5760:	4107d79b          	sraiw	a5,a5,0x10
    5764:	03079713          	slli	a4,a5,0x30
    5768:	03075713          	srli	a4,a4,0x30
    576c:	fc043783          	ld	a5,-64(s0)
    5770:	00e79323          	sh	a4,6(a5)
    5774:	fe043783          	ld	a5,-32(s0)
    5778:	00078023          	sb	zero,0(a5)
    577c:	00000013          	nop
    5780:	03813403          	ld	s0,56(sp)
    5784:	04010113          	addi	sp,sp,64
    5788:	00008067          	ret

000000000000578c <create_name>:
    578c:	fc010113          	addi	sp,sp,-64
    5790:	02113c23          	sd	ra,56(sp)
    5794:	02813823          	sd	s0,48(sp)
    5798:	04010413          	addi	s0,sp,64
    579c:	fca43423          	sd	a0,-56(s0)
    57a0:	fcb43023          	sd	a1,-64(s0)
    57a4:	fc043783          	ld	a5,-64(s0)
    57a8:	0007b783          	ld	a5,0(a5)
    57ac:	fcf43c23          	sd	a5,-40(s0)
    57b0:	0100006f          	j	57c0 <create_name+0x34>
    57b4:	fd843783          	ld	a5,-40(s0)
    57b8:	00178793          	addi	a5,a5,1
    57bc:	fcf43c23          	sd	a5,-40(s0)
    57c0:	fd843783          	ld	a5,-40(s0)
    57c4:	0007c703          	lbu	a4,0(a5)
    57c8:	02f00793          	li	a5,47
    57cc:	fef704e3          	beq	a4,a5,57b4 <create_name+0x28>
    57d0:	fd843783          	ld	a5,-40(s0)
    57d4:	0007c703          	lbu	a4,0(a5)
    57d8:	05c00793          	li	a5,92
    57dc:	fcf70ce3          	beq	a4,a5,57b4 <create_name+0x28>
    57e0:	fc843783          	ld	a5,-56(s0)
    57e4:	0207b783          	ld	a5,32(a5)
    57e8:	fcf43823          	sd	a5,-48(s0)
    57ec:	00b00613          	li	a2,11
    57f0:	02000593          	li	a1,32
    57f4:	fd043503          	ld	a0,-48(s0)
    57f8:	b94fe0ef          	jal	ra,3b8c <mem_set>
    57fc:	fe0407a3          	sb	zero,-17(s0)
    5800:	fe042023          	sw	zero,-32(s0)
    5804:	fe042783          	lw	a5,-32(s0)
    5808:	fef42223          	sw	a5,-28(s0)
    580c:	00800793          	li	a5,8
    5810:	fef42423          	sw	a5,-24(s0)
    5814:	fe446783          	lwu	a5,-28(s0)
    5818:	fd843703          	ld	a4,-40(s0)
    581c:	00f707b3          	add	a5,a4,a5
    5820:	0007c703          	lbu	a4,0(a5)
    5824:	02e00793          	li	a5,46
    5828:	0cf71a63          	bne	a4,a5,58fc <create_name+0x170>
    582c:	fe442783          	lw	a5,-28(s0)
    5830:	0017871b          	addiw	a4,a5,1
    5834:	fee42223          	sw	a4,-28(s0)
    5838:	02079793          	slli	a5,a5,0x20
    583c:	0207d793          	srli	a5,a5,0x20
    5840:	fd843703          	ld	a4,-40(s0)
