
eth.riscv:     file format elf64-littleriscv


Disassembly of section .text:

0000000040000000 <_start>:
    40000000:	00000297          	auipc	t0,0x0
    40000004:	09c28293          	addi	t0,t0,156 # 4000009c <trap_entry>
    40000008:	30529073          	csrw	mtvec,t0
    4000000c:	4081                	li	ra,0
    4000000e:	4101                	li	sp,0
    40000010:	4181                	li	gp,0
    40000012:	4201                	li	tp,0
    40000014:	4281                	li	t0,0
    40000016:	4301                	li	t1,0
    40000018:	4381                	li	t2,0
    4000001a:	4401                	li	s0,0
    4000001c:	4481                	li	s1,0
    4000001e:	4501                	li	a0,0
    40000020:	4581                	li	a1,0
    40000022:	4601                	li	a2,0
    40000024:	4681                	li	a3,0
    40000026:	4701                	li	a4,0
    40000028:	4781                	li	a5,0
    4000002a:	4801                	li	a6,0
    4000002c:	4881                	li	a7,0
    4000002e:	4901                	li	s2,0
    40000030:	4981                	li	s3,0
    40000032:	4a01                	li	s4,0
    40000034:	4a81                	li	s5,0
    40000036:	4b01                	li	s6,0
    40000038:	4b81                	li	s7,0
    4000003a:	4c01                	li	s8,0
    4000003c:	4c81                	li	s9,0
    4000003e:	4d01                	li	s10,0
    40000040:	4d81                	li	s11,0
    40000042:	4e01                	li	t3,0
    40000044:	4e81                	li	t4,0
    40000046:	4f01                	li	t5,0
    40000048:	4f81                	li	t6,0
    4000004a:	6299                	lui	t0,0x6
    4000004c:	3002a073          	csrs	mstatus,t0
    40000050:	62e1                	lui	t0,0x18
    40000052:	3002a073          	csrs	mstatus,t0
    40000056:	300022f3          	csrr	t0,mstatus
    4000005a:	6361                	lui	t1,0x18
    4000005c:	0062f333          	and	t1,t0,t1
    40000060:	00008397          	auipc	t2,0x8
    40000064:	cc63a423          	sw	t1,-824(t2) # 40007d28 <have_vec>
    40000068:	6319                	lui	t1,0x6
    4000006a:	0062f333          	and	t1,t0,t1
    4000006e:	00030263          	beqz	t1,40000072 <_start+0x72>
    40000072:	00008197          	auipc	gp,0x8
    40000076:	3be18193          	addi	gp,gp,958 # 40008430 <_gp>
    4000007a:	00009217          	auipc	tp,0x9
    4000007e:	b5520213          	addi	tp,tp,-1195 # 40008bcf <_end+0x3f>
    40000082:	fc027213          	andi	tp,tp,-64
    40000086:	f1402573          	csrr	a0,mhartid
    4000008a:	4585                	li	a1,1
    4000008c:	00b57063          	bleu	a1,a0,4000008c <_start+0x8c>
    40000090:	400105b7          	lui	a1,0x40010
    40000094:	ff858113          	addi	sp,a1,-8 # 4000fff8 <_end+0x7468>
    40000098:	2800106f          	j	40001318 <_init>

000000004000009c <trap_entry>:
    4000009c:	716d                	addi	sp,sp,-272
    4000009e:	c002                	sw	zero,0(sp)
    400000a0:	c206                	sw	ra,4(sp)
    400000a2:	c40a                	sw	sp,8(sp)
    400000a4:	c60e                	sw	gp,12(sp)
    400000a6:	c812                	sw	tp,16(sp)
    400000a8:	ca16                	sw	t0,20(sp)
    400000aa:	cc1a                	sw	t1,24(sp)
    400000ac:	ce1e                	sw	t2,28(sp)
    400000ae:	d022                	sw	s0,32(sp)
    400000b0:	d226                	sw	s1,36(sp)
    400000b2:	d42a                	sw	a0,40(sp)
    400000b4:	d62e                	sw	a1,44(sp)
    400000b6:	d832                	sw	a2,48(sp)
    400000b8:	da36                	sw	a3,52(sp)
    400000ba:	dc3a                	sw	a4,56(sp)
    400000bc:	de3e                	sw	a5,60(sp)
    400000be:	c0c2                	sw	a6,64(sp)
    400000c0:	c2c6                	sw	a7,68(sp)
    400000c2:	c4ca                	sw	s2,72(sp)
    400000c4:	c6ce                	sw	s3,76(sp)
    400000c6:	c8d2                	sw	s4,80(sp)
    400000c8:	cad6                	sw	s5,84(sp)
    400000ca:	ccda                	sw	s6,88(sp)
    400000cc:	cede                	sw	s7,92(sp)
    400000ce:	d0e2                	sw	s8,96(sp)
    400000d0:	d2e6                	sw	s9,100(sp)
    400000d2:	d4ea                	sw	s10,104(sp)
    400000d4:	d6ee                	sw	s11,108(sp)
    400000d6:	d8f2                	sw	t3,112(sp)
    400000d8:	daf6                	sw	t4,116(sp)
    400000da:	dcfa                	sw	t5,120(sp)
    400000dc:	defe                	sw	t6,124(sp)
    400000de:	34202573          	csrr	a0,mcause
    400000e2:	341025f3          	csrr	a1,mepc
    400000e6:	860a                	mv	a2,sp
    400000e8:	00055563          	bgez	a0,400000f2 <trap_entry+0x56>
    400000ec:	050010ef          	jal	ra,4000113c <handle_interrupt>
    400000f0:	a029                	j	400000fa <trap_entry+0x5e>
    400000f2:	060010ef          	jal	ra,40001152 <handle_trap>
    400000f6:	34151073          	csrw	mepc,a0
    400000fa:	000022b7          	lui	t0,0x2
    400000fe:	8002829b          	addiw	t0,t0,-2048
    40000102:	3002a073          	csrs	mstatus,t0
    40000106:	4092                	lw	ra,4(sp)
    40000108:	4122                	lw	sp,8(sp)
    4000010a:	41b2                	lw	gp,12(sp)
    4000010c:	4242                	lw	tp,16(sp)
    4000010e:	42d2                	lw	t0,20(sp)
    40000110:	4362                	lw	t1,24(sp)
    40000112:	43f2                	lw	t2,28(sp)
    40000114:	5402                	lw	s0,32(sp)
    40000116:	5492                	lw	s1,36(sp)
    40000118:	5522                	lw	a0,40(sp)
    4000011a:	55b2                	lw	a1,44(sp)
    4000011c:	5642                	lw	a2,48(sp)
    4000011e:	56d2                	lw	a3,52(sp)
    40000120:	5762                	lw	a4,56(sp)
    40000122:	57f2                	lw	a5,60(sp)
    40000124:	4806                	lw	a6,64(sp)
    40000126:	4896                	lw	a7,68(sp)
    40000128:	4926                	lw	s2,72(sp)
    4000012a:	49b6                	lw	s3,76(sp)
    4000012c:	4a46                	lw	s4,80(sp)
    4000012e:	4ad6                	lw	s5,84(sp)
    40000130:	4b66                	lw	s6,88(sp)
    40000132:	4bf6                	lw	s7,92(sp)
    40000134:	5c06                	lw	s8,96(sp)
    40000136:	5c96                	lw	s9,100(sp)
    40000138:	5d26                	lw	s10,104(sp)
    4000013a:	5db6                	lw	s11,108(sp)
    4000013c:	5e46                	lw	t3,112(sp)
    4000013e:	5ed6                	lw	t4,116(sp)
    40000140:	5f66                	lw	t5,120(sp)
    40000142:	5ff6                	lw	t6,124(sp)
    40000144:	6151                	addi	sp,sp,272
    40000146:	30200073          	mret

000000004000014a <copyin_pkt>:
    4000014a:	00008797          	auipc	a5,0x8
    4000014e:	b3e78793          	addi	a5,a5,-1218 # 40007c88 <eth_base>
    40000152:	6394                	ld	a3,0(a5)
    40000154:	6585                	lui	a1,0x1
    40000156:	6805                	lui	a6,0x1
    40000158:	00b687b3          	add	a5,a3,a1
    4000015c:	8307b603          	ld	a2,-2000(a5)
    40000160:	15fd                	addi	a1,a1,-1
    40000162:	8a3d                	andi	a2,a2,15
    40000164:	0036171b          	slliw	a4,a2,0x3
    40000168:	03877793          	andi	a5,a4,56
    4000016c:	8408071b          	addiw	a4,a6,-1984
    40000170:	9f3d                	addw	a4,a4,a5
    40000172:	9736                	add	a4,a4,a3
    40000174:	631c                	ld	a5,0(a4)
    40000176:	5f200713          	li	a4,1522
    4000017a:	8fed                	and	a5,a5,a1
    4000017c:	2781                	sext.w	a5,a5
    4000017e:	fee7859b          	addiw	a1,a5,-18
    40000182:	ffc7851b          	addiw	a0,a5,-4
    40000186:	0cb76663          	bltu	a4,a1,40000252 <copyin_pkt+0x108>
    4000018a:	00008717          	auipc	a4,0x8
    4000018e:	b4670713          	addi	a4,a4,-1210 # 40007cd0 <eth_discard>
    40000192:	4318                	lw	a4,0(a4)
    40000194:	ef5d                	bnez	a4,40000252 <copyin_pkt+0x108>
    40000196:	0086159b          	slliw	a1,a2,0x8
    4000019a:	7005f313          	andi	t1,a1,1792
    4000019e:	8008059b          	addiw	a1,a6,-2048
    400001a2:	006585bb          	addw	a1,a1,t1
    400001a6:	00359813          	slli	a6,a1,0x3
    400001aa:	9836                	add	a6,a6,a3
    400001ac:	00c82803          	lw	a6,12(a6) # 100c <_tbss_end+0x100c>
    400001b0:	1141                	addi	sp,sp,-16
    400001b2:	00008717          	auipc	a4,0x8
    400001b6:	b8670713          	addi	a4,a4,-1146 # 40007d38 <rxbuf>
    400001ba:	010107a3          	sb	a6,15(sp)
    400001be:	0108181b          	slliw	a6,a6,0x10
    400001c2:	00008897          	auipc	a7,0x8
    400001c6:	b8a88893          	addi	a7,a7,-1142 # 40007d4c <rxhead>
    400001ca:	0108581b          	srliw	a6,a6,0x10
    400001ce:	37ed                	addiw	a5,a5,-5
    400001d0:	00073e03          	ld	t3,0(a4)
    400001d4:	0088581b          	srliw	a6,a6,0x8
    400001d8:	0008a703          	lw	a4,0(a7)
    400001dc:	0077e793          	ori	a5,a5,7
    400001e0:	01010723          	sb	a6,14(sp)
    400001e4:	2785                	addiw	a5,a5,1
    400001e6:	4821                	li	a6,8
    400001e8:	0307c7bb          	divw	a5,a5,a6
    400001ec:	680d                	lui	a6,0x3
    400001ee:	0821                	addi	a6,a6,8
    400001f0:	2701                	sext.w	a4,a4
    400001f2:	4301                	li	t1,0
    400001f4:	03070733          	mul	a4,a4,a6
    400001f8:	8846                	mv	a6,a7
    400001fa:	9772                	add	a4,a4,t3
    400001fc:	0003089b          	sext.w	a7,t1
    40000200:	02f8ce63          	blt	a7,a5,4000023c <copyin_pkt+0xf2>
    40000204:	00082583          	lw	a1,0(a6) # 3000 <_tbss_end+0x3000>
    40000208:	670d                	lui	a4,0x3
    4000020a:	00870793          	addi	a5,a4,8 # 3008 <_tbss_end+0x3008>
    4000020e:	02b787b3          	mul	a5,a5,a1
    40000212:	0605                	addi	a2,a2,1
    40000214:	97f2                	add	a5,a5,t3
    40000216:	97ba                	add	a5,a5,a4
    40000218:	e388                	sd	a0,0(a5)
    4000021a:	00082783          	lw	a5,0(a6)
    4000021e:	40000713          	li	a4,1024
    40000222:	2785                	addiw	a5,a5,1
    40000224:	02e7e7bb          	remw	a5,a5,a4
    40000228:	00008717          	auipc	a4,0x8
    4000022c:	b2f72223          	sw	a5,-1244(a4) # 40007d4c <rxhead>
    40000230:	6785                	lui	a5,0x1
    40000232:	96be                	add	a3,a3,a5
    40000234:	82c6b823          	sd	a2,-2000(a3)
    40000238:	0141                	addi	sp,sp,16
    4000023a:	8082                	ret
    4000023c:	006588b3          	add	a7,a1,t1
    40000240:	088e                	slli	a7,a7,0x3
    40000242:	98b6                	add	a7,a7,a3
    40000244:	0008b883          	ld	a7,0(a7)
    40000248:	0305                	addi	t1,t1,1
    4000024a:	0721                	addi	a4,a4,8
    4000024c:	ff173c23          	sd	a7,-8(a4)
    40000250:	b775                	j	400001fc <copyin_pkt+0xb2>
    40000252:	6785                	lui	a5,0x1
    40000254:	0605                	addi	a2,a2,1
    40000256:	96be                	add	a3,a3,a5
    40000258:	82c6b823          	sd	a2,-2000(a3)
    4000025c:	8082                	ret

000000004000025e <sbrk>:
    4000025e:	1141                	addi	sp,sp,-16
    40000260:	e022                	sd	s0,0(sp)
    40000262:	e406                	sd	ra,8(sp)
    40000264:	842a                	mv	s0,a0
    40000266:	3fc010ef          	jal	ra,40001662 <get_ddr_base>
    4000026a:	00008697          	auipc	a3,0x8
    4000026e:	a5668693          	addi	a3,a3,-1450 # 40007cc0 <rused.3621>
    40000272:	6298                	ld	a4,0(a3)
    40000274:	fff40793          	addi	a5,s0,-1
    40000278:	60a2                	ld	ra,8(sp)
    4000027a:	6402                	ld	s0,0(sp)
    4000027c:	0077e793          	ori	a5,a5,7
    40000280:	00170613          	addi	a2,a4,1
    40000284:	97b2                	add	a5,a5,a2
    40000286:	e29c                	sd	a5,0(a3)
    40000288:	953a                	add	a0,a0,a4
    4000028a:	0141                	addi	sp,sp,16
    4000028c:	8082                	ret

000000004000028e <external_interrupt>:
    4000028e:	7179                	addi	sp,sp,-48
    40000290:	00008797          	auipc	a5,0x8
    40000294:	9e078793          	addi	a5,a5,-1568 # 40007c70 <plic>
    40000298:	f022                	sd	s0,32(sp)
    4000029a:	6380                	ld	s0,0(a5)
    4000029c:	002007b7          	lui	a5,0x200
    400002a0:	ec26                	sd	s1,24(sp)
    400002a2:	97a2                	add	a5,a5,s0
    400002a4:	43c4                	lw	s1,4(a5)
    400002a6:	00008797          	auipc	a5,0x8
    400002aa:	9e278793          	addi	a5,a5,-1566 # 40007c88 <eth_base>
    400002ae:	e84a                	sd	s2,16(sp)
    400002b0:	0007b903          	ld	s2,0(a5)
    400002b4:	e44e                	sd	s3,8(sp)
    400002b6:	6985                	lui	s3,0x1
    400002b8:	f406                	sd	ra,40(sp)
    400002ba:	2481                	sext.w	s1,s1
    400002bc:	994e                	add	s2,s2,s3
    400002be:	83093783          	ld	a5,-2000(s2)
    400002c2:	03379713          	slli	a4,a5,0x33
    400002c6:	02074563          	bltz	a4,400002f0 <external_interrupt+0x62>
    400002ca:	00008797          	auipc	a5,0x8
    400002ce:	9ce78793          	addi	a5,a5,-1586 # 40007c98 <uart_base>
    400002d2:	639c                	ld	a5,0(a5)
    400002d4:	70a2                	ld	ra,40(sp)
    400002d6:	6942                	ld	s2,16(sp)
    400002d8:	97ce                	add	a5,a5,s3
    400002da:	0007b023          	sd	zero,0(a5)
    400002de:	002007b7          	lui	a5,0x200
    400002e2:	943e                	add	s0,s0,a5
    400002e4:	c044                	sw	s1,4(s0)
    400002e6:	7402                	ld	s0,32(sp)
    400002e8:	64e2                	ld	s1,24(sp)
    400002ea:	69a2                	ld	s3,8(sp)
    400002ec:	6145                	addi	sp,sp,48
    400002ee:	8082                	ret
    400002f0:	e5bff0ef          	jal	ra,4000014a <copyin_pkt>
    400002f4:	b7e9                	j	400002be <external_interrupt+0x30>

00000000400002f6 <rand64>:
    400002f6:	1101                	addi	sp,sp,-32
    400002f8:	ec06                	sd	ra,24(sp)
    400002fa:	e822                	sd	s0,16(sp)
    400002fc:	e426                	sd	s1,8(sp)
    400002fe:	e04a                	sd	s2,0(sp)
    40000300:	3f1050ef          	jal	ra,40005ef0 <rand>
    40000304:	842a                	mv	s0,a0
    40000306:	3eb050ef          	jal	ra,40005ef0 <rand>
    4000030a:	892a                	mv	s2,a0
    4000030c:	3e5050ef          	jal	ra,40005ef0 <rand>
    40000310:	84aa                	mv	s1,a0
    40000312:	0109191b          	slliw	s2,s2,0x10
    40000316:	3db050ef          	jal	ra,40005ef0 <rand>
    4000031a:	01246433          	or	s0,s0,s2
    4000031e:	0105151b          	slliw	a0,a0,0x10
    40000322:	8d45                	or	a0,a0,s1
    40000324:	1402                	slli	s0,s0,0x20
    40000326:	9001                	srli	s0,s0,0x20
    40000328:	1502                	slli	a0,a0,0x20
    4000032a:	8d41                	or	a0,a0,s0
    4000032c:	60e2                	ld	ra,24(sp)
    4000032e:	6442                	ld	s0,16(sp)
    40000330:	64a2                	ld	s1,8(sp)
    40000332:	6902                	ld	s2,0(sp)
    40000334:	6105                	addi	sp,sp,32
    40000336:	8082                	ret

0000000040000338 <loopback_test>:
    40000338:	7135                	addi	sp,sp,-160
    4000033a:	00008797          	auipc	a5,0x8
    4000033e:	94e78793          	addi	a5,a5,-1714 # 40007c88 <eth_base>
    40000342:	fcce                	sd	s3,120(sp)
    40000344:	0007b983          	ld	s3,0(a5)
    40000348:	e922                	sd	s0,144(sp)
    4000034a:	6405                	lui	s0,0x1
    4000034c:	944e                	add	s0,s0,s3
    4000034e:	80843783          	ld	a5,-2040(s0) # 808 <_tbss_end+0x808>
    40000352:	00420737          	lui	a4,0x420
    40000356:	f4d6                	sd	s5,104(sp)
    40000358:	17c2                	slli	a5,a5,0x30
    4000035a:	93c1                	srli	a5,a5,0x30
    4000035c:	f0da                	sd	s6,96(sp)
    4000035e:	ecde                	sd	s7,88(sp)
    40000360:	e8e2                	sd	s8,80(sp)
    40000362:	8fd9                	or	a5,a5,a4
    40000364:	ed06                	sd	ra,152(sp)
    40000366:	e526                	sd	s1,136(sp)
    40000368:	e14a                	sd	s2,128(sp)
    4000036a:	f8d2                	sd	s4,112(sp)
    4000036c:	e4e6                	sd	s9,72(sp)
    4000036e:	e0ea                	sd	s10,64(sp)
    40000370:	fc6e                	sd	s11,56(sp)
    40000372:	80f43423          	sd	a5,-2040(s0)
    40000376:	6791                	lui	a5,0x4
    40000378:	80078793          	addi	a5,a5,-2048 # 3800 <_tbss_end+0x3800>
    4000037c:	e82a                	sd	a0,16(sp)
    4000037e:	8b2e                	mv	s6,a1
    40000380:	4a85                	li	s5,1
    40000382:	6c05                	lui	s8,0x1
    40000384:	ec3e                	sd	a5,24(sp)
    40000386:	00008b97          	auipc	s7,0x8
    4000038a:	a42b8b93          	addi	s7,s7,-1470 # 40007dc8 <random_pkt>
    4000038e:	67c2                	ld	a5,16(sp)
    40000390:	0357d163          	ble	s5,a5,400003b2 <loopback_test+0x7a>
    40000394:	60ea                	ld	ra,152(sp)
    40000396:	644a                	ld	s0,144(sp)
    40000398:	64aa                	ld	s1,136(sp)
    4000039a:	690a                	ld	s2,128(sp)
    4000039c:	79e6                	ld	s3,120(sp)
    4000039e:	7a46                	ld	s4,112(sp)
    400003a0:	7aa6                	ld	s5,104(sp)
    400003a2:	7b06                	ld	s6,96(sp)
    400003a4:	6be6                	ld	s7,88(sp)
    400003a6:	6c46                	ld	s8,80(sp)
    400003a8:	6ca6                	ld	s9,72(sp)
    400003aa:	6d06                	ld	s10,64(sp)
    400003ac:	7de2                	ld	s11,56(sp)
    400003ae:	610d                	addi	sp,sp,160
    400003b0:	8082                	ret
    400003b2:	83043d83          	ld	s11,-2000(s0)
    400003b6:	67e2                	ld	a5,24(sp)
    400003b8:	4485                	li	s1,1
    400003ba:	004ddd93          	srli	s11,s11,0x4
    400003be:	00fdfd93          	andi	s11,s11,15
    400003c2:	00bd9d1b          	slliw	s10,s11,0xb
    400003c6:	83843a03          	ld	s4,-1992(s0)
    400003ca:	01a7fd33          	and	s10,a5,s10
    400003ce:	6911                	lui	s2,0x4
    400003d0:	0154973b          	sllw	a4,s1,s5
    400003d4:	0bb00793          	li	a5,187
    400003d8:	996a                	add	s2,s2,s10
    400003da:	84ba                	mv	s1,a4
    400003dc:	00e7d463          	ble	a4,a5,400003e4 <loopback_test+0xac>
    400003e0:	0bb00493          	li	s1,187
    400003e4:	020b1e63          	bnez	s6,40000420 <loopback_test+0xe8>
    400003e8:	86ca                	mv	a3,s2
    400003ea:	866e                	mv	a2,s11
    400003ec:	85d6                	mv	a1,s5
    400003ee:	00006517          	auipc	a0,0x6
    400003f2:	7ca50513          	addi	a0,a0,1994 # 40006bb8 <main+0x3e>
    400003f6:	28f050ef          	jal	ra,40005e84 <printf>
    400003fa:	4ca9                	li	s9,10
    400003fc:	034c85bb          	mulw	a1,s9,s4
    40000400:	00006517          	auipc	a0,0x6
    40000404:	7f050513          	addi	a0,a0,2032 # 40006bf0 <main+0x76>
    40000408:	27d050ef          	jal	ra,40005e84 <printf>
    4000040c:	020a5593          	srli	a1,s4,0x20
    40000410:	02bc85bb          	mulw	a1,s9,a1
    40000414:	00006517          	auipc	a0,0x6
    40000418:	7ec50513          	addi	a0,a0,2028 # 40006c00 <main+0x86>
    4000041c:	269050ef          	jal	ra,40005e84 <printf>
    40000420:	47a1                	li	a5,8
    40000422:	82f43423          	sd	a5,-2008(s0)
    40000426:	83b43823          	sd	s11,-2000(s0)
    4000042a:	00349a1b          	slliw	s4,s1,0x3
    4000042e:	080b0863          	beqz	s6,400004be <loopback_test+0x186>
    40000432:	57fd                	li	a5,-1
    40000434:	00008717          	auipc	a4,0x8
    40000438:	98f73a23          	sd	a5,-1644(a4) # 40007dc8 <random_pkt>
    4000043c:	00007797          	auipc	a5,0x7
    40000440:	7f478793          	addi	a5,a5,2036 # 40007c30 <P_array.1885+0x30>
    40000444:	639c                	ld	a5,0(a5)
    40000446:	00008717          	auipc	a4,0x8
    4000044a:	98f73523          	sd	a5,-1654(a4) # 40007dd0 <random_pkt+0x8>
    4000044e:	4781                	li	a5,0
    40000450:	0007871b          	sext.w	a4,a5
    40000454:	09474663          	blt	a4,s4,400004e0 <loopback_test+0x1a8>
    40000458:	6691                	lui	a3,0x4
    4000045a:	4c81                	li	s9,0
    4000045c:	4d81                	li	s11,0
    4000045e:	01a68d3b          	addw	s10,a3,s10
    40000462:	000c881b          	sext.w	a6,s9
    40000466:	09484c63          	blt	a6,s4,400004fe <loopback_test+0x1c6>
    4000046a:	81443823          	sd	s4,-2032(s0)
    4000046e:	4701                	li	a4,0
    40000470:	83043783          	ld	a5,-2000(s0)
    40000474:	0007069b          	sext.w	a3,a4
    40000478:	0187f7b3          	and	a5,a5,s8
    4000047c:	e391                	bnez	a5,40000480 <loopback_test+0x148>
    4000047e:	e436                	sd	a3,8(sp)
    40000480:	0c96cd63          	blt	a3,s1,4000055a <loopback_test+0x222>
    40000484:	cbf9                	beqz	a5,4000055a <loopback_test+0x222>
    40000486:	00008d17          	auipc	s10,0x8
    4000048a:	942d0d13          	addi	s10,s10,-1726 # 40007dc8 <random_pkt>
    4000048e:	4d81                	li	s11,0
    40000490:	4a01                	li	s4,0
    40000492:	41790933          	sub	s2,s2,s7
    40000496:	4825                	li	a6,9
    40000498:	00006897          	auipc	a7,0x6
    4000049c:	7c888893          	addi	a7,a7,1992 # 40006c60 <main+0xe6>
    400004a0:	0a9a4f63          	blt	s4,s1,4000055e <loopback_test+0x226>
    400004a4:	000b1b63          	bnez	s6,400004ba <loopback_test+0x182>
    400004a8:	66a2                	ld	a3,8(sp)
    400004aa:	8626                	mv	a2,s1
    400004ac:	85ee                	mv	a1,s11
    400004ae:	00006517          	auipc	a0,0x6
    400004b2:	7e250513          	addi	a0,a0,2018 # 40006c90 <main+0x116>
    400004b6:	1cf050ef          	jal	ra,40005e84 <printf>
    400004ba:	2a85                	addiw	s5,s5,1
    400004bc:	bdc9                	j	4000038e <loopback_test+0x56>
    400004be:	e39ff0ef          	jal	ra,400002f6 <rand64>
    400004c2:	00008797          	auipc	a5,0x8
    400004c6:	eea7bf23          	sd	a0,-258(a5) # 400083c0 <random_pkt+0x5f8>
    400004ca:	4d81                	li	s11,0
    400004cc:	f74dd3e3          	ble	s4,s11,40000432 <loopback_test+0xfa>
    400004d0:	e27ff0ef          	jal	ra,400002f6 <rand64>
    400004d4:	ff8df793          	andi	a5,s11,-8
    400004d8:	97de                	add	a5,a5,s7
    400004da:	e388                	sd	a0,0(a5)
    400004dc:	2da1                	addiw	s11,s11,8
    400004de:	b7fd                	j	400004cc <loopback_test+0x194>
    400004e0:	9b61                	andi	a4,a4,-8
    400004e2:	975e                	add	a4,a4,s7
    400004e4:	6314                	ld	a3,0(a4)
    400004e6:	01878733          	add	a4,a5,s8
    400004ea:	9b61                	andi	a4,a4,-8
    400004ec:	974e                	add	a4,a4,s3
    400004ee:	e314                	sd	a3,0(a4)
    400004f0:	00f90733          	add	a4,s2,a5
    400004f4:	9b61                	andi	a4,a4,-8
    400004f6:	974e                	add	a4,a4,s3
    400004f8:	e31c                	sd	a5,0(a4)
    400004fa:	07a1                	addi	a5,a5,8
    400004fc:	bf91                	j	40000450 <loopback_test+0x118>
    400004fe:	47a5                	li	a5,9
    40000500:	05b7cb63          	blt	a5,s11,40000556 <loopback_test+0x21e>
    40000504:	018c86b3          	add	a3,s9,s8
    40000508:	019d063b          	addw	a2,s10,s9
    4000050c:	9ae1                	andi	a3,a3,-8
    4000050e:	9a61                	andi	a2,a2,-8
    40000510:	964e                	add	a2,a2,s3
    40000512:	96ce                	add	a3,a3,s3
    40000514:	6294                	ld	a3,0(a3)
    40000516:	00063883          	ld	a7,0(a2)
    4000051a:	ff887613          	andi	a2,a6,-8
    4000051e:	965e                	add	a2,a2,s7
    40000520:	6210                	ld	a2,0(a2)
    40000522:	00d60e63          	beq	a2,a3,4000053e <loopback_test+0x206>
    40000526:	85c2                	mv	a1,a6
    40000528:	00006517          	auipc	a0,0x6
    4000052c:	6e850513          	addi	a0,a0,1768 # 40006c10 <main+0x96>
    40000530:	f446                	sd	a7,40(sp)
    40000532:	f042                	sd	a6,32(sp)
    40000534:	151050ef          	jal	ra,40005e84 <printf>
    40000538:	78a2                	ld	a7,40(sp)
    4000053a:	7802                	ld	a6,32(sp)
    4000053c:	2d85                	addiw	s11,s11,1
    4000053e:	011c8c63          	beq	s9,a7,40000556 <loopback_test+0x21e>
    40000542:	86c6                	mv	a3,a7
    40000544:	8642                	mv	a2,a6
    40000546:	85c2                	mv	a1,a6
    40000548:	00006517          	auipc	a0,0x6
    4000054c:	6f050513          	addi	a0,a0,1776 # 40006c38 <main+0xbe>
    40000550:	2d85                	addiw	s11,s11,1
    40000552:	133050ef          	jal	ra,40005e84 <printf>
    40000556:	0ca1                	addi	s9,s9,8
    40000558:	b729                	j	40000462 <loopback_test+0x12a>
    4000055a:	2705                	addiw	a4,a4,1
    4000055c:	bf11                	j	40000470 <loopback_test+0x138>
    4000055e:	01a907b3          	add	a5,s2,s10
    40000562:	9be1                	andi	a5,a5,-8
    40000564:	97ce                	add	a5,a5,s3
    40000566:	000d3603          	ld	a2,0(s10)
    4000056a:	6394                	ld	a3,0(a5)
    4000056c:	02d60463          	beq	a2,a3,40000594 <loopback_test+0x25c>
    40000570:	01484f63          	blt	a6,s4,4000058e <loopback_test+0x256>
    40000574:	000b1d63          	bnez	s6,4000058e <loopback_test+0x256>
    40000578:	82843703          	ld	a4,-2008(s0)
    4000057c:	8546                	mv	a0,a7
    4000057e:	85d2                	mv	a1,s4
    40000580:	2701                	sext.w	a4,a4
    40000582:	f442                	sd	a6,40(sp)
    40000584:	f046                	sd	a7,32(sp)
    40000586:	0ff050ef          	jal	ra,40005e84 <printf>
    4000058a:	7882                	ld	a7,32(sp)
    4000058c:	7822                	ld	a6,40(sp)
    4000058e:	2a05                	addiw	s4,s4,1
    40000590:	0d21                	addi	s10,s10,8
    40000592:	b739                	j	400004a0 <loopback_test+0x168>
    40000594:	2d85                	addiw	s11,s11,1
    40000596:	bfe5                	j	4000058e <loopback_test+0x256>

0000000040000598 <init_plic>:
    40000598:	7179                	addi	sp,sp,-48
    4000059a:	00007797          	auipc	a5,0x7
    4000059e:	6d678793          	addi	a5,a5,1750 # 40007c70 <plic>
    400005a2:	f022                	sd	s0,32(sp)
    400005a4:	6380                	ld	s0,0(a5)
    400005a6:	f406                	sd	ra,40(sp)
    400005a8:	ec26                	sd	s1,24(sp)
    400005aa:	e84a                	sd	s2,16(sp)
    400005ac:	e44e                	sd	s3,8(sp)
    400005ae:	00440793          	addi	a5,s0,4
    400005b2:	10440713          	addi	a4,s0,260
    400005b6:	4685                	li	a3,1
    400005b8:	c394                	sw	a3,0(a5)
    400005ba:	0791                	addi	a5,a5,4
    400005bc:	fef71ee3          	bne	a4,a5,400005b8 <init_plic+0x20>
    400005c0:	6605                	lui	a2,0x1
    400005c2:	4705                	li	a4,1
    400005c4:	8006061b          	addiw	a2,a2,-2048
    400005c8:	4805                	li	a6,1
    400005ca:	04100593          	li	a1,65
    400005ce:	4057579b          	sraiw	a5,a4,0x5
    400005d2:	9fb1                	addw	a5,a5,a2
    400005d4:	078a                	slli	a5,a5,0x2
    400005d6:	97a2                	add	a5,a5,s0
    400005d8:	4394                	lw	a3,0(a5)
    400005da:	00e8153b          	sllw	a0,a6,a4
    400005de:	2705                	addiw	a4,a4,1
    400005e0:	8ec9                	or	a3,a3,a0
    400005e2:	2681                	sext.w	a3,a3
    400005e4:	c394                	sw	a3,0(a5)
    400005e6:	feb714e3          	bne	a4,a1,400005ce <init_plic+0x36>
    400005ea:	002007b7          	lui	a5,0x200
    400005ee:	97a2                	add	a5,a5,s0
    400005f0:	0007a023          	sw	zero,0(a5) # 200000 <_tbss_end+0x200000>
    400005f4:	4481                	li	s1,0
    400005f6:	00006997          	auipc	s3,0x6
    400005fa:	6c298993          	addi	s3,s3,1730 # 40006cb8 <main+0x13e>
    400005fe:	4911                	li	s2,4
    40000600:	00249793          	slli	a5,s1,0x2
    40000604:	97a2                	add	a5,a5,s0
    40000606:	4390                	lw	a2,0(a5)
    40000608:	0004859b          	sext.w	a1,s1
    4000060c:	854e                	mv	a0,s3
    4000060e:	0485                	addi	s1,s1,1
    40000610:	075050ef          	jal	ra,40005e84 <printf>
    40000614:	ff2496e3          	bne	s1,s2,40000600 <init_plic+0x68>
    40000618:	6789                	lui	a5,0x2
    4000061a:	943e                	add	s0,s0,a5
    4000061c:	6785                	lui	a5,0x1
    4000061e:	80078913          	addi	s2,a5,-2048 # 800 <_tbss_end+0x800>
    40000622:	00006997          	auipc	s3,0x6
    40000626:	69698993          	addi	s3,s3,1686 # 40006cb8 <main+0x13e>
    4000062a:	80478493          	addi	s1,a5,-2044
    4000062e:	4010                	lw	a2,0(s0)
    40000630:	85ca                	mv	a1,s2
    40000632:	854e                	mv	a0,s3
    40000634:	2905                	addiw	s2,s2,1
    40000636:	04f050ef          	jal	ra,40005e84 <printf>
    4000063a:	0411                	addi	s0,s0,4
    4000063c:	fe9919e3          	bne	s2,s1,4000062e <init_plic+0x96>
    40000640:	70a2                	ld	ra,40(sp)
    40000642:	7402                	ld	s0,32(sp)
    40000644:	64e2                	ld	s1,24(sp)
    40000646:	6942                	ld	s2,16(sp)
    40000648:	69a2                	ld	s3,8(sp)
    4000064a:	6145                	addi	sp,sp,48
    4000064c:	8082                	ret

000000004000064e <boot>:
    4000064e:	1101                	addi	sp,sp,-32
    40000650:	ec06                	sd	ra,24(sp)
    40000652:	e822                	sd	s0,16(sp)
    40000654:	e426                	sd	s1,8(sp)
    40000656:	e04a                	sd	s2,0(sp)
    40000658:	842e                	mv	s0,a1
    4000065a:	892a                	mv	s2,a0
    4000065c:	006010ef          	jal	ra,40001662 <get_ddr_base>
    40000660:	84aa                	mv	s1,a0
    40000662:	00006517          	auipc	a0,0x6
    40000666:	65e50513          	addi	a0,a0,1630 # 40006cc0 <main+0x146>
    4000066a:	01b050ef          	jal	ra,40005e84 <printf>
    4000066e:	30405073          	csrwi	mie,0
    40000672:	30005073          	csrwi	mstatus,0
    40000676:	7ad000ef          	jal	ra,40001622 <hid_disable_read_irq>
    4000067a:	00007797          	auipc	a5,0x7
    4000067e:	60e78793          	addi	a5,a5,1550 # 40007c88 <eth_base>
    40000682:	639c                	ld	a5,0(a5)
    40000684:	6705                	lui	a4,0x1
    40000686:	ff800637          	lui	a2,0xff800
    4000068a:	97ba                	add	a5,a5,a4
    4000068c:	8087b683          	ld	a3,-2040(a5)
    40000690:	167d                	addi	a2,a2,-1
    40000692:	f0070713          	addi	a4,a4,-256 # f00 <_tbss_end+0xf00>
    40000696:	8ef1                	and	a3,a3,a2
    40000698:	80d7b423          	sd	a3,-2040(a5)
    4000069c:	82e7b823          	sd	a4,-2000(a5)
    400006a0:	8307b583          	ld	a1,-2000(a5)
    400006a4:	00006517          	auipc	a0,0x6
    400006a8:	63450513          	addi	a0,a0,1588 # 40006cd8 <main+0x15e>
    400006ac:	7d8050ef          	jal	ra,40005e84 <printf>
    400006b0:	86a2                	mv	a3,s0
    400006b2:	864a                	mv	a2,s2
    400006b4:	85a2                	mv	a1,s0
    400006b6:	00006517          	auipc	a0,0x6
    400006ba:	64250513          	addi	a0,a0,1602 # 40006cf8 <main+0x17e>
    400006be:	7c6050ef          	jal	ra,40005e84 <printf>
    400006c2:	00006517          	auipc	a0,0x6
    400006c6:	67650513          	addi	a0,a0,1654 # 40006d38 <main+0x1be>
    400006ca:	7ba050ef          	jal	ra,40005e84 <printf>
    400006ce:	85a2                	mv	a1,s0
    400006d0:	854a                	mv	a0,s2
    400006d2:	43a010ef          	jal	ra,40001b0c <load_elf>
    400006d6:	0005059b          	sext.w	a1,a0
    400006da:	c599                	beqz	a1,400006e8 <boot+0x9a>
    400006dc:	00006517          	auipc	a0,0x6
    400006e0:	67450513          	addi	a0,a0,1652 # 40006d50 <main+0x1d6>
    400006e4:	7a0050ef          	jal	ra,40005e84 <printf>
    400006e8:	00006517          	auipc	a0,0x6
    400006ec:	68850513          	addi	a0,a0,1672 # 40006d70 <main+0x1f6>
    400006f0:	794050ef          	jal	ra,40005e84 <printf>
    400006f4:	300027f3          	csrr	a5,mstatus
    400006f8:	6709                	lui	a4,0x2
    400006fa:	88070713          	addi	a4,a4,-1920 # 1880 <_tbss_end+0x1880>
    400006fe:	8fd9                	or	a5,a5,a4
    40000700:	30079073          	csrw	mstatus,a5
    40000704:	34149073          	csrw	mepc,s1
    40000708:	00006517          	auipc	a0,0x6
    4000070c:	68850513          	addi	a0,a0,1672 # 40006d90 <main+0x216>
    40000710:	774050ef          	jal	ra,40005e84 <printf>
    40000714:	30200073          	mret
    40000718:	60e2                	ld	ra,24(sp)
    4000071a:	6442                	ld	s0,16(sp)
    4000071c:	64a2                	ld	s1,8(sp)
    4000071e:	6902                	ld	s2,0(sp)
    40000720:	6105                	addi	sp,sp,32
    40000722:	8082                	ret

0000000040000724 <process_udp_packet>:
    40000724:	7115                	addi	sp,sp,-224
    40000726:	ed86                	sd	ra,216(sp)
    40000728:	e9a2                	sd	s0,208(sp)
    4000072a:	e5a6                	sd	s1,200(sp)
    4000072c:	842e                	mv	s0,a1
    4000072e:	fd4e                	sd	s3,184(sp)
    40000730:	f952                	sd	s4,176(sp)
    40000732:	f556                	sd	s5,168(sp)
    40000734:	8a32                	mv	s4,a2
    40000736:	f15a                	sd	s6,160(sp)
    40000738:	ed5e                	sd	s7,152(sp)
    4000073a:	8b36                	mv	s6,a3
    4000073c:	8bba                	mv	s7,a4
    4000073e:	e1ca                	sd	s2,192(sp)
    40000740:	e962                	sd	s8,144(sp)
    40000742:	89aa                	mv	s3,a0
    40000744:	725000ef          	jal	ra,40001668 <get_ddr_size>
    40000748:	8aaa                	mv	s5,a0
    4000074a:	719000ef          	jal	ra,40001662 <get_ddr_base>
    4000074e:	84aa                	mv	s1,a0
    40000750:	713000ef          	jal	ra,40001662 <get_ddr_base>
    40000754:	00007797          	auipc	a5,0x7
    40000758:	60c78793          	addi	a5,a5,1548 # 40007d60 <uip_hostaddr>
    4000075c:	0007d703          	lhu	a4,0(a5)
    40000760:	0027d783          	lhu	a5,2(a5)
    40000764:	00e11623          	sh	a4,12(sp)
    40000768:	00f11723          	sh	a5,14(sp)
    4000076c:	41200793          	li	a5,1042
    40000770:	1ef41363          	bne	s0,a5,40000956 <process_udp_packet+0x232>
    40000774:	8c2a                	mv	s8,a0
    40000776:	1008                	addi	a0,sp,32
    40000778:	392050ef          	jal	ra,40005b0a <md5_begin>
    4000077c:	40200613          	li	a2,1026
    40000780:	85ce                	mv	a1,s3
    40000782:	1008                	addi	a0,sp,32
    40000784:	2a4050ef          	jal	ra,40005a28 <md5_hash>
    40000788:	1008                	addi	a0,sp,32
    4000078a:	320050ef          	jal	ra,40005aaa <md5_end>
    4000078e:	77c6                	ld	a5,112(sp)
    40000790:	4641                	li	a2,16
    40000792:	40298593          	addi	a1,s3,1026
    40000796:	e83e                	sd	a5,16(sp)
    40000798:	77e6                	ld	a5,120(sp)
    4000079a:	0808                	addi	a0,sp,16
    4000079c:	ec3e                	sd	a5,24(sp)
    4000079e:	6eb000ef          	jal	ra,40001688 <memcmp>
    400007a2:	c901                	beqz	a0,400007b2 <process_udp_packet+0x8e>
    400007a4:	00006517          	auipc	a0,0x6
    400007a8:	60450513          	addi	a0,a0,1540 # 40006da8 <main+0x22e>
    400007ac:	6d8050ef          	jal	ra,40005e84 <printf>
    400007b0:	a8c9                	j	40000882 <process_udp_packet+0x15e>
    400007b2:	4009c783          	lbu	a5,1024(s3)
    400007b6:	ff600537          	lui	a0,0xff600
    400007ba:	9556                	add	a0,a0,s5
    400007bc:	00f10523          	sb	a5,10(sp)
    400007c0:	4019c783          	lbu	a5,1025(s3)
    400007c4:	94aa                	add	s1,s1,a0
    400007c6:	00f105a3          	sb	a5,11(sp)
    400007ca:	00a15903          	lhu	s2,10(sp)
    400007ce:	67c1                	lui	a5,0x10
    400007d0:	ffd78713          	addi	a4,a5,-3 # fffd <_tbss_end+0xfffd>
    400007d4:	0009041b          	sext.w	s0,s2
    400007d8:	10e40c63          	beq	s0,a4,400008f0 <process_udp_packet+0x1cc>
    400007dc:	06876e63          	bltu	a4,s0,40000858 <process_udp_packet+0x134>
    400007e0:	17f1                	addi	a5,a5,-4
    400007e2:	10f40e63          	beq	s0,a5,400008fe <process_udp_packet+0x1da>
    400007e6:	00a41513          	slli	a0,s0,0xa
    400007ea:	9526                	add	a0,a0,s1
    400007ec:	40050793          	addi	a5,a0,1024 # ffffffffff600400 <_end+0xffffffffbf5f7870>
    400007f0:	9ae2                	add	s5,s5,s8
    400007f2:	1557fa63          	bleu	s5,a5,40000946 <process_udp_packet+0x222>
    400007f6:	40000613          	li	a2,1024
    400007fa:	85ce                	mv	a1,s3
    400007fc:	00007797          	auipc	a5,0x7
    40000800:	4c07b623          	sd	zero,1228(a5) # 40007cc8 <digest>
    40000804:	767050ef          	jal	ra,4000676a <memcpy>
    40000808:	00695713          	srli	a4,s2,0x6
    4000080c:	00371793          	slli	a5,a4,0x3
    40000810:	00007717          	auipc	a4,0x7
    40000814:	5b870713          	addi	a4,a4,1464 # 40007dc8 <random_pkt>
    40000818:	973e                	add	a4,a4,a5
    4000081a:	60073683          	ld	a3,1536(a4)
    4000081e:	4785                	li	a5,1
    40000820:	012797b3          	sll	a5,a5,s2
    40000824:	8fd5                	or	a5,a5,a3
    40000826:	60f73023          	sd	a5,1536(a4)
    4000082a:	00007797          	auipc	a5,0x7
    4000082e:	4867d783          	lhu	a5,1158(a5) # 40007cb0 <maxidx.4053>
    40000832:	00f46863          	bltu	s0,a5,40000842 <process_udp_packet+0x11e>
    40000836:	0019079b          	addiw	a5,s2,1
    4000083a:	00007717          	auipc	a4,0x7
    4000083e:	46f71b23          	sh	a5,1142(a4) # 40007cb0 <maxidx.4053>
    40000842:	06400793          	li	a5,100
    40000846:	02f9793b          	remuw	s2,s2,a5
    4000084a:	02091c63          	bnez	s2,40000882 <process_udp_packet+0x15e>
    4000084e:	00006517          	auipc	a0,0x6
    40000852:	5ea50513          	addi	a0,a0,1514 # 40006e38 <main+0x2be>
    40000856:	bf99                	j	400007ac <process_udp_packet+0x88>
    40000858:	ffe78713          	addi	a4,a5,-2
    4000085c:	02e40f63          	beq	s0,a4,4000089a <process_udp_packet+0x176>
    40000860:	17fd                	addi	a5,a5,-1
    40000862:	f8f412e3          	bne	s0,a5,400007e6 <process_udp_packet+0xc2>
    40000866:	00006517          	auipc	a0,0x6
    4000086a:	54a50513          	addi	a0,a0,1354 # 40006db0 <main+0x236>
    4000086e:	616050ef          	jal	ra,40005e84 <printf>
    40000872:	00007597          	auipc	a1,0x7
    40000876:	43e5d583          	lhu	a1,1086(a1) # 40007cb0 <maxidx.4053>
    4000087a:	05aa                	slli	a1,a1,0xa
    4000087c:	8526                	mv	a0,s1
    4000087e:	dd1ff0ef          	jal	ra,4000064e <boot>
    40000882:	60ee                	ld	ra,216(sp)
    40000884:	644e                	ld	s0,208(sp)
    40000886:	64ae                	ld	s1,200(sp)
    40000888:	690e                	ld	s2,192(sp)
    4000088a:	79ea                	ld	s3,184(sp)
    4000088c:	7a4a                	ld	s4,176(sp)
    4000088e:	7aaa                	ld	s5,168(sp)
    40000890:	7b0a                	ld	s6,160(sp)
    40000892:	6bea                	ld	s7,152(sp)
    40000894:	6c4a                	ld	s8,144(sp)
    40000896:	612d                	addi	sp,sp,224
    40000898:	8082                	ret
    4000089a:	00006517          	auipc	a0,0x6
    4000089e:	52650513          	addi	a0,a0,1318 # 40006dc0 <main+0x246>
    400008a2:	00007797          	auipc	a5,0x7
    400008a6:	40079723          	sh	zero,1038(a5) # 40007cb0 <maxidx.4053>
    400008aa:	00007797          	auipc	a5,0x7
    400008ae:	4007bf23          	sd	zero,1054(a5) # 40007cc8 <digest>
    400008b2:	5d2050ef          	jal	ra,40005e84 <printf>
    400008b6:	50000613          	li	a2,1280
    400008ba:	4581                	li	a1,0
    400008bc:	00008517          	auipc	a0,0x8
    400008c0:	b0c50513          	addi	a0,a0,-1268 # 400083c8 <maskarray>
    400008c4:	5e7000ef          	jal	ra,400016aa <memset>
    400008c8:	47b2                	lw	a5,12(sp)
    400008ca:	6689                	lui	a3,0x2
    400008cc:	88de                	mv	a7,s7
    400008ce:	885a                	mv	a6,s6
    400008d0:	8752                	mv	a4,s4
    400008d2:	2b868693          	addi	a3,a3,696 # 22b8 <_tbss_end+0x22b8>
    400008d6:	50000613          	li	a2,1280
    400008da:	00008597          	auipc	a1,0x8
    400008de:	aee58593          	addi	a1,a1,-1298 # 400083c8 <maskarray>
    400008e2:	00007517          	auipc	a0,0x7
    400008e6:	3fe50513          	addi	a0,a0,1022 # 40007ce0 <mac_addr>
    400008ea:	57b050ef          	jal	ra,40006664 <udp_send>
    400008ee:	bf51                	j	40000882 <process_udp_packet+0x15e>
    400008f0:	00006517          	auipc	a0,0x6
    400008f4:	4e850513          	addi	a0,a0,1256 # 40006dd8 <main+0x25e>
    400008f8:	58c050ef          	jal	ra,40005e84 <printf>
    400008fc:	b7f1                	j	400008c8 <process_udp_packet+0x1a4>
    400008fe:	00006517          	auipc	a0,0x6
    40000902:	4fa50513          	addi	a0,a0,1274 # 40006df8 <main+0x27e>
    40000906:	57e050ef          	jal	ra,40005e84 <printf>
    4000090a:	00007797          	auipc	a5,0x7
    4000090e:	3be78793          	addi	a5,a5,958 # 40007cc8 <digest>
    40000912:	6398                	ld	a4,0(a5)
    40000914:	843e                	mv	s0,a5
    40000916:	ef09                	bnez	a4,40000930 <process_udp_packet+0x20c>
    40000918:	00007597          	auipc	a1,0x7
    4000091c:	3985d583          	lhu	a1,920(a1) # 40007cb0 <maxidx.4053>
    40000920:	05aa                	slli	a1,a1,0xa
    40000922:	8526                	mv	a0,s1
    40000924:	26a050ef          	jal	ra,40005b8e <hash_buf>
    40000928:	00007797          	auipc	a5,0x7
    4000092c:	3aa7b023          	sd	a0,928(a5) # 40007cc8 <digest>
    40000930:	6689                	lui	a3,0x2
    40000932:	88de                	mv	a7,s7
    40000934:	885a                	mv	a6,s6
    40000936:	47b2                	lw	a5,12(sp)
    40000938:	8752                	mv	a4,s4
    4000093a:	2b868693          	addi	a3,a3,696 # 22b8 <_tbss_end+0x22b8>
    4000093e:	02100613          	li	a2,33
    40000942:	600c                	ld	a1,0(s0)
    40000944:	bf79                	j	400008e2 <process_udp_packet+0x1be>
    40000946:	85a2                	mv	a1,s0
    40000948:	00006517          	auipc	a0,0x6
    4000094c:	4c850513          	addi	a0,a0,1224 # 40006e10 <main+0x296>
    40000950:	534050ef          	jal	ra,40005e84 <printf>
    40000954:	b5fd                	j	40000842 <process_udp_packet+0x11e>
    40000956:	5dc00793          	li	a5,1500
    4000095a:	f287c4e3          	blt	a5,s0,40000882 <process_udp_packet+0x15e>
    4000095e:	8652                	mv	a2,s4
    40000960:	85a2                	mv	a1,s0
    40000962:	00006517          	auipc	a0,0x6
    40000966:	4de50513          	addi	a0,a0,1246 # 40006e40 <main+0x2c6>
    4000096a:	51a050ef          	jal	ra,40005e84 <printf>
    4000096e:	6689                	lui	a3,0x2
    40000970:	88de                	mv	a7,s7
    40000972:	885a                	mv	a6,s6
    40000974:	47b2                	lw	a5,12(sp)
    40000976:	8752                	mv	a4,s4
    40000978:	2b868693          	addi	a3,a3,696 # 22b8 <_tbss_end+0x22b8>
    4000097c:	8622                	mv	a2,s0
    4000097e:	85ce                	mv	a1,s3
    40000980:	b78d                	j	400008e2 <process_udp_packet+0x1be>

0000000040000982 <eth_main>:
    40000982:	00007797          	auipc	a5,0x7
    40000986:	30678793          	addi	a5,a5,774 # 40007c88 <eth_base>
    4000098a:	639c                	ld	a5,0(a5)
    4000098c:	7171                	addi	sp,sp,-176
    4000098e:	f122                	sd	s0,160(sp)
    40000990:	6405                	lui	s0,0x1
    40000992:	943e                	add	s0,s0,a5
    40000994:	ed26                	sd	s1,152(sp)
    40000996:	e94a                	sd	s2,144(sp)
    40000998:	80043903          	ld	s2,-2048(s0) # 800 <_tbss_end+0x800>
    4000099c:	80843483          	ld	s1,-2040(s0)
    400009a0:	e03e                	sd	a5,0(sp)
    400009a2:	00c007b7          	lui	a5,0xc00
    400009a6:	14c2                	slli	s1,s1,0x30
    400009a8:	90c1                	srli	s1,s1,0x30
    400009aa:	8fc5                	or	a5,a5,s1
    400009ac:	f506                	sd	ra,168(sp)
    400009ae:	e54e                	sd	s3,136(sp)
    400009b0:	e152                	sd	s4,128(sp)
    400009b2:	f4de                	sd	s7,104(sp)
    400009b4:	f0e2                	sd	s8,96(sp)
    400009b6:	e8ea                	sd	s10,80(sp)
    400009b8:	e4ee                	sd	s11,72(sp)
    400009ba:	fcd6                	sd	s5,120(sp)
    400009bc:	f8da                	sd	s6,112(sp)
    400009be:	ece6                	sd	s9,88(sp)
    400009c0:	80f43423          	sd	a5,-2040(s0)
    400009c4:	00c02537          	lui	a0,0xc02
    400009c8:	d602                	sw	zero,44(sp)
    400009ca:	d802                	sw	zero,48(sp)
    400009cc:	893ff0ef          	jal	ra,4000025e <sbrk>
    400009d0:	00007797          	auipc	a5,0x7
    400009d4:	36a7b423          	sd	a0,872(a5) # 40007d38 <rxbuf>
    400009d8:	00c02537          	lui	a0,0xc02
    400009dc:	883ff0ef          	jal	ra,4000025e <sbrk>
    400009e0:	00007797          	auipc	a5,0x7
    400009e4:	34a7b823          	sd	a0,848(a5) # 40007d30 <txbuf>
    400009e8:	50000613          	li	a2,1280
    400009ec:	4581                	li	a1,0
    400009ee:	00008517          	auipc	a0,0x8
    400009f2:	9da50513          	addi	a0,a0,-1574 # 400083c8 <maskarray>
    400009f6:	4b5000ef          	jal	ra,400016aa <memset>
    400009fa:	864a                	mv	a2,s2
    400009fc:	85a6                	mv	a1,s1
    400009fe:	00006517          	auipc	a0,0x6
    40000a02:	46a50513          	addi	a0,a0,1130 # 40006e68 <main+0x2ee>
    40000a06:	47e050ef          	jal	ra,40005e84 <printf>
    40000a0a:	00007717          	auipc	a4,0x7
    40000a0e:	2d974703          	lbu	a4,729(a4) # 40007ce3 <mac_addr+0x3>
    40000a12:	00007817          	auipc	a6,0x7
    40000a16:	2d384803          	lbu	a6,723(a6) # 40007ce5 <mac_addr+0x5>
    40000a1a:	00007697          	auipc	a3,0x7
    40000a1e:	2c86c683          	lbu	a3,712(a3) # 40007ce2 <mac_addr+0x2>
    40000a22:	00007617          	auipc	a2,0x7
    40000a26:	2bf64603          	lbu	a2,703(a2) # 40007ce1 <mac_addr+0x1>
    40000a2a:	00007597          	auipc	a1,0x7
    40000a2e:	2b65c583          	lbu	a1,694(a1) # 40007ce0 <mac_addr>
    40000a32:	00007797          	auipc	a5,0x7
    40000a36:	2b27c783          	lbu	a5,690(a5) # 40007ce4 <mac_addr+0x4>
    40000a3a:	00006517          	auipc	a0,0x6
    40000a3e:	43e50513          	addi	a0,a0,1086 # 40006e78 <main+0x2fe>
    40000a42:	442050ef          	jal	ra,40005e84 <printf>
    40000a46:	00007497          	auipc	s1,0x7
    40000a4a:	29a48493          	addi	s1,s1,666 # 40007ce0 <mac_addr>
    40000a4e:	0004c783          	lbu	a5,0(s1)
    40000a52:	557d                	li	a0,-1
    40000a54:	000f4a37          	lui	s4,0xf4
    40000a58:	00007717          	auipc	a4,0x7
    40000a5c:	28f70023          	sb	a5,640(a4) # 40007cd8 <uip_lladdr>
    40000a60:	0014c783          	lbu	a5,1(s1)
    40000a64:	6b85                	lui	s7,0x1
    40000a66:	4c05                	li	s8,1
    40000a68:	00007717          	auipc	a4,0x7
    40000a6c:	26f708a3          	sb	a5,625(a4) # 40007cd9 <uip_lladdr+0x1>
    40000a70:	0024c783          	lbu	a5,2(s1)
    40000a74:	4901                	li	s2,0
    40000a76:	4981                	li	s3,0
    40000a78:	00007717          	auipc	a4,0x7
    40000a7c:	26f70123          	sb	a5,610(a4) # 40007cda <uip_lladdr+0x2>
    40000a80:	0034c783          	lbu	a5,3(s1)
    40000a84:	240a0a13          	addi	s4,s4,576 # f4240 <_tbss_end+0xf4240>
    40000a88:	800b8d13          	addi	s10,s7,-2048 # 800 <_tbss_end+0x800>
    40000a8c:	00007717          	auipc	a4,0x7
    40000a90:	24f707a3          	sb	a5,591(a4) # 40007cdb <uip_lladdr+0x3>
    40000a94:	0044c783          	lbu	a5,4(s1)
    40000a98:	01fc1d93          	slli	s11,s8,0x1f
    40000a9c:	00007717          	auipc	a4,0x7
    40000aa0:	24f70023          	sb	a5,576(a4) # 40007cdc <uip_lladdr+0x4>
    40000aa4:	0054c783          	lbu	a5,5(s1)
    40000aa8:	00007717          	auipc	a4,0x7
    40000aac:	22f70aa3          	sb	a5,565(a4) # 40007cdd <uip_lladdr+0x5>
    40000ab0:	77ed                	lui	a5,0xffffb
    40000ab2:	8c07879b          	addiw	a5,a5,-1856
    40000ab6:	00007717          	auipc	a4,0x7
    40000aba:	2af71523          	sh	a5,682(a4) # 40007d60 <uip_hostaddr>
    40000abe:	678d                	lui	a5,0x3
    40000ac0:	3007879b          	addiw	a5,a5,768
    40000ac4:	00007717          	auipc	a4,0x7
    40000ac8:	28f71f23          	sh	a5,670(a4) # 40007d62 <uip_hostaddr+0x2>
    40000acc:	3a7000ef          	jal	ra,40001672 <write_led>
    40000ad0:	8526                	mv	a0,s1
    40000ad2:	425050ef          	jal	ra,400066f6 <dhcp_main>
    40000ad6:	2905                	addiw	s2,s2,1
    40000ad8:	0b491463          	bne	s2,s4,40000b80 <eth_main+0x1fe>
    40000adc:	3a3000ef          	jal	ra,4000167e <get_sw>
    40000ae0:	01a57533          	and	a0,a0,s10
    40000ae4:	2501                	sext.w	a0,a0
    40000ae6:	cd49                	beqz	a0,40000b80 <eth_main+0x1fe>
    40000ae8:	57fd                	li	a5,-1
    40000aea:	dc3e                	sw	a5,56(sp)
    40000aec:	02f11e23          	sh	a5,60(sp)
    40000af0:	00007797          	auipc	a5,0x7
    40000af4:	27078793          	addi	a5,a5,624 # 40007d60 <uip_hostaddr>
    40000af8:	0007d703          	lhu	a4,0(a5)
    40000afc:	0027d783          	lhu	a5,2(a5)
    40000b00:	2985                	addiw	s3,s3,1
    40000b02:	00006597          	auipc	a1,0x6
    40000b06:	3a658593          	addi	a1,a1,934 # 40006ea8 <main+0x32e>
    40000b0a:	864e                	mv	a2,s3
    40000b0c:	00007517          	auipc	a0,0x7
    40000b10:	2bc50513          	addi	a0,a0,700 # 40007dc8 <random_pkt>
    40000b14:	02f11b23          	sh	a5,54(sp)
    40000b18:	02e11a23          	sh	a4,52(sp)
    40000b1c:	344050ef          	jal	ra,40005e60 <sprintf>
    40000b20:	00007517          	auipc	a0,0x7
    40000b24:	2a850513          	addi	a0,a0,680 # 40007dc8 <random_pkt>
    40000b28:	499050ef          	jal	ra,400067c0 <strlen>
    40000b2c:	2505                	addiw	a0,a0,1
    40000b2e:	87aa                	mv	a5,a0
    40000b30:	4681                	li	a3,0
    40000b32:	4ff00593          	li	a1,1279
    40000b36:	00007817          	auipc	a6,0x7
    40000b3a:	29280813          	addi	a6,a6,658 # 40007dc8 <random_pkt>
    40000b3e:	1cf5d063          	ble	a5,a1,40000cfe <eth_main+0x37c>
    40000b42:	57d2                	lw	a5,52(sp)
    40000b44:	6709                	lui	a4,0x2
    40000b46:	2b870713          	addi	a4,a4,696 # 22b8 <_tbss_end+0x22b8>
    40000b4a:	03810893          	addi	a7,sp,56
    40000b4e:	4801                	li	a6,0
    40000b50:	86ba                	mv	a3,a4
    40000b52:	50000613          	li	a2,1280
    40000b56:	00007597          	auipc	a1,0x7
    40000b5a:	27258593          	addi	a1,a1,626 # 40007dc8 <random_pkt>
    40000b5e:	00007517          	auipc	a0,0x7
    40000b62:	18250513          	addi	a0,a0,386 # 40007ce0 <mac_addr>
    40000b66:	2ff050ef          	jal	ra,40006664 <udp_send>
    40000b6a:	00007597          	auipc	a1,0x7
    40000b6e:	25e58593          	addi	a1,a1,606 # 40007dc8 <random_pkt>
    40000b72:	00006517          	auipc	a0,0x6
    40000b76:	34e50513          	addi	a0,a0,846 # 40006ec0 <main+0x346>
    40000b7a:	30a050ef          	jal	ra,40005e84 <printf>
    40000b7e:	4901                	li	s2,0
    40000b80:	83043783          	ld	a5,-2000(s0)
    40000b84:	03379713          	slli	a4,a5,0x33
    40000b88:	18074c63          	bltz	a4,40000d20 <eth_main+0x39e>
    40000b8c:	00007797          	auipc	a5,0x7
    40000b90:	1b878793          	addi	a5,a5,440 # 40007d44 <txhead>
    40000b94:	00007617          	auipc	a2,0x7
    40000b98:	1ac60613          	addi	a2,a2,428 # 40007d40 <txtail>
    40000b9c:	4398                	lw	a4,0(a5)
    40000b9e:	421c                	lw	a5,0(a2)
    40000ba0:	2781                	sext.w	a5,a5
    40000ba2:	06e78263          	beq	a5,a4,40000c06 <eth_main+0x284>
    40000ba6:	81043783          	ld	a5,-2032(s0)
    40000baa:	01b7f7b3          	and	a5,a5,s11
    40000bae:	efa1                	bnez	a5,40000c06 <eth_main+0x284>
    40000bb0:	00007797          	auipc	a5,0x7
    40000bb4:	18078793          	addi	a5,a5,384 # 40007d30 <txbuf>
    40000bb8:	6398                	ld	a4,0(a5)
    40000bba:	00062803          	lw	a6,0(a2)
    40000bbe:	421c                	lw	a5,0(a2)
    40000bc0:	658d                	lui	a1,0x3
    40000bc2:	00858693          	addi	a3,a1,8 # 3008 <_tbss_end+0x3008>
    40000bc6:	02f687b3          	mul	a5,a3,a5
    40000bca:	030686b3          	mul	a3,a3,a6
    40000bce:	97ba                	add	a5,a5,a4
    40000bd0:	97ae                	add	a5,a5,a1
    40000bd2:	4388                	lw	a0,0(a5)
    40000bd4:	45a1                	li	a1,8
    40000bd6:	6805                	lui	a6,0x1
    40000bd8:	fff5079b          	addiw	a5,a0,-1
    40000bdc:	0077e793          	ori	a5,a5,7
    40000be0:	2785                	addiw	a5,a5,1
    40000be2:	02b7c7bb          	divw	a5,a5,a1
    40000be6:	9736                	add	a4,a4,a3
    40000be8:	4581                	li	a1,0
    40000bea:	12f5ce63          	blt	a1,a5,40000d26 <eth_main+0x3a4>
    40000bee:	80a43823          	sd	a0,-2032(s0)
    40000bf2:	421c                	lw	a5,0(a2)
    40000bf4:	40000713          	li	a4,1024
    40000bf8:	2785                	addiw	a5,a5,1
    40000bfa:	02e7e7bb          	remw	a5,a5,a4
    40000bfe:	00007717          	auipc	a4,0x7
    40000c02:	14f72123          	sw	a5,322(a4) # 40007d40 <txtail>
    40000c06:	83043783          	ld	a5,-2000(s0)
    40000c0a:	03379713          	slli	a4,a5,0x33
    40000c0e:	12074963          	bltz	a4,40000d40 <eth_main+0x3be>
    40000c12:	00007797          	auipc	a5,0x7
    40000c16:	13a78793          	addi	a5,a5,314 # 40007d4c <rxhead>
    40000c1a:	00007497          	auipc	s1,0x7
    40000c1e:	12e48493          	addi	s1,s1,302 # 40007d48 <rxtail>
    40000c22:	4398                	lw	a4,0(a5)
    40000c24:	409c                	lw	a5,0(s1)
    40000c26:	2781                	sext.w	a5,a5
    40000c28:	eae787e3          	beq	a5,a4,40000ad6 <eth_main+0x154>
    40000c2c:	00007797          	auipc	a5,0x7
    40000c30:	10c78793          	addi	a5,a5,268 # 40007d38 <rxbuf>
    40000c34:	6398                	ld	a4,0(a5)
    40000c36:	409c                	lw	a5,0(s1)
    40000c38:	408c                	lw	a1,0(s1)
    40000c3a:	660d                	lui	a2,0x3
    40000c3c:	00860693          	addi	a3,a2,8 # 3008 <_tbss_end+0x3008>
    40000c40:	02f687b3          	mul	a5,a3,a5
    40000c44:	02b686b3          	mul	a3,a3,a1
    40000c48:	00f70b33          	add	s6,a4,a5
    40000c4c:	9736                	add	a4,a4,a3
    40000c4e:	9732                	add	a4,a4,a2
    40000c50:	00073c83          	ld	s9,0(a4)
    40000c54:	00cb2703          	lw	a4,12(s6)
    40000c58:	806b8693          	addi	a3,s7,-2042
    40000c5c:	02e10ca3          	sb	a4,57(sp)
    40000c60:	0107171b          	slliw	a4,a4,0x10
    40000c64:	0107571b          	srliw	a4,a4,0x10
    40000c68:	0087571b          	srliw	a4,a4,0x8
    40000c6c:	02e10c23          	sb	a4,56(sp)
    40000c70:	03815703          	lhu	a4,56(sp)
    40000c74:	0007059b          	sext.w	a1,a4
    40000c78:	3cd58463          	beq	a1,a3,40001040 <eth_main+0x6be>
    40000c7c:	66a1                	lui	a3,0x8
    40000c7e:	6dd68693          	addi	a3,a3,1757 # 86dd <_tbss_end+0x86dd>
    40000c82:	10d58763          	beq	a1,a3,40000d90 <eth_main+0x40e>
    40000c86:	8007071b          	addiw	a4,a4,-2048
    40000c8a:	00006517          	auipc	a0,0x6
    40000c8e:	40650513          	addi	a0,a0,1030 # 40007090 <main+0x516>
    40000c92:	e33d                	bnez	a4,40000cf8 <eth_main+0x376>
    40000c94:	4691                	li	a3,4
    40000c96:	4611                	li	a2,4
    40000c98:	01ab0593          	addi	a1,s6,26
    40000c9c:	1828                	addi	a0,sp,56
    40000c9e:	e436                	sd	a3,8(sp)
    40000ca0:	006b0a93          	addi	s5,s6,6
    40000ca4:	2c7050ef          	jal	ra,4000676a <memcpy>
    40000ca8:	85d6                	mv	a1,s5
    40000caa:	4619                	li	a2,6
    40000cac:	00007517          	auipc	a0,0x7
    40000cb0:	00c50513          	addi	a0,a0,12 # 40007cb8 <peer_addr.3922>
    40000cb4:	2b7050ef          	jal	ra,4000676a <memcpy>
    40000cb8:	017b4583          	lbu	a1,23(s6)
    40000cbc:	02e00713          	li	a4,46
    40000cc0:	32e58363          	beq	a1,a4,40000fe6 <eth_main+0x664>
    40000cc4:	0cb76b63          	bltu	a4,a1,40000d9a <eth_main+0x418>
    40000cc8:	4731                	li	a4,12
    40000cca:	26e58063          	beq	a1,a4,40000f2a <eth_main+0x5a8>
    40000cce:	08b76963          	bltu	a4,a1,40000d60 <eth_main+0x3de>
    40000cd2:	66a2                	ld	a3,8(sp)
    40000cd4:	24d58163          	beq	a1,a3,40000f16 <eth_main+0x594>
    40000cd8:	4711                	li	a4,4
    40000cda:	06b76663          	bltu	a4,a1,40000d46 <eth_main+0x3c4>
    40000cde:	15858863          	beq	a1,s8,40000e2e <eth_main+0x4ac>
    40000ce2:	4789                	li	a5,2
    40000ce4:	00006517          	auipc	a0,0x6
    40000ce8:	1e450513          	addi	a0,a0,484 # 40006ec8 <main+0x34e>
    40000cec:	06f58763          	beq	a1,a5,40000d5a <eth_main+0x3d8>
    40000cf0:	00006517          	auipc	a0,0x6
    40000cf4:	38050513          	addi	a0,a0,896 # 40007070 <main+0x4f6>
    40000cf8:	18c050ef          	jal	ra,40005e84 <printf>
    40000cfc:	ac69                	j	40000f96 <eth_main+0x614>
    40000cfe:	0017f613          	andi	a2,a5,1
    40000d02:	0ff7f713          	andi	a4,a5,255
    40000d06:	c609                	beqz	a2,40000d10 <eth_main+0x38e>
    40000d08:	4087d71b          	sraiw	a4,a5,0x8
    40000d0c:	0ff77713          	andi	a4,a4,255
    40000d10:	00d50633          	add	a2,a0,a3
    40000d14:	9642                	add	a2,a2,a6
    40000d16:	00e60023          	sb	a4,0(a2)
    40000d1a:	2785                	addiw	a5,a5,1
    40000d1c:	0685                	addi	a3,a3,1
    40000d1e:	b505                	j	40000b3e <eth_main+0x1bc>
    40000d20:	c2aff0ef          	jal	ra,4000014a <copyin_pkt>
    40000d24:	bdb1                	j	40000b80 <eth_main+0x1fe>
    40000d26:	6482                	ld	s1,0(sp)
    40000d28:	00073883          	ld	a7,0(a4)
    40000d2c:	0035969b          	slliw	a3,a1,0x3
    40000d30:	010686bb          	addw	a3,a3,a6
    40000d34:	96a6                	add	a3,a3,s1
    40000d36:	0116b023          	sd	a7,0(a3)
    40000d3a:	2585                	addiw	a1,a1,1
    40000d3c:	0721                	addi	a4,a4,8
    40000d3e:	b575                	j	40000bea <eth_main+0x268>
    40000d40:	c0aff0ef          	jal	ra,4000014a <copyin_pkt>
    40000d44:	b5c9                	j	40000c06 <eth_main+0x284>
    40000d46:	4799                	li	a5,6
    40000d48:	1cf58c63          	beq	a1,a5,40000f20 <eth_main+0x59e>
    40000d4c:	47a1                	li	a5,8
    40000d4e:	00006517          	auipc	a0,0x6
    40000d52:	1ba50513          	addi	a0,a0,442 # 40006f08 <main+0x38e>
    40000d56:	f8f59de3          	bne	a1,a5,40000cf0 <eth_main+0x36e>
    40000d5a:	12a050ef          	jal	ra,40005e84 <printf>
    40000d5e:	ac25                	j	40000f96 <eth_main+0x614>
    40000d60:	4775                	li	a4,29
    40000d62:	26e58863          	beq	a1,a4,40000fd2 <eth_main+0x650>
    40000d66:	00b76d63          	bltu	a4,a1,40000d80 <eth_main+0x3fe>
    40000d6a:	4745                	li	a4,17
    40000d6c:	1ce58463          	beq	a1,a4,40000f34 <eth_main+0x5b2>
    40000d70:	47d9                	li	a5,22
    40000d72:	00006517          	auipc	a0,0x6
    40000d76:	1b650513          	addi	a0,a0,438 # 40006f28 <main+0x3ae>
    40000d7a:	fef580e3          	beq	a1,a5,40000d5a <eth_main+0x3d8>
    40000d7e:	bf8d                	j	40000cf0 <eth_main+0x36e>
    40000d80:	02100793          	li	a5,33
    40000d84:	24f58c63          	beq	a1,a5,40000fdc <eth_main+0x65a>
    40000d88:	02900793          	li	a5,41
    40000d8c:	f6f592e3          	bne	a1,a5,40000cf0 <eth_main+0x36e>
    40000d90:	00006517          	auipc	a0,0x6
    40000d94:	1d050513          	addi	a0,a0,464 # 40006f60 <main+0x3e6>
    40000d98:	b7c9                	j	40000d5a <eth_main+0x3d8>
    40000d9a:	06200793          	li	a5,98
    40000d9e:	26f58863          	beq	a1,a5,4000100e <eth_main+0x68c>
    40000da2:	04b7e263          	bltu	a5,a1,40000de6 <eth_main+0x464>
    40000da6:	03300793          	li	a5,51
    40000daa:	24f58863          	beq	a1,a5,40000ffa <eth_main+0x678>
    40000dae:	00b7ef63          	bltu	a5,a1,40000dcc <eth_main+0x44a>
    40000db2:	02f00793          	li	a5,47
    40000db6:	22f58d63          	beq	a1,a5,40000ff0 <eth_main+0x66e>
    40000dba:	03200793          	li	a5,50
    40000dbe:	00006517          	auipc	a0,0x6
    40000dc2:	1d250513          	addi	a0,a0,466 # 40006f90 <main+0x416>
    40000dc6:	f8f58ae3          	beq	a1,a5,40000d5a <eth_main+0x3d8>
    40000dca:	b71d                	j	40000cf0 <eth_main+0x36e>
    40000dcc:	05c00793          	li	a5,92
    40000dd0:	22f58a63          	beq	a1,a5,40001004 <eth_main+0x682>
    40000dd4:	05e00793          	li	a5,94
    40000dd8:	00006517          	auipc	a0,0x6
    40000ddc:	1e850513          	addi	a0,a0,488 # 40006fc0 <main+0x446>
    40000de0:	f6f58de3          	beq	a1,a5,40000d5a <eth_main+0x3d8>
    40000de4:	b731                	j	40000cf0 <eth_main+0x36e>
    40000de6:	08400793          	li	a5,132
    40000dea:	22f58c63          	beq	a1,a5,40001022 <eth_main+0x6a0>
    40000dee:	00b7ef63          	bltu	a5,a1,40000e0c <eth_main+0x48a>
    40000df2:	06700793          	li	a5,103
    40000df6:	22f58163          	beq	a1,a5,40001018 <eth_main+0x696>
    40000dfa:	06c00793          	li	a5,108
    40000dfe:	00006517          	auipc	a0,0x6
    40000e02:	20250513          	addi	a0,a0,514 # 40007000 <main+0x486>
    40000e06:	f4f58ae3          	beq	a1,a5,40000d5a <eth_main+0x3d8>
    40000e0a:	b5dd                	j	40000cf0 <eth_main+0x36e>
    40000e0c:	08900793          	li	a5,137
    40000e10:	20f58e63          	beq	a1,a5,4000102c <eth_main+0x6aa>
    40000e14:	0ff00793          	li	a5,255
    40000e18:	20f58f63          	beq	a1,a5,40001036 <eth_main+0x6b4>
    40000e1c:	08800793          	li	a5,136
    40000e20:	ecf598e3          	bne	a1,a5,40000cf0 <eth_main+0x36e>
    40000e24:	00006517          	auipc	a0,0x6
    40000e28:	20c50513          	addi	a0,a0,524 # 40007030 <main+0x4b6>
    40000e2c:	b73d                	j	40000d5a <eth_main+0x3d8>
    40000e2e:	4505                	li	a0,1
    40000e30:	043000ef          	jal	ra,40001672 <write_led>
    40000e34:	01eb5603          	lhu	a2,30(s6)
    40000e38:	00007717          	auipc	a4,0x7
    40000e3c:	f2875703          	lhu	a4,-216(a4) # 40007d60 <uip_hostaddr>
    40000e40:	00007697          	auipc	a3,0x7
    40000e44:	f2068693          	addi	a3,a3,-224 # 40007d60 <uip_hostaddr>
    40000e48:	14e61763          	bne	a2,a4,40000f96 <eth_main+0x614>
    40000e4c:	020b5603          	lhu	a2,32(s6)
    40000e50:	00007717          	auipc	a4,0x7
    40000e54:	f1275703          	lhu	a4,-238(a4) # 40007d62 <uip_hostaddr+0x2>
    40000e58:	12e61f63          	bne	a2,a4,40000f96 <eth_main+0x614>
    40000e5c:	022b0713          	addi	a4,s6,34
    40000e60:	fdec881b          	addiw	a6,s9,-34
    40000e64:	4619                	li	a2,6
    40000e66:	85d6                	mv	a1,s5
    40000e68:	855a                	mv	a0,s6
    40000e6a:	ec36                	sd	a3,24(sp)
    40000e6c:	e83a                	sd	a4,16(sp)
    40000e6e:	e442                	sd	a6,8(sp)
    40000e70:	0fb050ef          	jal	ra,4000676a <memcpy>
    40000e74:	4619                	li	a2,6
    40000e76:	00007597          	auipc	a1,0x7
    40000e7a:	e6258593          	addi	a1,a1,-414 # 40007cd8 <uip_lladdr>
    40000e7e:	8556                	mv	a0,s5
    40000e80:	0eb050ef          	jal	ra,4000676a <memcpy>
    40000e84:	01ab5603          	lhu	a2,26(s6)
    40000e88:	66e2                	ld	a3,24(sp)
    40000e8a:	6822                	ld	a6,8(sp)
    40000e8c:	00cb1f23          	sh	a2,30(s6)
    40000e90:	01cb5603          	lhu	a2,28(s6)
    40000e94:	6742                	ld	a4,16(sp)
    40000e96:	020b0123          	sb	zero,34(s6)
    40000e9a:	02cb1023          	sh	a2,32(s6)
    40000e9e:	0006d603          	lhu	a2,0(a3)
    40000ea2:	0026d683          	lhu	a3,2(a3)
    40000ea6:	020b1223          	sh	zero,36(s6)
    40000eaa:	00cb1d23          	sh	a2,26(s6)
    40000eae:	00db1e23          	sh	a3,28(s6)
    40000eb2:	4681                	li	a3,0
    40000eb4:	03004d63          	bgtz	a6,40000eee <eth_main+0x56c>
    40000eb8:	0106d713          	srli	a4,a3,0x10
    40000ebc:	16c2                	slli	a3,a3,0x30
    40000ebe:	92c1                	srli	a3,a3,0x30
    40000ec0:	9736                	add	a4,a4,a3
    40000ec2:	01075693          	srli	a3,a4,0x10
    40000ec6:	9736                	add	a4,a4,a3
    40000ec8:	fff74713          	not	a4,a4
    40000ecc:	1742                	slli	a4,a4,0x30
    40000ece:	9341                	srli	a4,a4,0x30
    40000ed0:	02e10aa3          	sb	a4,53(sp)
    40000ed4:	8321                	srli	a4,a4,0x8
    40000ed6:	02e10a23          	sb	a4,52(sp)
    40000eda:	03415703          	lhu	a4,52(sp)
    40000ede:	004c859b          	addiw	a1,s9,4
    40000ee2:	02eb1223          	sh	a4,36(s6)
    40000ee6:	855a                	mv	a0,s6
    40000ee8:	0da050ef          	jal	ra,40005fc2 <lite_queue>
    40000eec:	a06d                	j	40000f96 <eth_main+0x614>
    40000eee:	00074603          	lbu	a2,0(a4)
    40000ef2:	3879                	addiw	a6,a6,-2
    40000ef4:	0709                	addi	a4,a4,2
    40000ef6:	02c10523          	sb	a2,42(sp)
    40000efa:	fff74603          	lbu	a2,-1(a4)
    40000efe:	02a14583          	lbu	a1,42(sp)
    40000f02:	02c10a23          	sb	a2,52(sp)
    40000f06:	02b10aa3          	sb	a1,53(sp)
    40000f0a:	02c105a3          	sb	a2,43(sp)
    40000f0e:	03415603          	lhu	a2,52(sp)
    40000f12:	96b2                	add	a3,a3,a2
    40000f14:	b745                	j	40000eb4 <eth_main+0x532>
    40000f16:	00006517          	auipc	a0,0x6
    40000f1a:	fca50513          	addi	a0,a0,-54 # 40006ee0 <main+0x366>
    40000f1e:	bd35                	j	40000d5a <eth_main+0x3d8>
    40000f20:	00006517          	auipc	a0,0x6
    40000f24:	fd850513          	addi	a0,a0,-40 # 40006ef8 <main+0x37e>
    40000f28:	bd0d                	j	40000d5a <eth_main+0x3d8>
    40000f2a:	00006517          	auipc	a0,0x6
    40000f2e:	fee50513          	addi	a0,a0,-18 # 40006f18 <main+0x39e>
    40000f32:	b525                	j	40000d5a <eth_main+0x3d8>
    40000f34:	024b4703          	lbu	a4,36(s6)
    40000f38:	02e10aa3          	sb	a4,53(sp)
    40000f3c:	025b4703          	lbu	a4,37(s6)
    40000f40:	02e10a23          	sb	a4,52(sp)
    40000f44:	026b4703          	lbu	a4,38(s6)
    40000f48:	03415683          	lhu	a3,52(sp)
    40000f4c:	02e10aa3          	sb	a4,53(sp)
    40000f50:	027b4703          	lbu	a4,39(s6)
    40000f54:	02e10a23          	sb	a4,52(sp)
    40000f58:	022b4703          	lbu	a4,34(s6)
    40000f5c:	03415583          	lhu	a1,52(sp)
    40000f60:	02e10aa3          	sb	a4,53(sp)
    40000f64:	023b4703          	lbu	a4,35(s6)
    40000f68:	02e10a23          	sb	a4,52(sp)
    40000f6c:	6709                	lui	a4,0x2
    40000f6e:	2b870713          	addi	a4,a4,696 # 22b8 <_tbss_end+0x22b8>
    40000f72:	03415603          	lhu	a2,52(sp)
    40000f76:	02e69b63          	bne	a3,a4,40000fac <eth_main+0x62a>
    40000f7a:	0105959b          	slliw	a1,a1,0x10
    40000f7e:	56e2                	lw	a3,56(sp)
    40000f80:	4105d59b          	sraiw	a1,a1,0x10
    40000f84:	00007717          	auipc	a4,0x7
    40000f88:	d3470713          	addi	a4,a4,-716 # 40007cb8 <peer_addr.3922>
    40000f8c:	35e1                	addiw	a1,a1,-8
    40000f8e:	02ab0513          	addi	a0,s6,42
    40000f92:	f92ff0ef          	jal	ra,40000724 <process_udp_packet>
    40000f96:	409c                	lw	a5,0(s1)
    40000f98:	40000713          	li	a4,1024
    40000f9c:	2785                	addiw	a5,a5,1
    40000f9e:	02e7e7bb          	remw	a5,a5,a4
    40000fa2:	00007717          	auipc	a4,0x7
    40000fa6:	daf72323          	sw	a5,-602(a4) # 40007d48 <rxtail>
    40000faa:	b635                	j	40000ad6 <eth_main+0x154>
    40000fac:	04300713          	li	a4,67
    40000fb0:	fee613e3          	bne	a2,a4,40000f96 <eth_main+0x614>
    40000fb4:	5732                	lw	a4,44(sp)
    40000fb6:	c319                	beqz	a4,40000fbc <eth_main+0x63a>
    40000fb8:	5742                	lw	a4,48(sp)
    40000fba:	ff71                	bnez	a4,40000f96 <eth_main+0x614>
    40000fbc:	1814                	addi	a3,sp,48
    40000fbe:	1070                	addi	a2,sp,44
    40000fc0:	00007597          	auipc	a1,0x7
    40000fc4:	d2058593          	addi	a1,a1,-736 # 40007ce0 <mac_addr>
    40000fc8:	02ab0513          	addi	a0,s6,42
    40000fcc:	18e050ef          	jal	ra,4000615a <dhcp_input>
    40000fd0:	b7d9                	j	40000f96 <eth_main+0x614>
    40000fd2:	00006517          	auipc	a0,0x6
    40000fd6:	f6650513          	addi	a0,a0,-154 # 40006f38 <main+0x3be>
    40000fda:	b341                	j	40000d5a <eth_main+0x3d8>
    40000fdc:	00006517          	auipc	a0,0x6
    40000fe0:	f6c50513          	addi	a0,a0,-148 # 40006f48 <main+0x3ce>
    40000fe4:	bb9d                	j	40000d5a <eth_main+0x3d8>
    40000fe6:	00006517          	auipc	a0,0x6
    40000fea:	f8250513          	addi	a0,a0,-126 # 40006f68 <main+0x3ee>
    40000fee:	b3b5                	j	40000d5a <eth_main+0x3d8>
    40000ff0:	00006517          	auipc	a0,0x6
    40000ff4:	f9050513          	addi	a0,a0,-112 # 40006f80 <main+0x406>
    40000ff8:	b38d                	j	40000d5a <eth_main+0x3d8>
    40000ffa:	00006517          	auipc	a0,0x6
    40000ffe:	fa650513          	addi	a0,a0,-90 # 40006fa0 <main+0x426>
    40001002:	bba1                	j	40000d5a <eth_main+0x3d8>
    40001004:	00006517          	auipc	a0,0x6
    40001008:	fac50513          	addi	a0,a0,-84 # 40006fb0 <main+0x436>
    4000100c:	b3b9                	j	40000d5a <eth_main+0x3d8>
    4000100e:	00006517          	auipc	a0,0x6
    40001012:	fca50513          	addi	a0,a0,-54 # 40006fd8 <main+0x45e>
    40001016:	b391                	j	40000d5a <eth_main+0x3d8>
    40001018:	00006517          	auipc	a0,0x6
    4000101c:	fd850513          	addi	a0,a0,-40 # 40006ff0 <main+0x476>
    40001020:	bb2d                	j	40000d5a <eth_main+0x3d8>
    40001022:	00006517          	auipc	a0,0x6
    40001026:	ff650513          	addi	a0,a0,-10 # 40007018 <main+0x49e>
    4000102a:	bb05                	j	40000d5a <eth_main+0x3d8>
    4000102c:	00006517          	auipc	a0,0x6
    40001030:	01c50513          	addi	a0,a0,28 # 40007048 <main+0x4ce>
    40001034:	b31d                	j	40000d5a <eth_main+0x3d8>
    40001036:	00006517          	auipc	a0,0x6
    4000103a:	02a50513          	addi	a0,a0,42 # 40007060 <main+0x4e6>
    4000103e:	bb31                	j	40000d5a <eth_main+0x3d8>
    40001040:	026b5683          	lhu	a3,38(s6)
    40001044:	00007717          	auipc	a4,0x7
    40001048:	d1c75703          	lhu	a4,-740(a4) # 40007d60 <uip_hostaddr>
    4000104c:	00007a97          	auipc	s5,0x7
    40001050:	d14a8a93          	addi	s5,s5,-748 # 40007d60 <uip_hostaddr>
    40001054:	f4e691e3          	bne	a3,a4,40000f96 <eth_main+0x614>
    40001058:	028b5683          	lhu	a3,40(s6)
    4000105c:	00007717          	auipc	a4,0x7
    40001060:	d0675703          	lhu	a4,-762(a4) # 40007d62 <uip_hostaddr+0x2>
    40001064:	f2e699e3          	bne	a3,a4,40000f96 <eth_main+0x614>
    40001068:	20000713          	li	a4,512
    4000106c:	00eb1a23          	sh	a4,20(s6)
    40001070:	020b0c93          	addi	s9,s6,32
    40001074:	016b0713          	addi	a4,s6,22
    40001078:	85ba                	mv	a1,a4
    4000107a:	4619                	li	a2,6
    4000107c:	8566                	mv	a0,s9
    4000107e:	e43a                	sd	a4,8(sp)
    40001080:	6ea050ef          	jal	ra,4000676a <memcpy>
    40001084:	6722                	ld	a4,8(sp)
    40001086:	4619                	li	a2,6
    40001088:	00007597          	auipc	a1,0x7
    4000108c:	c5058593          	addi	a1,a1,-944 # 40007cd8 <uip_lladdr>
    40001090:	853a                	mv	a0,a4
    40001092:	6d8050ef          	jal	ra,4000676a <memcpy>
    40001096:	4619                	li	a2,6
    40001098:	00007597          	auipc	a1,0x7
    4000109c:	c4058593          	addi	a1,a1,-960 # 40007cd8 <uip_lladdr>
    400010a0:	006b0513          	addi	a0,s6,6
    400010a4:	6c6050ef          	jal	ra,4000676a <memcpy>
    400010a8:	85e6                	mv	a1,s9
    400010aa:	4619                	li	a2,6
    400010ac:	855a                	mv	a0,s6
    400010ae:	6bc050ef          	jal	ra,4000676a <memcpy>
    400010b2:	01cb5703          	lhu	a4,28(s6)
    400010b6:	02a00593          	li	a1,42
    400010ba:	02eb1323          	sh	a4,38(s6)
    400010be:	01eb5703          	lhu	a4,30(s6)
    400010c2:	02eb1423          	sh	a4,40(s6)
    400010c6:	000ad703          	lhu	a4,0(s5)
    400010ca:	00eb1e23          	sh	a4,28(s6)
    400010ce:	002ad703          	lhu	a4,2(s5)
    400010d2:	00eb1f23          	sh	a4,30(s6)
    400010d6:	60800713          	li	a4,1544
    400010da:	00eb1623          	sh	a4,12(s6)
    400010de:	b521                	j	40000ee6 <eth_main+0x564>

00000000400010e0 <tohost_exit>:
    400010e0:	7139                	addi	sp,sp,-64
    400010e2:	fc06                	sd	ra,56(sp)
    400010e4:	f822                	sd	s0,48(sp)
    400010e6:	c521                	beqz	a0,4000112e <tohost_exit+0x4e>
    400010e8:	00006597          	auipc	a1,0x6
    400010ec:	06058593          	addi	a1,a1,96 # 40007148 <main+0x5ce>
    400010f0:	842a                	mv	s0,a0
    400010f2:	02100613          	li	a2,33
    400010f6:	0028                	addi	a0,sp,8
    400010f8:	672050ef          	jal	ra,4000676a <memcpy>
    400010fc:	4781                	li	a5,0
    400010fe:	4525                	li	a0,9
    40001100:	55c1                	li	a1,-16
    40001102:	00f47613          	andi	a2,s0,15
    40001106:	0ff67713          	andi	a4,a2,255
    4000110a:	03000693          	li	a3,48
    4000110e:	00c55463          	ble	a2,a0,40001116 <tohost_exit+0x36>
    40001112:	05700693          	li	a3,87
    40001116:	0030                	addi	a2,sp,8
    40001118:	963e                	add	a2,a2,a5
    4000111a:	9f35                	addw	a4,a4,a3
    4000111c:	00e60ea3          	sb	a4,29(a2)
    40001120:	17fd                	addi	a5,a5,-1
    40001122:	8411                	srai	s0,s0,0x4
    40001124:	fcb79fe3          	bne	a5,a1,40001102 <tohost_exit+0x22>
    40001128:	0028                	addi	a0,sp,8
    4000112a:	45a000ef          	jal	ra,40001584 <hid_send_string>
    4000112e:	00006517          	auipc	a0,0x6
    40001132:	fda50513          	addi	a0,a0,-38 # 40007108 <main+0x58e>
    40001136:	44e000ef          	jal	ra,40001584 <hid_send_string>
    4000113a:	a001                	j	4000113a <tohost_exit+0x5a>

000000004000113c <handle_interrupt>:
    4000113c:	800007b7          	lui	a5,0x80000
    40001140:	fff7c793          	not	a5,a5
    40001144:	8d7d                	and	a0,a0,a5
    40001146:	47ad                	li	a5,11
    40001148:	00f51463          	bne	a0,a5,40001150 <handle_interrupt+0x14>
    4000114c:	942ff06f          	j	4000028e <external_interrupt>
    40001150:	8082                	ret

0000000040001152 <handle_trap>:
    40001152:	711d                	addi	sp,sp,-96
    40001154:	e8a2                	sd	s0,80(sp)
    40001156:	842a                	mv	s0,a0
    40001158:	00006517          	auipc	a0,0x6
    4000115c:	01850513          	addi	a0,a0,24 # 40007170 <main+0x5f6>
    40001160:	e4a6                	sd	s1,72(sp)
    40001162:	ec86                	sd	ra,88(sp)
    40001164:	e0ca                	sd	s2,64(sp)
    40001166:	fc4e                	sd	s3,56(sp)
    40001168:	f852                	sd	s4,48(sp)
    4000116a:	f456                	sd	s5,40(sp)
    4000116c:	f05a                	sd	s6,32(sp)
    4000116e:	ec5e                	sd	s7,24(sp)
    40001170:	e862                	sd	s8,16(sp)
    40001172:	e466                	sd	s9,8(sp)
    40001174:	e06a                	sd	s10,0(sp)
    40001176:	84b2                	mv	s1,a2
    40001178:	50d040ef          	jal	ra,40005e84 <printf>
    4000117c:	47ad                	li	a5,11
    4000117e:	1087e163          	bltu	a5,s0,40001280 <handle_trap+0x12e>
    40001182:	00007717          	auipc	a4,0x7
    40001186:	8ae70713          	addi	a4,a4,-1874 # 40007a30 <main+0xeb6>
    4000118a:	040a                	slli	s0,s0,0x2
    4000118c:	943a                	add	s0,s0,a4
    4000118e:	401c                	lw	a5,0(s0)
    40001190:	97ba                	add	a5,a5,a4
    40001192:	8782                	jr	a5
    40001194:	00006517          	auipc	a0,0x6
    40001198:	fec50513          	addi	a0,a0,-20 # 40007180 <main+0x606>
    4000119c:	4e9040ef          	jal	ra,40005e84 <printf>
    400011a0:	34302573          	csrr	a0,mbadaddr
    400011a4:	85aa                	mv	a1,a0
    400011a6:	00006517          	auipc	a0,0x6
    400011aa:	18250513          	addi	a0,a0,386 # 40007328 <main+0x7ae>
    400011ae:	4d7040ef          	jal	ra,40005e84 <printf>
    400011b2:	8926                	mv	s2,s1
    400011b4:	4401                	li	s0,0
    400011b6:	4a09                	li	s4,2
    400011b8:	4a85                	li	s5,1
    400011ba:	498d                	li	s3,3
    400011bc:	4b1d                	li	s6,7
    400011be:	4ba5                	li	s7,9
    400011c0:	00006c17          	auipc	s8,0x6
    400011c4:	1a0c0c13          	addi	s8,s8,416 # 40007360 <main+0x7e6>
    400011c8:	00006c97          	auipc	s9,0x6
    400011cc:	190c8c93          	addi	s9,s9,400 # 40007358 <main+0x7de>
    400011d0:	00006d17          	auipc	s10,0x6
    400011d4:	180d0d13          	addi	s10,s10,384 # 40007350 <main+0x7d6>
    400011d8:	0b441d63          	bne	s0,s4,40001292 <handle_trap+0x140>
    400011dc:	688c                	ld	a1,16(s1)
    400011de:	00006517          	auipc	a0,0x6
    400011e2:	15a50513          	addi	a0,a0,346 # 40007338 <main+0x7be>
    400011e6:	49f040ef          	jal	ra,40005e84 <printf>
    400011ea:	00347793          	andi	a5,s0,3
    400011ee:	01379863          	bne	a5,s3,400011fe <handle_trap+0xac>
    400011f2:	00006517          	auipc	a0,0x6
    400011f6:	ec650513          	addi	a0,a0,-314 # 400070b8 <main+0x53e>
    400011fa:	48b040ef          	jal	ra,40005e84 <printf>
    400011fe:	2405                	addiw	s0,s0,1
    40001200:	02000793          	li	a5,32
    40001204:	0921                	addi	s2,s2,8
    40001206:	fcf419e3          	bne	s0,a5,400011d8 <handle_trap+0x86>
    4000120a:	53900513          	li	a0,1337
    4000120e:	ed3ff0ef          	jal	ra,400010e0 <tohost_exit>
    40001212:	00006517          	auipc	a0,0x6
    40001216:	f8650513          	addi	a0,a0,-122 # 40007198 <main+0x61e>
    4000121a:	b749                	j	4000119c <handle_trap+0x4a>
    4000121c:	00006517          	auipc	a0,0x6
    40001220:	f9c50513          	addi	a0,a0,-100 # 400071b8 <main+0x63e>
    40001224:	bfa5                	j	4000119c <handle_trap+0x4a>
    40001226:	00006517          	auipc	a0,0x6
    4000122a:	faa50513          	addi	a0,a0,-86 # 400071d0 <main+0x656>
    4000122e:	b7bd                	j	4000119c <handle_trap+0x4a>
    40001230:	00006517          	auipc	a0,0x6
    40001234:	fb850513          	addi	a0,a0,-72 # 400071e8 <main+0x66e>
    40001238:	b795                	j	4000119c <handle_trap+0x4a>
    4000123a:	00006517          	auipc	a0,0x6
    4000123e:	fce50513          	addi	a0,a0,-50 # 40007208 <main+0x68e>
    40001242:	bfa9                	j	4000119c <handle_trap+0x4a>
    40001244:	00006517          	auipc	a0,0x6
    40001248:	fe450513          	addi	a0,a0,-28 # 40007228 <main+0x6ae>
    4000124c:	bf81                	j	4000119c <handle_trap+0x4a>
    4000124e:	00006517          	auipc	a0,0x6
    40001252:	00250513          	addi	a0,a0,2 # 40007250 <main+0x6d6>
    40001256:	b799                	j	4000119c <handle_trap+0x4a>
    40001258:	00006517          	auipc	a0,0x6
    4000125c:	01850513          	addi	a0,a0,24 # 40007270 <main+0x6f6>
    40001260:	bf35                	j	4000119c <handle_trap+0x4a>
    40001262:	00006517          	auipc	a0,0x6
    40001266:	03650513          	addi	a0,a0,54 # 40007298 <main+0x71e>
    4000126a:	bf0d                	j	4000119c <handle_trap+0x4a>
    4000126c:	00006517          	auipc	a0,0x6
    40001270:	05450513          	addi	a0,a0,84 # 400072c0 <main+0x746>
    40001274:	b725                	j	4000119c <handle_trap+0x4a>
    40001276:	00006517          	auipc	a0,0x6
    4000127a:	07250513          	addi	a0,a0,114 # 400072e8 <main+0x76e>
    4000127e:	bf39                	j	4000119c <handle_trap+0x4a>
    40001280:	8622                	mv	a2,s0
    40001282:	85a2                	mv	a1,s0
    40001284:	00006517          	auipc	a0,0x6
    40001288:	08c50513          	addi	a0,a0,140 # 40007310 <main+0x796>
    4000128c:	3f9040ef          	jal	ra,40005e84 <printf>
    40001290:	bf01                	j	400011a0 <handle_trap+0x4e>
    40001292:	01541863          	bne	s0,s5,400012a2 <handle_trap+0x150>
    40001296:	648c                	ld	a1,8(s1)
    40001298:	00006517          	auipc	a0,0x6
    4000129c:	0a850513          	addi	a0,a0,168 # 40007340 <main+0x7c6>
    400012a0:	b799                	j	400011e6 <handle_trap+0x94>
    400012a2:	01341863          	bne	s0,s3,400012b2 <handle_trap+0x160>
    400012a6:	6c8c                	ld	a1,24(s1)
    400012a8:	00006517          	auipc	a0,0x6
    400012ac:	0a050513          	addi	a0,a0,160 # 40007348 <main+0x7ce>
    400012b0:	bf1d                	j	400011e6 <handle_trap+0x94>
    400012b2:	0004079b          	sext.w	a5,s0
    400012b6:	ff67859b          	addiw	a1,a5,-10
    400012ba:	00093603          	ld	a2,0(s2) # 4000 <_tbss_end+0x4000>
    400012be:	856a                	mv	a0,s10
    400012c0:	00bb7963          	bleu	a1,s6,400012d2 <handle_trap+0x180>
    400012c4:	fee7871b          	addiw	a4,a5,-18
    400012c8:	00ebe863          	bltu	s7,a4,400012d8 <handle_trap+0x186>
    400012cc:	ff07859b          	addiw	a1,a5,-16
    400012d0:	8566                	mv	a0,s9
    400012d2:	3b3040ef          	jal	ra,40005e84 <printf>
    400012d6:	bf11                	j	400011ea <handle_trap+0x98>
    400012d8:	85a2                	mv	a1,s0
    400012da:	8562                	mv	a0,s8
    400012dc:	bfdd                	j	400012d2 <handle_trap+0x180>

00000000400012de <thread_entry>:
    400012de:	e101                	bnez	a0,400012de <thread_entry>
    400012e0:	8082                	ret

00000000400012e2 <__bswap_16>:
    400012e2:	0085579b          	srliw	a5,a0,0x8
    400012e6:	0522                	slli	a0,a0,0x8
    400012e8:	8d5d                	or	a0,a0,a5
    400012ea:	1542                	slli	a0,a0,0x30
    400012ec:	9141                	srli	a0,a0,0x30
    400012ee:	8082                	ret

00000000400012f0 <__bswap_32>:
    400012f0:	0185171b          	slliw	a4,a0,0x18
    400012f4:	0185579b          	srliw	a5,a0,0x18
    400012f8:	66c1                	lui	a3,0x10
    400012fa:	8fd9                	or	a5,a5,a4
    400012fc:	f0068693          	addi	a3,a3,-256 # ff00 <_tbss_end+0xff00>
    40001300:	0085571b          	srliw	a4,a0,0x8
    40001304:	8f75                	and	a4,a4,a3
    40001306:	8fd9                	or	a5,a5,a4
    40001308:	0085151b          	slliw	a0,a0,0x8
    4000130c:	00ff0737          	lui	a4,0xff0
    40001310:	8d79                	and	a0,a0,a4
    40001312:	8d5d                	or	a0,a0,a5
    40001314:	2501                	sext.w	a0,a0
    40001316:	8082                	ret

0000000040001318 <_init>:
    40001318:	00007517          	auipc	a0,0x7
    4000131c:	99150513          	addi	a0,a0,-1647 # 40007ca9 <_bss>
    40001320:	00008617          	auipc	a2,0x8
    40001324:	87060613          	addi	a2,a2,-1936 # 40008b90 <_end>
    40001328:	7179                	addi	sp,sp,-48
    4000132a:	8e09                	sub	a2,a2,a0
    4000132c:	4581                	li	a1,0
    4000132e:	f406                	sd	ra,40(sp)
    40001330:	f022                	sd	s0,32(sp)
    40001332:	ec26                	sd	s1,24(sp)
    40001334:	e84a                	sd	s2,16(sp)
    40001336:	374000ef          	jal	ra,400016aa <memset>
    4000133a:	344000ef          	jal	ra,4000167e <get_sw>
    4000133e:	033517b7          	lui	a5,0x3351
    40001342:	a007879b          	addiw	a5,a5,-1536
    40001346:	00007717          	auipc	a4,0x7
    4000134a:	98f72d23          	sw	a5,-1638(a4) # 40007ce0 <mac_addr>
    4000134e:	f5600713          	li	a4,-170
    40001352:	00007697          	auipc	a3,0x7
    40001356:	98e69923          	sh	a4,-1646(a3) # 40007ce4 <mac_addr+0x4>
    4000135a:	33500693          	li	a3,821
    4000135e:	00d11423          	sh	a3,8(sp)
    40001362:	00e11523          	sh	a4,10(sp)
    40001366:	00f57493          	andi	s1,a0,15
    4000136a:	4522                	lw	a0,8(sp)
    4000136c:	00f11623          	sh	a5,12(sp)
    40001370:	ff248413          	addi	s0,s1,-14
    40001374:	f7dff0ef          	jal	ra,400012f0 <__bswap_32>
    40001378:	00007797          	auipc	a5,0x7
    4000137c:	91078793          	addi	a5,a5,-1776 # 40007c88 <eth_base>
    40001380:	46b2                	lw	a3,12(sp)
    40001382:	6398                	ld	a4,0(a5)
    40001384:	01000637          	lui	a2,0x1000
    40001388:	6785                	lui	a5,0x1
    4000138a:	973e                	add	a4,a4,a5
    4000138c:	f0060613          	addi	a2,a2,-256 # ffff00 <_tbss_end+0xffff00>
    40001390:	0086979b          	slliw	a5,a3,0x8
    40001394:	82a1                	srli	a3,a3,0x8
    40001396:	8ff1                	and	a5,a5,a2
    40001398:	0ff6f693          	andi	a3,a3,255
    4000139c:	1502                	slli	a0,a0,0x20
    4000139e:	8fd5                	or	a5,a5,a3
    400013a0:	9101                	srli	a0,a0,0x20
    400013a2:	17c2                	slli	a5,a5,0x30
    400013a4:	80a73023          	sd	a0,-2048(a4)
    400013a8:	93c1                	srli	a5,a5,0x30
    400013aa:	80f73423          	sd	a5,-2040(a4)
    400013ae:	80073603          	ld	a2,-2048(a4)
    400013b2:	80873583          	ld	a1,-2040(a4)
    400013b6:	4939                	li	s2,14
    400013b8:	2601                	sext.w	a2,a2
    400013ba:	15c2                	slli	a1,a1,0x30
    400013bc:	91c1                	srli	a1,a1,0x30
    400013be:	c432                	sw	a2,8(sp)
    400013c0:	c62e                	sw	a1,12(sp)
    400013c2:	00143413          	seqz	s0,s0
    400013c6:	01248863          	beq	s1,s2,400013d6 <_init+0xbe>
    400013ca:	00006517          	auipc	a0,0x6
    400013ce:	f9e50513          	addi	a0,a0,-98 # 40007368 <main+0x7ee>
    400013d2:	2b3040ef          	jal	ra,40005e84 <printf>
    400013d6:	4581                	li	a1,0
    400013d8:	8522                	mv	a0,s0
    400013da:	7a0050ef          	jal	ra,40006b7a <main>
    400013de:	85aa                	mv	a1,a0
    400013e0:	00006517          	auipc	a0,0x6
    400013e4:	fa850513          	addi	a0,a0,-88 # 40007388 <main+0x80e>
    400013e8:	29d040ef          	jal	ra,40005e84 <printf>
    400013ec:	a001                	j	400013ec <_init+0xd4>

00000000400013ee <printhex>:
    400013ee:	7179                	addi	sp,sp,-48
    400013f0:	f406                	sd	ra,40(sp)
    400013f2:	4781                	li	a5,0
    400013f4:	4825                	li	a6,9
    400013f6:	55c1                	li	a1,-16
    400013f8:	00f57613          	andi	a2,a0,15
    400013fc:	0ff67713          	andi	a4,a2,255
    40001400:	03000693          	li	a3,48
    40001404:	00c87463          	bleu	a2,a6,4000140c <printhex+0x1e>
    40001408:	05700693          	li	a3,87
    4000140c:	0030                	addi	a2,sp,8
    4000140e:	963e                	add	a2,a2,a5
    40001410:	9f35                	addw	a4,a4,a3
    40001412:	00e607a3          	sb	a4,15(a2)
    40001416:	17fd                	addi	a5,a5,-1
    40001418:	8111                	srli	a0,a0,0x4
    4000141a:	fcb79fe3          	bne	a5,a1,400013f8 <printhex+0xa>
    4000141e:	0028                	addi	a0,sp,8
    40001420:	00010c23          	sb	zero,24(sp)
    40001424:	160000ef          	jal	ra,40001584 <hid_send_string>
    40001428:	70a2                	ld	ra,40(sp)
    4000142a:	6145                	addi	sp,sp,48
    4000142c:	8082                	ret

000000004000142e <hid_console_putchar>:
    4000142e:	00007697          	auipc	a3,0x7
    40001432:	8fe68693          	addi	a3,a3,-1794 # 40007d2c <addr_int>
    40001436:	4729                	li	a4,10
    40001438:	429c                	lw	a5,0(a3)
    4000143a:	8836                	mv	a6,a3
    4000143c:	0ae50263          	beq	a0,a4,400014e0 <hid_console_putchar+0xb2>
    40001440:	08a76363          	bltu	a4,a0,400014c6 <hid_console_putchar+0x98>
    40001444:	4721                	li	a4,8
    40001446:	0ce51d63          	bne	a0,a4,40001520 <hid_console_putchar+0xf2>
    4000144a:	07f7f713          	andi	a4,a5,127
    4000144e:	c31d                	beqz	a4,40001474 <hid_console_putchar+0x46>
    40001450:	fff7871b          	addiw	a4,a5,-1
    40001454:	00007797          	auipc	a5,0x7
    40001458:	83c78793          	addi	a5,a5,-1988 # 40007c90 <hid_vga_ptr>
    4000145c:	639c                	ld	a5,0(a5)
    4000145e:	00007697          	auipc	a3,0x7
    40001462:	8ce6a723          	sw	a4,-1842(a3) # 40007d2c <addr_int>
    40001466:	0706                	slli	a4,a4,0x1
    40001468:	97ba                	add	a5,a5,a4
    4000146a:	6705                	lui	a4,0x1
    4000146c:	f207071b          	addiw	a4,a4,-224
    40001470:	00e79023          	sh	a4,0(a5)
    40001474:	00082703          	lw	a4,0(a6) # 1000 <_tbss_end+0x1000>
    40001478:	6785                	lui	a5,0x1
    4000147a:	f7f78793          	addi	a5,a5,-129 # f7f <_tbss_end+0xf7f>
    4000147e:	04e7d363          	ble	a4,a5,400014c4 <hid_console_putchar+0x96>
    40001482:	00007717          	auipc	a4,0x7
    40001486:	8a072523          	sw	zero,-1878(a4) # 40007d2c <addr_int>
    4000148a:	00007717          	auipc	a4,0x7
    4000148e:	80670713          	addi	a4,a4,-2042 # 40007c90 <hid_vga_ptr>
    40001492:	6318                	ld	a4,0(a4)
    40001494:	6605                	lui	a2,0x1
    40001496:	4681                	li	a3,0
    40001498:	6505                	lui	a0,0x1
    4000149a:	f206061b          	addiw	a2,a2,-224
    4000149e:	0ad7e763          	bltu	a5,a3,4000154c <hid_console_putchar+0x11e>
    400014a2:	10075583          	lhu	a1,256(a4)
    400014a6:	15c2                	slli	a1,a1,0x30
    400014a8:	91c1                	srli	a1,a1,0x30
    400014aa:	00b71023          	sh	a1,0(a4)
    400014ae:	0685                	addi	a3,a3,1
    400014b0:	0709                	addi	a4,a4,2
    400014b2:	fea696e3          	bne	a3,a0,4000149e <hid_console_putchar+0x70>
    400014b6:	6785                	lui	a5,0x1
    400014b8:	f007879b          	addiw	a5,a5,-256
    400014bc:	00007717          	auipc	a4,0x7
    400014c0:	86f72823          	sw	a5,-1936(a4) # 40007d2c <addr_int>
    400014c4:	8082                	ret
    400014c6:	4735                	li	a4,13
    400014c8:	00e50563          	beq	a0,a4,400014d2 <hid_console_putchar+0xa4>
    400014cc:	07f00713          	li	a4,127
    400014d0:	bf9d                	j	40001446 <hid_console_putchar+0x18>
    400014d2:	f807f793          	andi	a5,a5,-128
    400014d6:	00007717          	auipc	a4,0x7
    400014da:	84f72b23          	sw	a5,-1962(a4) # 40007d2c <addr_int>
    400014de:	bf59                	j	40001474 <hid_console_putchar+0x46>
    400014e0:	00006717          	auipc	a4,0x6
    400014e4:	7b070713          	addi	a4,a4,1968 # 40007c90 <hid_vga_ptr>
    400014e8:	6585                	lui	a1,0x1
    400014ea:	00073883          	ld	a7,0(a4)
    400014ee:	07f7e513          	ori	a0,a5,127
    400014f2:	86be                	mv	a3,a5
    400014f4:	4601                	li	a2,0
    400014f6:	4701                	li	a4,0
    400014f8:	f205859b          	addiw	a1,a1,-224
    400014fc:	00d55863          	ble	a3,a0,4000150c <hid_console_putchar+0xde>
    40001500:	db35                	beqz	a4,40001474 <hid_console_putchar+0x46>
    40001502:	00007797          	auipc	a5,0x7
    40001506:	82d7a523          	sw	a3,-2006(a5) # 40007d2c <addr_int>
    4000150a:	b7ad                	j	40001474 <hid_console_putchar+0x46>
    4000150c:	00c78733          	add	a4,a5,a2
    40001510:	0706                	slli	a4,a4,0x1
    40001512:	9746                	add	a4,a4,a7
    40001514:	00b71023          	sh	a1,0(a4)
    40001518:	2685                	addiw	a3,a3,1
    4000151a:	0605                	addi	a2,a2,1
    4000151c:	4705                	li	a4,1
    4000151e:	bff9                	j	400014fc <hid_console_putchar+0xce>
    40001520:	0017871b          	addiw	a4,a5,1
    40001524:	00007697          	auipc	a3,0x7
    40001528:	80e6a423          	sw	a4,-2040(a3) # 40007d2c <addr_int>
    4000152c:	00006717          	auipc	a4,0x6
    40001530:	76470713          	addi	a4,a4,1892 # 40007c90 <hid_vga_ptr>
    40001534:	6318                	ld	a4,0(a4)
    40001536:	0786                	slli	a5,a5,0x1
    40001538:	97ba                	add	a5,a5,a4
    4000153a:	6705                	lui	a4,0x1
    4000153c:	f0070713          	addi	a4,a4,-256 # f00 <_tbss_end+0xf00>
    40001540:	8d59                	or	a0,a0,a4
    40001542:	1542                	slli	a0,a0,0x30
    40001544:	9141                	srli	a0,a0,0x30
    40001546:	00a79023          	sh	a0,0(a5)
    4000154a:	b72d                	j	40001474 <hid_console_putchar+0x46>
    4000154c:	00c71023          	sh	a2,0(a4)
    40001550:	bfb9                	j	400014ae <hid_console_putchar+0x80>

0000000040001552 <uart_console_putchar>:
    40001552:	00006797          	auipc	a5,0x6
    40001556:	74678793          	addi	a5,a5,1862 # 40007c98 <uart_base>
    4000155a:	6398                	ld	a4,0(a5)
    4000155c:	631c                	ld	a5,0(a4)
    4000155e:	4007f793          	andi	a5,a5,1024
    40001562:	ffed                	bnez	a5,4000155c <uart_console_putchar+0xa>
    40001564:	e308                	sd	a0,0(a4)
    40001566:	8082                	ret

0000000040001568 <hid_init>:
    40001568:	8082                	ret

000000004000156a <hid_send_irq>:
    4000156a:	8082                	ret

000000004000156c <hid_send>:
    4000156c:	1141                	addi	sp,sp,-16
    4000156e:	e022                	sd	s0,0(sp)
    40001570:	e406                	sd	ra,8(sp)
    40001572:	842a                	mv	s0,a0
    40001574:	fdfff0ef          	jal	ra,40001552 <uart_console_putchar>
    40001578:	8522                	mv	a0,s0
    4000157a:	6402                	ld	s0,0(sp)
    4000157c:	60a2                	ld	ra,8(sp)
    4000157e:	0141                	addi	sp,sp,16
    40001580:	eafff06f          	j	4000142e <hid_console_putchar>

0000000040001584 <hid_send_string>:
    40001584:	1141                	addi	sp,sp,-16
    40001586:	e022                	sd	s0,0(sp)
    40001588:	e406                	sd	ra,8(sp)
    4000158a:	842a                	mv	s0,a0
    4000158c:	00044503          	lbu	a0,0(s0)
    40001590:	e509                	bnez	a0,4000159a <hid_send_string+0x16>
    40001592:	60a2                	ld	ra,8(sp)
    40001594:	6402                	ld	s0,0(sp)
    40001596:	0141                	addi	sp,sp,16
    40001598:	8082                	ret
    4000159a:	0405                	addi	s0,s0,1
    4000159c:	fd1ff0ef          	jal	ra,4000156c <hid_send>
    400015a0:	b7f5                	j	4000158c <hid_send_string+0x8>

00000000400015a2 <hid_send_buf>:
    400015a2:	7179                	addi	sp,sp,-48
    400015a4:	f022                	sd	s0,32(sp)
    400015a6:	ec26                	sd	s1,24(sp)
    400015a8:	f406                	sd	ra,40(sp)
    400015aa:	84aa                	mv	s1,a0
    400015ac:	842a                	mv	s0,a0
    400015ae:	409407bb          	subw	a5,s0,s1
    400015b2:	00b7c763          	blt	a5,a1,400015c0 <hid_send_buf+0x1e>
    400015b6:	70a2                	ld	ra,40(sp)
    400015b8:	7402                	ld	s0,32(sp)
    400015ba:	64e2                	ld	s1,24(sp)
    400015bc:	6145                	addi	sp,sp,48
    400015be:	8082                	ret
    400015c0:	00044503          	lbu	a0,0(s0)
    400015c4:	e42e                	sd	a1,8(sp)
    400015c6:	0405                	addi	s0,s0,1
    400015c8:	fa5ff0ef          	jal	ra,4000156c <hid_send>
    400015cc:	65a2                	ld	a1,8(sp)
    400015ce:	b7c5                	j	400015ae <hid_send_buf+0xc>

00000000400015d0 <hid_recv>:
    400015d0:	0ff00513          	li	a0,255
    400015d4:	8082                	ret

00000000400015d6 <hid_check_read_irq>:
    400015d6:	00006797          	auipc	a5,0x6
    400015da:	6c278793          	addi	a5,a5,1730 # 40007c98 <uart_base>
    400015de:	639c                	ld	a5,0(a5)
    400015e0:	4501                	li	a0,0
    400015e2:	6398                	ld	a4,0(a5)
    400015e4:	6709                	lui	a4,0x2
    400015e6:	97ba                	add	a5,a5,a4
    400015e8:	639c                	ld	a5,0(a5)
    400015ea:	8082                	ret

00000000400015ec <hid_read_irq>:
    400015ec:	1101                	addi	sp,sp,-32
    400015ee:	e822                	sd	s0,16(sp)
    400015f0:	e426                	sd	s1,8(sp)
    400015f2:	ec06                	sd	ra,24(sp)
    400015f4:	00006497          	auipc	s1,0x6
    400015f8:	6a448493          	addi	s1,s1,1700 # 40007c98 <uart_base>
    400015fc:	6405                	lui	s0,0x1
    400015fe:	fd9ff0ef          	jal	ra,400015d6 <hid_check_read_irq>
    40001602:	dd75                	beqz	a0,400015fe <hid_read_irq+0x12>
    40001604:	609c                	ld	a5,0(s1)
    40001606:	00878733          	add	a4,a5,s0
    4000160a:	00073023          	sd	zero,0(a4) # 2000 <_tbss_end+0x2000>
    4000160e:	6388                	ld	a0,0(a5)
    40001610:	07f57513          	andi	a0,a0,127
    40001614:	d56d                	beqz	a0,400015fe <hid_read_irq+0x12>
    40001616:	60e2                	ld	ra,24(sp)
    40001618:	6442                	ld	s0,16(sp)
    4000161a:	64a2                	ld	s1,8(sp)
    4000161c:	6105                	addi	sp,sp,32
    4000161e:	8082                	ret

0000000040001620 <hid_enable_read_irq>:
    40001620:	8082                	ret

0000000040001622 <hid_disable_read_irq>:
    40001622:	8082                	ret

0000000040001624 <putc>:
    40001624:	1141                	addi	sp,sp,-16
    40001626:	0ff57513          	andi	a0,a0,255
    4000162a:	e406                	sd	ra,8(sp)
    4000162c:	f41ff0ef          	jal	ra,4000156c <hid_send>
    40001630:	60a2                	ld	ra,8(sp)
    40001632:	0141                	addi	sp,sp,16
    40001634:	8082                	ret

0000000040001636 <puts>:
    40001636:	1141                	addi	sp,sp,-16
    40001638:	e022                	sd	s0,0(sp)
    4000163a:	e406                	sd	ra,8(sp)
    4000163c:	842a                	mv	s0,a0
    4000163e:	00044503          	lbu	a0,0(s0) # 1000 <_tbss_end+0x1000>
    40001642:	e909                	bnez	a0,40001654 <puts+0x1e>
    40001644:	4529                	li	a0,10
    40001646:	f27ff0ef          	jal	ra,4000156c <hid_send>
    4000164a:	60a2                	ld	ra,8(sp)
    4000164c:	6402                	ld	s0,0(sp)
    4000164e:	4501                	li	a0,0
    40001650:	0141                	addi	sp,sp,16
    40001652:	8082                	ret
    40001654:	0405                	addi	s0,s0,1
    40001656:	f17ff0ef          	jal	ra,4000156c <hid_send>
    4000165a:	b7d5                	j	4000163e <puts+0x8>

000000004000165c <get_bram_base>:
    4000165c:	40000537          	lui	a0,0x40000
    40001660:	8082                	ret

0000000040001662 <get_ddr_base>:
    40001662:	4505                	li	a0,1
    40001664:	057e                	slli	a0,a0,0x1f
    40001666:	8082                	ret

0000000040001668 <get_ddr_size>:
    40001668:	08000537          	lui	a0,0x8000
    4000166c:	8082                	ret

000000004000166e <get_flash_base>:
    4000166e:	4501                	li	a0,0
    40001670:	8082                	ret

0000000040001672 <write_led>:
    40001672:	1502                	slli	a0,a0,0x20
    40001674:	9101                	srli	a0,a0,0x20
    40001676:	400107b7          	lui	a5,0x40010
    4000167a:	ffa8                	sd	a0,120(a5)
    4000167c:	8082                	ret

000000004000167e <get_sw>:
    4000167e:	400107b7          	lui	a5,0x40010
    40001682:	7fe8                	ld	a0,248(a5)
    40001684:	2501                	sext.w	a0,a0
    40001686:	8082                	ret

0000000040001688 <memcmp>:
    40001688:	962a                	add	a2,a2,a0
    4000168a:	00c50e63          	beq	a0,a2,400016a6 <memcmp+0x1e>
    4000168e:	00054783          	lbu	a5,0(a0) # 8000000 <_tbss_end+0x8000000>
    40001692:	0005c703          	lbu	a4,0(a1) # 1000 <_tbss_end+0x1000>
    40001696:	00e78563          	beq	a5,a4,400016a0 <memcmp+0x18>
    4000169a:	40e7853b          	subw	a0,a5,a4
    4000169e:	8082                	ret
    400016a0:	0505                	addi	a0,a0,1
    400016a2:	0585                	addi	a1,a1,1
    400016a4:	b7dd                	j	4000168a <memcmp+0x2>
    400016a6:	4501                	li	a0,0
    400016a8:	8082                	ret

00000000400016aa <memset>:
    400016aa:	471d                	li	a4,7
    400016ac:	87aa                	mv	a5,a0
    400016ae:	04c77563          	bleu	a2,a4,400016f8 <memset+0x4e>
    400016b2:	0ff5f813          	andi	a6,a1,255
    400016b6:	00881693          	slli	a3,a6,0x8
    400016ba:	0106e6b3          	or	a3,a3,a6
    400016be:	01069713          	slli	a4,a3,0x10
    400016c2:	8ed9                	or	a3,a3,a4
    400016c4:	02069713          	slli	a4,a3,0x20
    400016c8:	8f55                	or	a4,a4,a3
    400016ca:	00c50333          	add	t1,a0,a2
    400016ce:	0077f693          	andi	a3,a5,7
    400016d2:	88be                	mv	a7,a5
    400016d4:	40f30633          	sub	a2,t1,a5
    400016d8:	e685                	bnez	a3,40001700 <memset+0x56>
    400016da:	00665693          	srli	a3,a2,0x6
    400016de:	8836                	mv	a6,a3
    400016e0:	02081463          	bnez	a6,40001708 <memset+0x5e>
    400016e4:	069a                	slli	a3,a3,0x6
    400016e6:	00365793          	srli	a5,a2,0x3
    400016ea:	96c6                	add	a3,a3,a7
    400016ec:	8b9d                	andi	a5,a5,7
    400016ee:	03079963          	bne	a5,a6,40001720 <memset+0x76>
    400016f2:	078e                	slli	a5,a5,0x3
    400016f4:	97b6                	add	a5,a5,a3
    400016f6:	8a1d                	andi	a2,a2,7
    400016f8:	963e                	add	a2,a2,a5
    400016fa:	02c79a63          	bne	a5,a2,4000172e <memset+0x84>
    400016fe:	8082                	ret
    40001700:	01078023          	sb	a6,0(a5) # 40010000 <_end+0x7470>
    40001704:	0785                	addi	a5,a5,1
    40001706:	b7e1                	j	400016ce <memset+0x24>
    40001708:	e398                	sd	a4,0(a5)
    4000170a:	e798                	sd	a4,8(a5)
    4000170c:	eb98                	sd	a4,16(a5)
    4000170e:	ef98                	sd	a4,24(a5)
    40001710:	f398                	sd	a4,32(a5)
    40001712:	f798                	sd	a4,40(a5)
    40001714:	fb98                	sd	a4,48(a5)
    40001716:	ff98                	sd	a4,56(a5)
    40001718:	187d                	addi	a6,a6,-1
    4000171a:	04078793          	addi	a5,a5,64
    4000171e:	b7c9                	j	400016e0 <memset+0x36>
    40001720:	00381893          	slli	a7,a6,0x3
    40001724:	98b6                	add	a7,a7,a3
    40001726:	00e8b023          	sd	a4,0(a7)
    4000172a:	0805                	addi	a6,a6,1
    4000172c:	b7c9                	j	400016ee <memset+0x44>
    4000172e:	00b78023          	sb	a1,0(a5)
    40001732:	0785                	addi	a5,a5,1
    40001734:	b7d9                	j	400016fa <memset+0x50>

0000000040001736 <strcmp>:
    40001736:	0505                	addi	a0,a0,1
    40001738:	fff54783          	lbu	a5,-1(a0)
    4000173c:	0585                	addi	a1,a1,1
    4000173e:	fff5c703          	lbu	a4,-1(a1)
    40001742:	e781                	bnez	a5,4000174a <strcmp+0x14>
    40001744:	40e0053b          	negw	a0,a4
    40001748:	8082                	ret
    4000174a:	fee786e3          	beq	a5,a4,40001736 <strcmp>
    4000174e:	40e7853b          	subw	a0,a5,a4
    40001752:	8082                	ret

0000000040001754 <strcpy>:
    40001754:	87aa                	mv	a5,a0
    40001756:	0005c703          	lbu	a4,0(a1)
    4000175a:	0785                	addi	a5,a5,1
    4000175c:	0585                	addi	a1,a1,1
    4000175e:	fee78fa3          	sb	a4,-1(a5)
    40001762:	fb75                	bnez	a4,40001756 <strcpy+0x2>
    40001764:	8082                	ret

0000000040001766 <strnlen>:
    40001766:	c1a5                	beqz	a1,400017c6 <strnlen+0x60>
    40001768:	00b506b3          	add	a3,a0,a1
    4000176c:	00a6f363          	bleu	a0,a3,40001772 <strnlen+0xc>
    40001770:	56fd                	li	a3,-1
    40001772:	85aa                	mv	a1,a0
    40001774:	0075f793          	andi	a5,a1,7
    40001778:	e3a1                	bnez	a5,400017b8 <strnlen+0x52>
    4000177a:	87ae                	mv	a5,a1
    4000177c:	00006817          	auipc	a6,0x6
    40001780:	4bc80813          	addi	a6,a6,1212 # 40007c38 <P_array.1885+0x38>
    40001784:	00006897          	auipc	a7,0x6
    40001788:	4bc88893          	addi	a7,a7,1212 # 40007c40 <P_array.1885+0x40>
    4000178c:	02d7f963          	bleu	a3,a5,400017be <strnlen+0x58>
    40001790:	00878713          	addi	a4,a5,8
    40001794:	00083583          	ld	a1,0(a6)
    40001798:	ff873603          	ld	a2,-8(a4)
    4000179c:	962e                	add	a2,a2,a1
    4000179e:	0008b583          	ld	a1,0(a7)
    400017a2:	8e6d                	and	a2,a2,a1
    400017a4:	ca2d                	beqz	a2,40001816 <strnlen+0xb0>
    400017a6:	ff874603          	lbu	a2,-8(a4)
    400017aa:	ca2d                	beqz	a2,4000181c <strnlen+0xb6>
    400017ac:	ff974603          	lbu	a2,-7(a4)
    400017b0:	ee19                	bnez	a2,400017ce <strnlen+0x68>
    400017b2:	00178593          	addi	a1,a5,1
    400017b6:	a021                	j	400017be <strnlen+0x58>
    400017b8:	0005c783          	lbu	a5,0(a1)
    400017bc:	e799                	bnez	a5,400017ca <strnlen+0x64>
    400017be:	00b6f363          	bleu	a1,a3,400017c4 <strnlen+0x5e>
    400017c2:	85b6                	mv	a1,a3
    400017c4:	8d89                	sub	a1,a1,a0
    400017c6:	852e                	mv	a0,a1
    400017c8:	8082                	ret
    400017ca:	0585                	addi	a1,a1,1
    400017cc:	b765                	j	40001774 <strnlen+0xe>
    400017ce:	ffa74603          	lbu	a2,-6(a4)
    400017d2:	e601                	bnez	a2,400017da <strnlen+0x74>
    400017d4:	00278593          	addi	a1,a5,2
    400017d8:	b7dd                	j	400017be <strnlen+0x58>
    400017da:	ffb74603          	lbu	a2,-5(a4)
    400017de:	e601                	bnez	a2,400017e6 <strnlen+0x80>
    400017e0:	00378593          	addi	a1,a5,3
    400017e4:	bfe9                	j	400017be <strnlen+0x58>
    400017e6:	ffc74603          	lbu	a2,-4(a4)
    400017ea:	e601                	bnez	a2,400017f2 <strnlen+0x8c>
    400017ec:	00478593          	addi	a1,a5,4
    400017f0:	b7f9                	j	400017be <strnlen+0x58>
    400017f2:	ffd74603          	lbu	a2,-3(a4)
    400017f6:	e601                	bnez	a2,400017fe <strnlen+0x98>
    400017f8:	00578593          	addi	a1,a5,5
    400017fc:	b7c9                	j	400017be <strnlen+0x58>
    400017fe:	ffe74603          	lbu	a2,-2(a4)
    40001802:	e601                	bnez	a2,4000180a <strnlen+0xa4>
    40001804:	00678593          	addi	a1,a5,6
    40001808:	bf5d                	j	400017be <strnlen+0x58>
    4000180a:	fff74603          	lbu	a2,-1(a4)
    4000180e:	e601                	bnez	a2,40001816 <strnlen+0xb0>
    40001810:	00778593          	addi	a1,a5,7
    40001814:	b76d                	j	400017be <strnlen+0x58>
    40001816:	85b6                	mv	a1,a3
    40001818:	87ba                	mv	a5,a4
    4000181a:	bf8d                	j	4000178c <strnlen+0x26>
    4000181c:	85be                	mv	a1,a5
    4000181e:	b745                	j	400017be <strnlen+0x58>

0000000040001820 <_wordcopy_fwd_aligned>:
    40001820:	00767793          	andi	a5,a2,7
    40001824:	17fd                	addi	a5,a5,-1
    40001826:	4719                	li	a4,6
    40001828:	08f76163          	bltu	a4,a5,400018aa <_wordcopy_fwd_aligned+0x8a>
    4000182c:	00006717          	auipc	a4,0x6
    40001830:	23470713          	addi	a4,a4,564 # 40007a60 <main+0xee6>
    40001834:	078a                	slli	a5,a5,0x2
    40001836:	97ba                	add	a5,a5,a4
    40001838:	439c                	lw	a5,0(a5)
    4000183a:	97ba                	add	a5,a5,a4
    4000183c:	8782                	jr	a5
    4000183e:	6198                	ld	a4,0(a1)
    40001840:	fc850513          	addi	a0,a0,-56
    40001844:	fd058593          	addi	a1,a1,-48
    40001848:	0619                	addi	a2,a2,6
    4000184a:	7d9c                	ld	a5,56(a1)
    4000184c:	1661                	addi	a2,a2,-8
    4000184e:	fd18                	sd	a4,56(a0)
    40001850:	04058593          	addi	a1,a1,64
    40001854:	04050513          	addi	a0,a0,64
    40001858:	e23d                	bnez	a2,400018be <_wordcopy_fwd_aligned+0x9e>
    4000185a:	e11c                	sd	a5,0(a0)
    4000185c:	8082                	ret
    4000185e:	619c                	ld	a5,0(a1)
    40001860:	fd050513          	addi	a0,a0,-48
    40001864:	fd858593          	addi	a1,a1,-40
    40001868:	0615                	addi	a2,a2,5
    4000186a:	7998                	ld	a4,48(a1)
    4000186c:	f91c                	sd	a5,48(a0)
    4000186e:	bff1                	j	4000184a <_wordcopy_fwd_aligned+0x2a>
    40001870:	6198                	ld	a4,0(a1)
    40001872:	fd850513          	addi	a0,a0,-40
    40001876:	1581                	addi	a1,a1,-32
    40001878:	0611                	addi	a2,a2,4
    4000187a:	759c                	ld	a5,40(a1)
    4000187c:	f518                	sd	a4,40(a0)
    4000187e:	b7f5                	j	4000186a <_wordcopy_fwd_aligned+0x4a>
    40001880:	619c                	ld	a5,0(a1)
    40001882:	1501                	addi	a0,a0,-32
    40001884:	15a1                	addi	a1,a1,-24
    40001886:	060d                	addi	a2,a2,3
    40001888:	7198                	ld	a4,32(a1)
    4000188a:	f11c                	sd	a5,32(a0)
    4000188c:	b7fd                	j	4000187a <_wordcopy_fwd_aligned+0x5a>
    4000188e:	6198                	ld	a4,0(a1)
    40001890:	1521                	addi	a0,a0,-24
    40001892:	15c1                	addi	a1,a1,-16
    40001894:	0609                	addi	a2,a2,2
    40001896:	6d9c                	ld	a5,24(a1)
    40001898:	ed18                	sd	a4,24(a0)
    4000189a:	b7fd                	j	40001888 <_wordcopy_fwd_aligned+0x68>
    4000189c:	619c                	ld	a5,0(a1)
    4000189e:	1541                	addi	a0,a0,-16
    400018a0:	15e1                	addi	a1,a1,-8
    400018a2:	0605                	addi	a2,a2,1
    400018a4:	6998                	ld	a4,16(a1)
    400018a6:	e91c                	sd	a5,16(a0)
    400018a8:	b7fd                	j	40001896 <_wordcopy_fwd_aligned+0x76>
    400018aa:	da4d                	beqz	a2,4000185c <_wordcopy_fwd_aligned+0x3c>
    400018ac:	6198                	ld	a4,0(a1)
    400018ae:	1561                	addi	a0,a0,-8
    400018b0:	659c                	ld	a5,8(a1)
    400018b2:	e518                	sd	a4,8(a0)
    400018b4:	bfc5                	j	400018a4 <_wordcopy_fwd_aligned+0x84>
    400018b6:	167d                	addi	a2,a2,-1
    400018b8:	619c                	ld	a5,0(a1)
    400018ba:	d245                	beqz	a2,4000185a <_wordcopy_fwd_aligned+0x3a>
    400018bc:	05a1                	addi	a1,a1,8
    400018be:	6198                	ld	a4,0(a1)
    400018c0:	e11c                	sd	a5,0(a0)
    400018c2:	b7fd                	j	400018b0 <_wordcopy_fwd_aligned+0x90>

00000000400018c4 <_wordcopy_fwd_dest_aligned>:
    400018c4:	0075f313          	andi	t1,a1,7
    400018c8:	00331e1b          	slliw	t3,t1,0x3
    400018cc:	04000693          	li	a3,64
    400018d0:	00367793          	andi	a5,a2,3
    400018d4:	4709                	li	a4,2
    400018d6:	41c6833b          	subw	t1,a3,t3
    400018da:	99e1                	andi	a1,a1,-8
    400018dc:	02e78663          	beq	a5,a4,40001908 <_wordcopy_fwd_dest_aligned+0x44>
    400018e0:	470d                	li	a4,3
    400018e2:	04e78f63          	beq	a5,a4,40001940 <_wordcopy_fwd_dest_aligned+0x7c>
    400018e6:	4705                	li	a4,1
    400018e8:	06e79c63          	bne	a5,a4,40001960 <_wordcopy_fwd_dest_aligned+0x9c>
    400018ec:	167d                	addi	a2,a2,-1
    400018ee:	619c                	ld	a5,0(a1)
    400018f0:	6594                	ld	a3,8(a1)
    400018f2:	c221                	beqz	a2,40001932 <_wordcopy_fwd_dest_aligned+0x6e>
    400018f4:	05c1                	addi	a1,a1,16
    400018f6:	01c7d733          	srl	a4,a5,t3
    400018fa:	006697b3          	sll	a5,a3,t1
    400018fe:	8f5d                	or	a4,a4,a5
    40001900:	0005b883          	ld	a7,0(a1)
    40001904:	e118                	sd	a4,0(a0)
    40001906:	a09d                	j	4000196c <_wordcopy_fwd_dest_aligned+0xa8>
    40001908:	0005b803          	ld	a6,0(a1)
    4000190c:	659c                	ld	a5,8(a1)
    4000190e:	1521                	addi	a0,a0,-24
    40001910:	15e1                	addi	a1,a1,-8
    40001912:	0609                	addi	a2,a2,2
    40001914:	01c85833          	srl	a6,a6,t3
    40001918:	00679733          	sll	a4,a5,t1
    4000191c:	00e86833          	or	a6,a6,a4
    40001920:	6d94                	ld	a3,24(a1)
    40001922:	1671                	addi	a2,a2,-4
    40001924:	01053c23          	sd	a6,24(a0)
    40001928:	02058593          	addi	a1,a1,32
    4000192c:	02050513          	addi	a0,a0,32
    40001930:	f279                	bnez	a2,400018f6 <_wordcopy_fwd_dest_aligned+0x32>
    40001932:	01c7d7b3          	srl	a5,a5,t3
    40001936:	006696b3          	sll	a3,a3,t1
    4000193a:	8fd5                	or	a5,a5,a3
    4000193c:	e11c                	sd	a5,0(a0)
    4000193e:	8082                	ret
    40001940:	0005b883          	ld	a7,0(a1)
    40001944:	0085b803          	ld	a6,8(a1)
    40001948:	1541                	addi	a0,a0,-16
    4000194a:	0605                	addi	a2,a2,1
    4000194c:	01c8d8b3          	srl	a7,a7,t3
    40001950:	00681733          	sll	a4,a6,t1
    40001954:	00e8e8b3          	or	a7,a7,a4
    40001958:	699c                	ld	a5,16(a1)
    4000195a:	01153823          	sd	a7,16(a0)
    4000195e:	bf5d                	j	40001914 <_wordcopy_fwd_dest_aligned+0x50>
    40001960:	de79                	beqz	a2,4000193e <_wordcopy_fwd_dest_aligned+0x7a>
    40001962:	6194                	ld	a3,0(a1)
    40001964:	0085b883          	ld	a7,8(a1)
    40001968:	1561                	addi	a0,a0,-8
    4000196a:	05a1                	addi	a1,a1,8
    4000196c:	01c6d733          	srl	a4,a3,t3
    40001970:	006896b3          	sll	a3,a7,t1
    40001974:	8f55                	or	a4,a4,a3
    40001976:	0085b803          	ld	a6,8(a1)
    4000197a:	e518                	sd	a4,8(a0)
    4000197c:	bfc1                	j	4000194c <_wordcopy_fwd_dest_aligned+0x88>

000000004000197e <_wordcopy_bwd_aligned>:
    4000197e:	00767793          	andi	a5,a2,7
    40001982:	17fd                	addi	a5,a5,-1
    40001984:	4719                	li	a4,6
    40001986:	08f76a63          	bltu	a4,a5,40001a1a <_wordcopy_bwd_aligned+0x9c>
    4000198a:	00006717          	auipc	a4,0x6
    4000198e:	0f270713          	addi	a4,a4,242 # 40007a7c <main+0xf02>
    40001992:	078a                	slli	a5,a5,0x2
    40001994:	97ba                	add	a5,a5,a4
    40001996:	439c                	lw	a5,0(a5)
    40001998:	97ba                	add	a5,a5,a4
    4000199a:	8782                	jr	a5
    4000199c:	ff85b683          	ld	a3,-8(a1)
    400019a0:	ff058793          	addi	a5,a1,-16
    400019a4:	1561                	addi	a0,a0,-8
    400019a6:	0619                	addi	a2,a2,6
    400019a8:	6398                	ld	a4,0(a5)
    400019aa:	1661                	addi	a2,a2,-8
    400019ac:	e114                	sd	a3,0(a0)
    400019ae:	fc078793          	addi	a5,a5,-64
    400019b2:	fc050513          	addi	a0,a0,-64
    400019b6:	e641                	bnez	a2,40001a3e <_wordcopy_bwd_aligned+0xc0>
    400019b8:	fd18                	sd	a4,56(a0)
    400019ba:	8082                	ret
    400019bc:	ff85b703          	ld	a4,-8(a1)
    400019c0:	fe858793          	addi	a5,a1,-24
    400019c4:	1541                	addi	a0,a0,-16
    400019c6:	0615                	addi	a2,a2,5
    400019c8:	6794                	ld	a3,8(a5)
    400019ca:	e518                	sd	a4,8(a0)
    400019cc:	bff1                	j	400019a8 <_wordcopy_bwd_aligned+0x2a>
    400019ce:	ff85b683          	ld	a3,-8(a1)
    400019d2:	fe058793          	addi	a5,a1,-32
    400019d6:	1521                	addi	a0,a0,-24
    400019d8:	0611                	addi	a2,a2,4
    400019da:	6b98                	ld	a4,16(a5)
    400019dc:	e914                	sd	a3,16(a0)
    400019de:	b7ed                	j	400019c8 <_wordcopy_bwd_aligned+0x4a>
    400019e0:	ff85b703          	ld	a4,-8(a1)
    400019e4:	fd858793          	addi	a5,a1,-40
    400019e8:	1501                	addi	a0,a0,-32
    400019ea:	060d                	addi	a2,a2,3
    400019ec:	6f94                	ld	a3,24(a5)
    400019ee:	ed18                	sd	a4,24(a0)
    400019f0:	b7ed                	j	400019da <_wordcopy_bwd_aligned+0x5c>
    400019f2:	ff85b683          	ld	a3,-8(a1)
    400019f6:	fd058793          	addi	a5,a1,-48
    400019fa:	fd850513          	addi	a0,a0,-40
    400019fe:	0609                	addi	a2,a2,2
    40001a00:	7398                	ld	a4,32(a5)
    40001a02:	f114                	sd	a3,32(a0)
    40001a04:	b7e5                	j	400019ec <_wordcopy_bwd_aligned+0x6e>
    40001a06:	ff85b703          	ld	a4,-8(a1)
    40001a0a:	fc858793          	addi	a5,a1,-56
    40001a0e:	fd050513          	addi	a0,a0,-48
    40001a12:	0605                	addi	a2,a2,1
    40001a14:	7794                	ld	a3,40(a5)
    40001a16:	f518                	sd	a4,40(a0)
    40001a18:	b7e5                	j	40001a00 <_wordcopy_bwd_aligned+0x82>
    40001a1a:	d245                	beqz	a2,400019ba <_wordcopy_bwd_aligned+0x3c>
    40001a1c:	ff85b683          	ld	a3,-8(a1)
    40001a20:	fc058793          	addi	a5,a1,-64
    40001a24:	fc850513          	addi	a0,a0,-56
    40001a28:	7b98                	ld	a4,48(a5)
    40001a2a:	f914                	sd	a3,48(a0)
    40001a2c:	b7e5                	j	40001a14 <_wordcopy_bwd_aligned+0x96>
    40001a2e:	167d                	addi	a2,a2,-1
    40001a30:	fc050513          	addi	a0,a0,-64
    40001a34:	ff85b703          	ld	a4,-8(a1)
    40001a38:	d241                	beqz	a2,400019b8 <_wordcopy_bwd_aligned+0x3a>
    40001a3a:	fb858793          	addi	a5,a1,-72
    40001a3e:	7f94                	ld	a3,56(a5)
    40001a40:	fd18                	sd	a4,56(a0)
    40001a42:	b7dd                	j	40001a28 <_wordcopy_bwd_aligned+0xaa>

0000000040001a44 <_wordcopy_bwd_dest_aligned>:
    40001a44:	0075f713          	andi	a4,a1,7
    40001a48:	00371e1b          	slliw	t3,a4,0x3
    40001a4c:	04000813          	li	a6,64
    40001a50:	00367793          	andi	a5,a2,3
    40001a54:	4709                	li	a4,2
    40001a56:	41c8083b          	subw	a6,a6,t3
    40001a5a:	99e1                	andi	a1,a1,-8
    40001a5c:	02e78963          	beq	a5,a4,40001a8e <_wordcopy_bwd_dest_aligned+0x4a>
    40001a60:	470d                	li	a4,3
    40001a62:	06e78263          	beq	a5,a4,40001ac6 <_wordcopy_bwd_dest_aligned+0x82>
    40001a66:	4705                	li	a4,1
    40001a68:	08e79163          	bne	a5,a4,40001aea <_wordcopy_bwd_dest_aligned+0xa6>
    40001a6c:	167d                	addi	a2,a2,-1
    40001a6e:	1501                	addi	a0,a0,-32
    40001a70:	6198                	ld	a4,0(a1)
    40001a72:	ff85b783          	ld	a5,-8(a1)
    40001a76:	c229                	beqz	a2,40001ab8 <_wordcopy_bwd_dest_aligned+0x74>
    40001a78:	fd858693          	addi	a3,a1,-40
    40001a7c:	01c7d5b3          	srl	a1,a5,t3
    40001a80:	01071733          	sll	a4,a4,a6
    40001a84:	8f4d                	or	a4,a4,a1
    40001a86:	0186b303          	ld	t1,24(a3)
    40001a8a:	ed18                	sd	a4,24(a0)
    40001a8c:	a0b5                	j	40001af8 <_wordcopy_bwd_dest_aligned+0xb4>
    40001a8e:	0005b883          	ld	a7,0(a1)
    40001a92:	ff85b703          	ld	a4,-8(a1)
    40001a96:	ff058693          	addi	a3,a1,-16
    40001a9a:	1561                	addi	a0,a0,-8
    40001a9c:	0609                	addi	a2,a2,2
    40001a9e:	01c755b3          	srl	a1,a4,t3
    40001aa2:	010898b3          	sll	a7,a7,a6
    40001aa6:	0115e8b3          	or	a7,a1,a7
    40001aaa:	629c                	ld	a5,0(a3)
    40001aac:	1671                	addi	a2,a2,-4
    40001aae:	01153023          	sd	a7,0(a0)
    40001ab2:	1681                	addi	a3,a3,-32
    40001ab4:	1501                	addi	a0,a0,-32
    40001ab6:	f279                	bnez	a2,40001a7c <_wordcopy_bwd_dest_aligned+0x38>
    40001ab8:	01c7d7b3          	srl	a5,a5,t3
    40001abc:	01071733          	sll	a4,a4,a6
    40001ac0:	8fd9                	or	a5,a5,a4
    40001ac2:	ed1c                	sd	a5,24(a0)
    40001ac4:	8082                	ret
    40001ac6:	0005b303          	ld	t1,0(a1)
    40001aca:	ff85b883          	ld	a7,-8(a1)
    40001ace:	fe858693          	addi	a3,a1,-24
    40001ad2:	1541                	addi	a0,a0,-16
    40001ad4:	0605                	addi	a2,a2,1
    40001ad6:	01c8d7b3          	srl	a5,a7,t3
    40001ada:	01031333          	sll	t1,t1,a6
    40001ade:	0067e333          	or	t1,a5,t1
    40001ae2:	6698                	ld	a4,8(a3)
    40001ae4:	00653423          	sd	t1,8(a0)
    40001ae8:	bf5d                	j	40001a9e <_wordcopy_bwd_dest_aligned+0x5a>
    40001aea:	de69                	beqz	a2,40001ac4 <_wordcopy_bwd_dest_aligned+0x80>
    40001aec:	619c                	ld	a5,0(a1)
    40001aee:	ff85b303          	ld	t1,-8(a1)
    40001af2:	fe058693          	addi	a3,a1,-32
    40001af6:	1521                	addi	a0,a0,-24
    40001af8:	01c355b3          	srl	a1,t1,t3
    40001afc:	01079733          	sll	a4,a5,a6
    40001b00:	00e5e7b3          	or	a5,a1,a4
    40001b04:	0106b883          	ld	a7,16(a3)
    40001b08:	e91c                	sd	a5,16(a0)
    40001b0a:	b7f1                	j	40001ad6 <_wordcopy_bwd_dest_aligned+0x92>

0000000040001b0c <load_elf>:
    40001b0c:	04000793          	li	a5,64
    40001b10:	12b7f463          	bleu	a1,a5,40001c38 <load_elf+0x12c>
    40001b14:	00056683          	lwu	a3,0(a0)
    40001b18:	464c4737          	lui	a4,0x464c4
    40001b1c:	57f70713          	addi	a4,a4,1407 # 464c457f <_end+0x64bb9ef>
    40001b20:	4789                	li	a5,2
    40001b22:	10e69c63          	bne	a3,a4,40001c3a <load_elf+0x12e>
    40001b26:	00454683          	lbu	a3,4(a0)
    40001b2a:	4709                	li	a4,2
    40001b2c:	10e69763          	bne	a3,a4,40001c3a <load_elf+0x12e>
    40001b30:	03855703          	lhu	a4,56(a0)
    40001b34:	03800793          	li	a5,56
    40001b38:	7159                	addi	sp,sp,-112
    40001b3a:	02f70733          	mul	a4,a4,a5
    40001b3e:	f0a2                	sd	s0,96(sp)
    40001b40:	7100                	ld	s0,32(a0)
    40001b42:	fc56                	sd	s5,56(sp)
    40001b44:	02059a93          	slli	s5,a1,0x20
    40001b48:	f486                	sd	ra,104(sp)
    40001b4a:	eca6                	sd	s1,88(sp)
    40001b4c:	e8ca                	sd	s2,80(sp)
    40001b4e:	e4ce                	sd	s3,72(sp)
    40001b50:	e0d2                	sd	s4,64(sp)
    40001b52:	f85a                	sd	s6,48(sp)
    40001b54:	f45e                	sd	s7,40(sp)
    40001b56:	f062                	sd	s8,32(sp)
    40001b58:	ec66                	sd	s9,24(sp)
    40001b5a:	e86a                	sd	s10,16(sp)
    40001b5c:	e46e                	sd	s11,8(sp)
    40001b5e:	020ada93          	srli	s5,s5,0x20
    40001b62:	9722                	add	a4,a4,s0
    40001b64:	478d                	li	a5,3
    40001b66:	06eae663          	bltu	s5,a4,40001bd2 <load_elf+0xc6>
    40001b6a:	892e                	mv	s2,a1
    40001b6c:	84aa                	mv	s1,a0
    40001b6e:	942a                	add	s0,s0,a0
    40001b70:	4a01                	li	s4,0
    40001b72:	4b05                	li	s6,1
    40001b74:	00006b97          	auipc	s7,0x6
    40001b78:	834b8b93          	addi	s7,s7,-1996 # 400073a8 <main+0x82e>
    40001b7c:	00006c17          	auipc	s8,0x6
    40001b80:	874c0c13          	addi	s8,s8,-1932 # 400073f0 <main+0x876>
    40001b84:	00006c97          	auipc	s9,0x6
    40001b88:	854c8c93          	addi	s9,s9,-1964 # 400073d8 <main+0x85e>
    40001b8c:	0384d783          	lhu	a5,56(s1)
    40001b90:	00fa6463          	bltu	s4,a5,40001b98 <load_elf+0x8c>
    40001b94:	4781                	li	a5,0
    40001b96:	a835                	j	40001bd2 <load_elf+0xc6>
    40001b98:	401c                	lw	a5,0(s0)
    40001b9a:	09679b63          	bne	a5,s6,40001c30 <load_elf+0x124>
    40001b9e:	741c                	ld	a5,40(s0)
    40001ba0:	cbc1                	beqz	a5,40001c30 <load_elf+0x124>
    40001ba2:	85d2                	mv	a1,s4
    40001ba4:	855e                	mv	a0,s7
    40001ba6:	2de040ef          	jal	ra,40005e84 <printf>
    40001baa:	02043983          	ld	s3,32(s0)
    40001bae:	04098d63          	beqz	s3,40001c08 <load_elf+0xfc>
    40001bb2:	640c                	ld	a1,8(s0)
    40001bb4:	01843d03          	ld	s10,24(s0)
    40001bb8:	00b48db3          	add	s11,s1,a1
    40001bbc:	95ce                	add	a1,a1,s3
    40001bbe:	02bafa63          	bleu	a1,s5,40001bf2 <load_elf+0xe6>
    40001bc2:	864a                	mv	a2,s2
    40001bc4:	00005517          	auipc	a0,0x5
    40001bc8:	7f450513          	addi	a0,a0,2036 # 400073b8 <main+0x83e>
    40001bcc:	2b8040ef          	jal	ra,40005e84 <printf>
    40001bd0:	478d                	li	a5,3
    40001bd2:	70a6                	ld	ra,104(sp)
    40001bd4:	7406                	ld	s0,96(sp)
    40001bd6:	64e6                	ld	s1,88(sp)
    40001bd8:	6946                	ld	s2,80(sp)
    40001bda:	69a6                	ld	s3,72(sp)
    40001bdc:	6a06                	ld	s4,64(sp)
    40001bde:	7ae2                	ld	s5,56(sp)
    40001be0:	7b42                	ld	s6,48(sp)
    40001be2:	7ba2                	ld	s7,40(sp)
    40001be4:	7c02                	ld	s8,32(sp)
    40001be6:	6ce2                	ld	s9,24(sp)
    40001be8:	6d42                	ld	s10,16(sp)
    40001bea:	6da2                	ld	s11,8(sp)
    40001bec:	853e                	mv	a0,a5
    40001bee:	6165                	addi	sp,sp,112
    40001bf0:	8082                	ret
    40001bf2:	866e                	mv	a2,s11
    40001bf4:	85ea                	mv	a1,s10
    40001bf6:	86ce                	mv	a3,s3
    40001bf8:	8566                	mv	a0,s9
    40001bfa:	28a040ef          	jal	ra,40005e84 <printf>
    40001bfe:	864e                	mv	a2,s3
    40001c00:	85ee                	mv	a1,s11
    40001c02:	856a                	mv	a0,s10
    40001c04:	367040ef          	jal	ra,4000676a <memcpy>
    40001c08:	02843983          	ld	s3,40(s0)
    40001c0c:	701c                	ld	a5,32(s0)
    40001c0e:	0337f163          	bleu	s3,a5,40001c30 <load_elf+0x124>
    40001c12:	01843d03          	ld	s10,24(s0)
    40001c16:	40f989b3          	sub	s3,s3,a5
    40001c1a:	864e                	mv	a2,s3
    40001c1c:	9d3e                	add	s10,s10,a5
    40001c1e:	85ea                	mv	a1,s10
    40001c20:	8562                	mv	a0,s8
    40001c22:	262040ef          	jal	ra,40005e84 <printf>
    40001c26:	864e                	mv	a2,s3
    40001c28:	4581                	li	a1,0
    40001c2a:	856a                	mv	a0,s10
    40001c2c:	a7fff0ef          	jal	ra,400016aa <memset>
    40001c30:	2a05                	addiw	s4,s4,1
    40001c32:	03840413          	addi	s0,s0,56
    40001c36:	bf99                	j	40001b8c <load_elf+0x80>
    40001c38:	4785                	li	a5,1
    40001c3a:	853e                	mv	a0,a5
    40001c3c:	8082                	ret

0000000040001c3e <LD_DWORD>:
    40001c3e:	00154783          	lbu	a5,1(a0)
    40001c42:	00054703          	lbu	a4,0(a0)
    40001c46:	07a2                	slli	a5,a5,0x8
    40001c48:	8f5d                	or	a4,a4,a5
    40001c4a:	00254783          	lbu	a5,2(a0)
    40001c4e:	00354503          	lbu	a0,3(a0)
    40001c52:	07c2                	slli	a5,a5,0x10
    40001c54:	8fd9                	or	a5,a5,a4
    40001c56:	0562                	slli	a0,a0,0x18
    40001c58:	8d5d                	or	a0,a0,a5
    40001c5a:	2501                	sext.w	a0,a0
    40001c5c:	8082                	ret

0000000040001c5e <mem_cpy>:
    40001c5e:	57fd                	li	a5,-1
    40001c60:	367d                	addiw	a2,a2,-1
    40001c62:	00f61363          	bne	a2,a5,40001c68 <mem_cpy+0xa>
    40001c66:	8082                	ret
    40001c68:	0005c703          	lbu	a4,0(a1)
    40001c6c:	0505                	addi	a0,a0,1
    40001c6e:	0585                	addi	a1,a1,1
    40001c70:	fee50fa3          	sb	a4,-1(a0)
    40001c74:	b7f5                	j	40001c60 <mem_cpy+0x2>

0000000040001c76 <mem_set>:
    40001c76:	57fd                	li	a5,-1
    40001c78:	367d                	addiw	a2,a2,-1
    40001c7a:	00f61363          	bne	a2,a5,40001c80 <mem_set+0xa>
    40001c7e:	8082                	ret
    40001c80:	00b50023          	sb	a1,0(a0)
    40001c84:	0505                	addi	a0,a0,1
    40001c86:	bfcd                	j	40001c78 <mem_set+0x2>

0000000040001c88 <get_fileinfo>:
    40001c88:	495c                	lw	a5,20(a0)
    40001c8a:	1101                	addi	sp,sp,-32
    40001c8c:	e822                	sd	s0,16(sp)
    40001c8e:	ec06                	sd	ra,24(sp)
    40001c90:	e426                	sd	s1,8(sp)
    40001c92:	e04a                	sd	s2,0(sp)
    40001c94:	00958413          	addi	s0,a1,9
    40001c98:	cfa5                	beqz	a5,40001d10 <get_fileinfo+0x88>
    40001c9a:	01853903          	ld	s2,24(a0)
    40001c9e:	4781                	li	a5,0
    40001ca0:	02000513          	li	a0,32
    40001ca4:	86ca                	mv	a3,s2
    40001ca6:	4815                	li	a6,5
    40001ca8:	48a5                	li	a7,9
    40001caa:	02e00313          	li	t1,46
    40001cae:	462d                	li	a2,11
    40001cb0:	0006c703          	lbu	a4,0(a3)
    40001cb4:	2785                	addiw	a5,a5,1
    40001cb6:	00a70e63          	beq	a4,a0,40001cd2 <get_fileinfo+0x4a>
    40001cba:	01071463          	bne	a4,a6,40001cc2 <get_fileinfo+0x3a>
    40001cbe:	0e500713          	li	a4,229
    40001cc2:	01179563          	bne	a5,a7,40001ccc <get_fileinfo+0x44>
    40001cc6:	00640023          	sb	t1,0(s0)
    40001cca:	0405                	addi	s0,s0,1
    40001ccc:	00e40023          	sb	a4,0(s0)
    40001cd0:	0405                	addi	s0,s0,1
    40001cd2:	0685                	addi	a3,a3,1
    40001cd4:	fcc79ee3          	bne	a5,a2,40001cb0 <get_fileinfo+0x28>
    40001cd8:	00b94783          	lbu	a5,11(s2)
    40001cdc:	01c90513          	addi	a0,s2,28
    40001ce0:	84ae                	mv	s1,a1
    40001ce2:	00f58423          	sb	a5,8(a1)
    40001ce6:	f59ff0ef          	jal	ra,40001c3e <LD_DWORD>
    40001cea:	c088                	sw	a0,0(s1)
    40001cec:	01994783          	lbu	a5,25(s2)
    40001cf0:	01894703          	lbu	a4,24(s2)
    40001cf4:	0087979b          	slliw	a5,a5,0x8
    40001cf8:	8fd9                	or	a5,a5,a4
    40001cfa:	00f49223          	sh	a5,4(s1)
    40001cfe:	01794783          	lbu	a5,23(s2)
    40001d02:	01694703          	lbu	a4,22(s2)
    40001d06:	0087979b          	slliw	a5,a5,0x8
    40001d0a:	8fd9                	or	a5,a5,a4
    40001d0c:	00f49323          	sh	a5,6(s1)
    40001d10:	00040023          	sb	zero,0(s0)
    40001d14:	60e2                	ld	ra,24(sp)
    40001d16:	6442                	ld	s0,16(sp)
    40001d18:	64a2                	ld	s1,8(sp)
    40001d1a:	6902                	ld	s2,0(sp)
    40001d1c:	6105                	addi	sp,sp,32
    40001d1e:	8082                	ret

0000000040001d20 <get_ldnumber>:
    40001d20:	611c                	ld	a5,0(a0)
    40001d22:	873e                	mv	a4,a5
    40001d24:	cf99                	beqz	a5,40001d42 <get_ldnumber+0x22>
    40001d26:	02000593          	li	a1,32
    40001d2a:	03a00613          	li	a2,58
    40001d2e:	00074683          	lbu	a3,0(a4)
    40001d32:	02d5fc63          	bleu	a3,a1,40001d6a <get_ldnumber+0x4a>
    40001d36:	00c69863          	bne	a3,a2,40001d46 <get_ldnumber+0x26>
    40001d3a:	00178693          	addi	a3,a5,1
    40001d3e:	00d70663          	beq	a4,a3,40001d4a <get_ldnumber+0x2a>
    40001d42:	577d                	li	a4,-1
    40001d44:	a00d                	j	40001d66 <get_ldnumber+0x46>
    40001d46:	0705                	addi	a4,a4,1
    40001d48:	b7dd                	j	40001d2e <get_ldnumber+0xe>
    40001d4a:	0007c683          	lbu	a3,0(a5)
    40001d4e:	4605                	li	a2,1
    40001d50:	577d                	li	a4,-1
    40001d52:	fd06869b          	addiw	a3,a3,-48
    40001d56:	0ff6f593          	andi	a1,a3,255
    40001d5a:	00b66663          	bltu	a2,a1,40001d66 <get_ldnumber+0x46>
    40001d5e:	0789                	addi	a5,a5,2
    40001d60:	0006871b          	sext.w	a4,a3
    40001d64:	e11c                	sd	a5,0(a0)
    40001d66:	853a                	mv	a0,a4
    40001d68:	8082                	ret
    40001d6a:	00006717          	auipc	a4,0x6
    40001d6e:	ffa74703          	lbu	a4,-6(a4) # 40007d64 <CurrVol>
    40001d72:	bfd5                	j	40001d66 <get_ldnumber+0x46>

0000000040001d74 <validate>:
    40001d74:	c915                	beqz	a0,40001da8 <validate+0x34>
    40001d76:	611c                	ld	a5,0(a0)
    40001d78:	cb85                	beqz	a5,40001da8 <validate+0x34>
    40001d7a:	0007c703          	lbu	a4,0(a5)
    40001d7e:	c70d                	beqz	a4,40001da8 <validate+0x34>
    40001d80:	0067d683          	lhu	a3,6(a5)
    40001d84:	00855703          	lhu	a4,8(a0)
    40001d88:	02e69063          	bne	a3,a4,40001da8 <validate+0x34>
    40001d8c:	1141                	addi	sp,sp,-16
    40001d8e:	e406                	sd	ra,8(sp)
    40001d90:	0017c503          	lbu	a0,1(a5)
    40001d94:	29d040ef          	jal	ra,40006830 <disk_status>
    40001d98:	00157793          	andi	a5,a0,1
    40001d9c:	4501                	li	a0,0
    40001d9e:	c391                	beqz	a5,40001da2 <validate+0x2e>
    40001da0:	4525                	li	a0,9
    40001da2:	60a2                	ld	ra,8(sp)
    40001da4:	0141                	addi	sp,sp,16
    40001da6:	8082                	ret
    40001da8:	4525                	li	a0,9
    40001daa:	8082                	ret

0000000040001dac <ld_clust.isra.0>:
    40001dac:	01b5c783          	lbu	a5,27(a1)
    40001db0:	01a5c703          	lbu	a4,26(a1)
    40001db4:	468d                	li	a3,3
    40001db6:	0087979b          	slliw	a5,a5,0x8
    40001dba:	8f5d                	or	a4,a4,a5
    40001dbc:	0007079b          	sext.w	a5,a4
    40001dc0:	00d51d63          	bne	a0,a3,40001dda <ld_clust.isra.0+0x2e>
    40001dc4:	0155c783          	lbu	a5,21(a1)
    40001dc8:	0145c683          	lbu	a3,20(a1)
    40001dcc:	0087979b          	slliw	a5,a5,0x8
    40001dd0:	8fd5                	or	a5,a5,a3
    40001dd2:	0107979b          	slliw	a5,a5,0x10
    40001dd6:	8fd9                	or	a5,a5,a4
    40001dd8:	2781                	sext.w	a5,a5
    40001dda:	853e                	mv	a0,a5
    40001ddc:	8082                	ret

0000000040001dde <sync_window.part.2>:
    40001dde:	7179                	addi	sp,sp,-48
    40001de0:	f022                	sd	s0,32(sp)
    40001de2:	ec26                	sd	s1,24(sp)
    40001de4:	e44e                	sd	s3,8(sp)
    40001de6:	5904                	lw	s1,48(a0)
    40001de8:	f406                	sd	ra,40(sp)
    40001dea:	e84a                	sd	s2,16(sp)
    40001dec:	e052                	sd	s4,0(sp)
    40001dee:	03450993          	addi	s3,a0,52
    40001df2:	842a                	mv	s0,a0
    40001df4:	00154503          	lbu	a0,1(a0)
    40001df8:	4685                	li	a3,1
    40001dfa:	8626                	mv	a2,s1
    40001dfc:	85ce                	mv	a1,s3
    40001dfe:	2a7040ef          	jal	ra,400068a4 <disk_write>
    40001e02:	2501                	sext.w	a0,a0
    40001e04:	e131                	bnez	a0,40001e48 <sync_window.part.2+0x6a>
    40001e06:	505c                	lw	a5,36(s0)
    40001e08:	4c58                	lw	a4,28(s0)
    40001e0a:	00040223          	sb	zero,4(s0)
    40001e0e:	40f487bb          	subw	a5,s1,a5
    40001e12:	00e7eb63          	bltu	a5,a4,40001e28 <sync_window.part.2+0x4a>
    40001e16:	4501                	li	a0,0
    40001e18:	70a2                	ld	ra,40(sp)
    40001e1a:	7402                	ld	s0,32(sp)
    40001e1c:	64e2                	ld	s1,24(sp)
    40001e1e:	6942                	ld	s2,16(sp)
    40001e20:	69a2                	ld	s3,8(sp)
    40001e22:	6a02                	ld	s4,0(sp)
    40001e24:	6145                	addi	sp,sp,48
    40001e26:	8082                	ret
    40001e28:	00344903          	lbu	s2,3(s0)
    40001e2c:	4a05                	li	s4,1
    40001e2e:	ff2a74e3          	bleu	s2,s4,40001e16 <sync_window.part.2+0x38>
    40001e32:	4c5c                	lw	a5,28(s0)
    40001e34:	00144503          	lbu	a0,1(s0)
    40001e38:	4685                	li	a3,1
    40001e3a:	9cbd                	addw	s1,s1,a5
    40001e3c:	8626                	mv	a2,s1
    40001e3e:	85ce                	mv	a1,s3
    40001e40:	265040ef          	jal	ra,400068a4 <disk_write>
    40001e44:	397d                	addiw	s2,s2,-1
    40001e46:	b7e5                	j	40001e2e <sync_window.part.2+0x50>
    40001e48:	4505                	li	a0,1
    40001e4a:	b7f9                	j	40001e18 <sync_window.part.2+0x3a>

0000000040001e4c <sync_window>:
    40001e4c:	00454783          	lbu	a5,4(a0)
    40001e50:	c399                	beqz	a5,40001e56 <sync_window+0xa>
    40001e52:	f8dff06f          	j	40001dde <sync_window.part.2>
    40001e56:	4501                	li	a0,0
    40001e58:	8082                	ret

0000000040001e5a <move_window>:
    40001e5a:	591c                	lw	a5,48(a0)
    40001e5c:	1101                	addi	sp,sp,-32
    40001e5e:	e822                	sd	s0,16(sp)
    40001e60:	ec06                	sd	ra,24(sp)
    40001e62:	e426                	sd	s1,8(sp)
    40001e64:	e04a                	sd	s2,0(sp)
    40001e66:	4401                	li	s0,0
    40001e68:	02b78763          	beq	a5,a1,40001e96 <move_window+0x3c>
    40001e6c:	84aa                	mv	s1,a0
    40001e6e:	892e                	mv	s2,a1
    40001e70:	fddff0ef          	jal	ra,40001e4c <sync_window>
    40001e74:	0005041b          	sext.w	s0,a0
    40001e78:	ec19                	bnez	s0,40001e96 <move_window+0x3c>
    40001e7a:	0014c503          	lbu	a0,1(s1)
    40001e7e:	4685                	li	a3,1
    40001e80:	864a                	mv	a2,s2
    40001e82:	03448593          	addi	a1,s1,52
    40001e86:	1bb040ef          	jal	ra,40006840 <disk_read>
    40001e8a:	2501                	sext.w	a0,a0
    40001e8c:	c119                	beqz	a0,40001e92 <move_window+0x38>
    40001e8e:	4405                	li	s0,1
    40001e90:	597d                	li	s2,-1
    40001e92:	0324a823          	sw	s2,48(s1)
    40001e96:	8522                	mv	a0,s0
    40001e98:	60e2                	ld	ra,24(sp)
    40001e9a:	6442                	ld	s0,16(sp)
    40001e9c:	64a2                	ld	s1,8(sp)
    40001e9e:	6902                	ld	s2,0(sp)
    40001ea0:	6105                	addi	sp,sp,32
    40001ea2:	8082                	ret

0000000040001ea4 <check_fs>:
    40001ea4:	1101                	addi	sp,sp,-32
    40001ea6:	e822                	sd	s0,16(sp)
    40001ea8:	ec06                	sd	ra,24(sp)
    40001eaa:	e426                	sd	s1,8(sp)
    40001eac:	e04a                	sd	s2,0(sp)
    40001eae:	57fd                	li	a5,-1
    40001eb0:	00050223          	sb	zero,4(a0)
    40001eb4:	d91c                	sw	a5,48(a0)
    40001eb6:	842a                	mv	s0,a0
    40001eb8:	fa3ff0ef          	jal	ra,40001e5a <move_window>
    40001ebc:	2501                	sext.w	a0,a0
    40001ebe:	e52d                	bnez	a0,40001f28 <check_fs+0x84>
    40001ec0:	23344783          	lbu	a5,563(s0)
    40001ec4:	23244703          	lbu	a4,562(s0)
    40001ec8:	4509                	li	a0,2
    40001eca:	0087979b          	slliw	a5,a5,0x8
    40001ece:	8fd9                	or	a5,a5,a4
    40001ed0:	0107979b          	slliw	a5,a5,0x10
    40001ed4:	776d                	lui	a4,0xffffb
    40001ed6:	4107d79b          	sraiw	a5,a5,0x10
    40001eda:	a5570713          	addi	a4,a4,-1451 # ffffffffffffaa55 <_end+0xffffffffbfff1ec5>
    40001ede:	02f71f63          	bne	a4,a5,40001f1c <check_fs+0x78>
    40001ee2:	06a40513          	addi	a0,s0,106
    40001ee6:	d59ff0ef          	jal	ra,40001c3e <LD_DWORD>
    40001eea:	0005079b          	sext.w	a5,a0
    40001eee:	01000537          	lui	a0,0x1000
    40001ef2:	fff50913          	addi	s2,a0,-1 # ffffff <_tbss_end+0xffffff>
    40001ef6:	00544537          	lui	a0,0x544
    40001efa:	14650493          	addi	s1,a0,326 # 544146 <_tbss_end+0x544146>
    40001efe:	0127f7b3          	and	a5,a5,s2
    40001f02:	4501                	li	a0,0
    40001f04:	00978c63          	beq	a5,s1,40001f1c <check_fs+0x78>
    40001f08:	08640513          	addi	a0,s0,134
    40001f0c:	d33ff0ef          	jal	ra,40001c3e <LD_DWORD>
    40001f10:	2501                	sext.w	a0,a0
    40001f12:	01257533          	and	a0,a0,s2
    40001f16:	8d05                	sub	a0,a0,s1
    40001f18:	00a03533          	snez	a0,a0
    40001f1c:	60e2                	ld	ra,24(sp)
    40001f1e:	6442                	ld	s0,16(sp)
    40001f20:	64a2                	ld	s1,8(sp)
    40001f22:	6902                	ld	s2,0(sp)
    40001f24:	6105                	addi	sp,sp,32
    40001f26:	8082                	ret
    40001f28:	450d                	li	a0,3
    40001f2a:	bfcd                	j	40001f1c <check_fs+0x78>

0000000040001f2c <find_volume>:
    40001f2c:	715d                	addi	sp,sp,-80
    40001f2e:	f84a                	sd	s2,48(sp)
    40001f30:	f44e                	sd	s3,40(sp)
    40001f32:	e486                	sd	ra,72(sp)
    40001f34:	e0a2                	sd	s0,64(sp)
    40001f36:	fc26                	sd	s1,56(sp)
    40001f38:	f052                	sd	s4,32(sp)
    40001f3a:	ec56                	sd	s5,24(sp)
    40001f3c:	e85a                	sd	s6,16(sp)
    40001f3e:	00053023          	sd	zero,0(a0)
    40001f42:	89aa                	mv	s3,a0
    40001f44:	852e                	mv	a0,a1
    40001f46:	8932                	mv	s2,a2
    40001f48:	dd9ff0ef          	jal	ra,40001d20 <get_ldnumber>
    40001f4c:	47ad                	li	a5,11
    40001f4e:	02054e63          	bltz	a0,40001f8a <find_volume+0x5e>
    40001f52:	00351713          	slli	a4,a0,0x3
    40001f56:	00007797          	auipc	a5,0x7
    40001f5a:	97278793          	addi	a5,a5,-1678 # 400088c8 <FatFs>
    40001f5e:	97ba                	add	a5,a5,a4
    40001f60:	6380                	ld	s0,0(a5)
    40001f62:	84aa                	mv	s1,a0
    40001f64:	47b1                	li	a5,12
    40001f66:	c015                	beqz	s0,40001f8a <find_volume+0x5e>
    40001f68:	0089b023          	sd	s0,0(s3)
    40001f6c:	00044783          	lbu	a5,0(s0)
    40001f70:	cb85                	beqz	a5,40001fa0 <find_volume+0x74>
    40001f72:	00144503          	lbu	a0,1(s0)
    40001f76:	0bb040ef          	jal	ra,40006830 <disk_status>
    40001f7a:	00157793          	andi	a5,a0,1
    40001f7e:	e38d                	bnez	a5,40001fa0 <find_volume+0x74>
    40001f80:	00090563          	beqz	s2,40001f8a <find_volume+0x5e>
    40001f84:	8911                	andi	a0,a0,4
    40001f86:	c111                	beqz	a0,40001f8a <find_volume+0x5e>
    40001f88:	47a9                	li	a5,10
    40001f8a:	60a6                	ld	ra,72(sp)
    40001f8c:	6406                	ld	s0,64(sp)
    40001f8e:	74e2                	ld	s1,56(sp)
    40001f90:	7942                	ld	s2,48(sp)
    40001f92:	79a2                	ld	s3,40(sp)
    40001f94:	7a02                	ld	s4,32(sp)
    40001f96:	6ae2                	ld	s5,24(sp)
    40001f98:	6b42                	ld	s6,16(sp)
    40001f9a:	853e                	mv	a0,a5
    40001f9c:	6161                	addi	sp,sp,80
    40001f9e:	8082                	ret
    40001fa0:	0ff4f513          	andi	a0,s1,255
    40001fa4:	00040023          	sb	zero,0(s0)
    40001fa8:	00a400a3          	sb	a0,1(s0)
    40001fac:	047040ef          	jal	ra,400067f2 <disk_initialize>
    40001fb0:	00157713          	andi	a4,a0,1
    40001fb4:	478d                	li	a5,3
    40001fb6:	fb71                	bnez	a4,40001f8a <find_volume+0x5e>
    40001fb8:	00090463          	beqz	s2,40001fc0 <find_volume+0x94>
    40001fbc:	8911                	andi	a0,a0,4
    40001fbe:	f569                	bnez	a0,40001f88 <find_volume+0x5c>
    40001fc0:	4581                	li	a1,0
    40001fc2:	8522                	mv	a0,s0
    40001fc4:	ee1ff0ef          	jal	ra,40001ea4 <check_fs>
    40001fc8:	4785                	li	a5,1
    40001fca:	04f51a63          	bne	a0,a5,4000201e <find_volume+0xf2>
    40001fce:	848a                	mv	s1,sp
    40001fd0:	1fa40913          	addi	s2,s0,506
    40001fd4:	23a40a13          	addi	s4,s0,570
    40001fd8:	89a6                	mv	s3,s1
    40001fda:	ffc94783          	lbu	a5,-4(s2)
    40001fde:	4501                	li	a0,0
    40001fe0:	c789                	beqz	a5,40001fea <find_volume+0xbe>
    40001fe2:	854a                	mv	a0,s2
    40001fe4:	c5bff0ef          	jal	ra,40001c3e <LD_DWORD>
    40001fe8:	2501                	sext.w	a0,a0
    40001fea:	00a9a023          	sw	a0,0(s3)
    40001fee:	0941                	addi	s2,s2,16
    40001ff0:	0991                	addi	s3,s3,4
    40001ff2:	ff2a14e3          	bne	s4,s2,40001fda <find_volume+0xae>
    40001ff6:	01048913          	addi	s2,s1,16
    40001ffa:	0004aa83          	lw	s5,0(s1)
    40001ffe:	4509                	li	a0,2
    40002000:	000a8763          	beqz	s5,4000200e <find_volume+0xe2>
    40002004:	85d6                	mv	a1,s5
    40002006:	8522                	mv	a0,s0
    40002008:	e9dff0ef          	jal	ra,40001ea4 <check_fs>
    4000200c:	c10d                	beqz	a0,4000202e <find_volume+0x102>
    4000200e:	0491                	addi	s1,s1,4
    40002010:	fe9915e3          	bne	s2,s1,40001ffa <find_volume+0xce>
    40002014:	470d                	li	a4,3
    40002016:	4785                	li	a5,1
    40002018:	00e51963          	bne	a0,a4,4000202a <find_volume+0xfe>
    4000201c:	b7bd                	j	40001f8a <find_volume+0x5e>
    4000201e:	470d                	li	a4,3
    40002020:	4785                	li	a5,1
    40002022:	f6e504e3          	beq	a0,a4,40001f8a <find_volume+0x5e>
    40002026:	4a81                	li	s5,0
    40002028:	c119                	beqz	a0,4000202e <find_volume+0x102>
    4000202a:	47b5                	li	a5,13
    4000202c:	bfb9                	j	40001f8a <find_volume+0x5e>
    4000202e:	04044783          	lbu	a5,64(s0)
    40002032:	03f44703          	lbu	a4,63(s0)
    40002036:	0087979b          	slliw	a5,a5,0x8
    4000203a:	8fd9                	or	a5,a5,a4
    4000203c:	0107979b          	slliw	a5,a5,0x10
    40002040:	4107d79b          	sraiw	a5,a5,0x10
    40002044:	20000713          	li	a4,512
    40002048:	fef711e3          	bne	a4,a5,4000202a <find_volume+0xfe>
    4000204c:	04b44983          	lbu	s3,75(s0)
    40002050:	04a44783          	lbu	a5,74(s0)
    40002054:	0089999b          	slliw	s3,s3,0x8
    40002058:	00f9e9b3          	or	s3,s3,a5
    4000205c:	1a098663          	beqz	s3,40002208 <find_volume+0x2dc>
    40002060:	2981                	sext.w	s3,s3
    40002062:	04444903          	lbu	s2,68(s0)
    40002066:	01342e23          	sw	s3,28(s0)
    4000206a:	4705                	li	a4,1
    4000206c:	fff9079b          	addiw	a5,s2,-1
    40002070:	012401a3          	sb	s2,3(s0)
    40002074:	0ff7f793          	andi	a5,a5,255
    40002078:	faf769e3          	bltu	a4,a5,4000202a <find_volume+0xfe>
    4000207c:	04144b03          	lbu	s6,65(s0)
    40002080:	01640123          	sb	s6,2(s0)
    40002084:	fa0b03e3          	beqz	s6,4000202a <find_volume+0xfe>
    40002088:	fffb079b          	addiw	a5,s6,-1
    4000208c:	00fb77b3          	and	a5,s6,a5
    40002090:	ffc9                	bnez	a5,4000202a <find_volume+0xfe>
    40002092:	04644a03          	lbu	s4,70(s0)
    40002096:	04544783          	lbu	a5,69(s0)
    4000209a:	008a1a1b          	slliw	s4,s4,0x8
    4000209e:	00fa6a33          	or	s4,s4,a5
    400020a2:	01441423          	sh	s4,8(s0)
    400020a6:	00fa7793          	andi	a5,s4,15
    400020aa:	f3c1                	bnez	a5,4000202a <find_volume+0xfe>
    400020ac:	04844503          	lbu	a0,72(s0)
    400020b0:	04744483          	lbu	s1,71(s0)
    400020b4:	0085151b          	slliw	a0,a0,0x8
    400020b8:	8d45                	or	a0,a0,s1
    400020ba:	14050e63          	beqz	a0,40002216 <find_volume+0x2ea>
    400020be:	04344783          	lbu	a5,67(s0)
    400020c2:	04244703          	lbu	a4,66(s0)
    400020c6:	2501                	sext.w	a0,a0
    400020c8:	0087979b          	slliw	a5,a5,0x8
    400020cc:	8fd9                	or	a5,a5,a4
    400020ce:	dfb1                	beqz	a5,4000202a <find_volume+0xfe>
    400020d0:	033906bb          	mulw	a3,s2,s3
    400020d4:	2781                	sext.w	a5,a5
    400020d6:	004a571b          	srliw	a4,s4,0x4
    400020da:	9f3d                	addw	a4,a4,a5
    400020dc:	00d7063b          	addw	a2,a4,a3
    400020e0:	8732                	mv	a4,a2
    400020e2:	f4c564e3          	bltu	a0,a2,4000202a <find_volume+0xfe>
    400020e6:	40c504bb          	subw	s1,a0,a2
    400020ea:	0364d5bb          	divuw	a1,s1,s6
    400020ee:	84ae                	mv	s1,a1
    400020f0:	dd8d                	beqz	a1,4000202a <find_volume+0xfe>
    400020f2:	6905                	lui	s2,0x1
    400020f4:	1955                	addi	s2,s2,-11
    400020f6:	6641                	lui	a2,0x10
    400020f8:	00b93933          	sltu	s2,s2,a1
    400020fc:	1655                	addi	a2,a2,-11
    400020fe:	0905                	addi	s2,s2,1
    40002100:	00b67363          	bleu	a1,a2,40002106 <find_volume+0x1da>
    40002104:	490d                	li	s2,3
    40002106:	00ea873b          	addw	a4,s5,a4
    4000210a:	2489                	addiw	s1,s1,2
    4000210c:	015787bb          	addw	a5,a5,s5
    40002110:	d458                	sw	a4,44(s0)
    40002112:	cc04                	sw	s1,24(s0)
    40002114:	03542023          	sw	s5,32(s0)
    40002118:	d05c                	sw	a5,36(s0)
    4000211a:	470d                	li	a4,3
    4000211c:	10e91263          	bne	s2,a4,40002220 <find_volume+0x2f4>
    40002120:	f00a15e3          	bnez	s4,4000202a <find_volume+0xfe>
    40002124:	06040513          	addi	a0,s0,96
    40002128:	b17ff0ef          	jal	ra,40001c3e <LD_DWORD>
    4000212c:	d408                	sw	a0,40(s0)
    4000212e:	0024949b          	slliw	s1,s1,0x2
    40002132:	1ff4849b          	addiw	s1,s1,511
    40002136:	0094d49b          	srliw	s1,s1,0x9
    4000213a:	2481                	sext.w	s1,s1
    4000213c:	ee99e7e3          	bltu	s3,s1,4000202a <find_volume+0xfe>
    40002140:	57fd                	li	a5,-1
    40002142:	c81c                	sw	a5,16(s0)
    40002144:	c45c                	sw	a5,12(s0)
    40002146:	f8000793          	li	a5,-128
    4000214a:	00f402a3          	sb	a5,5(s0)
    4000214e:	478d                	li	a5,3
    40002150:	08f91963          	bne	s2,a5,400021e2 <find_volume+0x2b6>
    40002154:	06544783          	lbu	a5,101(s0)
    40002158:	06444703          	lbu	a4,100(s0)
    4000215c:	0087979b          	slliw	a5,a5,0x8
    40002160:	8fd9                	or	a5,a5,a4
    40002162:	0107979b          	slliw	a5,a5,0x10
    40002166:	4107d79b          	sraiw	a5,a5,0x10
    4000216a:	4705                	li	a4,1
    4000216c:	06f71b63          	bne	a4,a5,400021e2 <find_volume+0x2b6>
    40002170:	001a859b          	addiw	a1,s5,1
    40002174:	8522                	mv	a0,s0
    40002176:	ce5ff0ef          	jal	ra,40001e5a <move_window>
    4000217a:	2501                	sext.w	a0,a0
    4000217c:	e13d                	bnez	a0,400021e2 <find_volume+0x2b6>
    4000217e:	23344783          	lbu	a5,563(s0)
    40002182:	23244703          	lbu	a4,562(s0)
    40002186:	000402a3          	sb	zero,5(s0)
    4000218a:	0087979b          	slliw	a5,a5,0x8
    4000218e:	8fd9                	or	a5,a5,a4
    40002190:	0107979b          	slliw	a5,a5,0x10
    40002194:	776d                	lui	a4,0xffffb
    40002196:	4107d79b          	sraiw	a5,a5,0x10
    4000219a:	a5570713          	addi	a4,a4,-1451 # ffffffffffffaa55 <_end+0xffffffffbfff1ec5>
    4000219e:	04f71263          	bne	a4,a5,400021e2 <find_volume+0x2b6>
    400021a2:	03440513          	addi	a0,s0,52
    400021a6:	a99ff0ef          	jal	ra,40001c3e <LD_DWORD>
    400021aa:	416157b7          	lui	a5,0x41615
    400021ae:	2501                	sext.w	a0,a0
    400021b0:	25278793          	addi	a5,a5,594 # 41615252 <_end+0x160c6c2>
    400021b4:	02f51763          	bne	a0,a5,400021e2 <find_volume+0x2b6>
    400021b8:	21840513          	addi	a0,s0,536
    400021bc:	a83ff0ef          	jal	ra,40001c3e <LD_DWORD>
    400021c0:	614177b7          	lui	a5,0x61417
    400021c4:	2501                	sext.w	a0,a0
    400021c6:	27278793          	addi	a5,a5,626 # 61417272 <_end+0x2140e6e2>
    400021ca:	00f51c63          	bne	a0,a5,400021e2 <find_volume+0x2b6>
    400021ce:	21c40513          	addi	a0,s0,540
    400021d2:	a6dff0ef          	jal	ra,40001c3e <LD_DWORD>
    400021d6:	c808                	sw	a0,16(s0)
    400021d8:	22040513          	addi	a0,s0,544
    400021dc:	a63ff0ef          	jal	ra,40001c3e <LD_DWORD>
    400021e0:	c448                	sw	a0,12(s0)
    400021e2:	00006797          	auipc	a5,0x6
    400021e6:	b847d783          	lhu	a5,-1148(a5) # 40007d66 <Fsid>
    400021ea:	2785                	addiw	a5,a5,1
    400021ec:	17c2                	slli	a5,a5,0x30
    400021ee:	93c1                	srli	a5,a5,0x30
    400021f0:	00006717          	auipc	a4,0x6
    400021f4:	b6f71b23          	sh	a5,-1162(a4) # 40007d66 <Fsid>
    400021f8:	00f41323          	sh	a5,6(s0)
    400021fc:	01240023          	sb	s2,0(s0)
    40002200:	00042a23          	sw	zero,20(s0)
    40002204:	4781                	li	a5,0
    40002206:	b351                	j	40001f8a <find_volume+0x5e>
    40002208:	05840513          	addi	a0,s0,88
    4000220c:	a33ff0ef          	jal	ra,40001c3e <LD_DWORD>
    40002210:	0005099b          	sext.w	s3,a0
    40002214:	b5b9                	j	40002062 <find_volume+0x136>
    40002216:	05440513          	addi	a0,s0,84
    4000221a:	a25ff0ef          	jal	ra,40001c3e <LD_DWORD>
    4000221e:	b545                	j	400020be <find_volume+0x192>
    40002220:	e00a05e3          	beqz	s4,4000202a <find_volume+0xfe>
    40002224:	9fb5                	addw	a5,a5,a3
    40002226:	d41c                	sw	a5,40(s0)
    40002228:	4789                	li	a5,2
    4000222a:	00f91563          	bne	s2,a5,40002234 <find_volume+0x308>
    4000222e:	0014949b          	slliw	s1,s1,0x1
    40002232:	b701                	j	40002132 <find_volume+0x206>
    40002234:	478d                	li	a5,3
    40002236:	029787bb          	mulw	a5,a5,s1
    4000223a:	8885                	andi	s1,s1,1
    4000223c:	0017d79b          	srliw	a5,a5,0x1
    40002240:	9cbd                	addw	s1,s1,a5
    40002242:	bdc5                	j	40002132 <find_volume+0x206>

0000000040002244 <sync_fs>:
    40002244:	1101                	addi	sp,sp,-32
    40002246:	e822                	sd	s0,16(sp)
    40002248:	ec06                	sd	ra,24(sp)
    4000224a:	e426                	sd	s1,8(sp)
    4000224c:	842a                	mv	s0,a0
    4000224e:	bffff0ef          	jal	ra,40001e4c <sync_window>
    40002252:	2501                	sext.w	a0,a0
    40002254:	ed69                	bnez	a0,4000232e <sync_fs+0xea>
    40002256:	00044703          	lbu	a4,0(s0)
    4000225a:	478d                	li	a5,3
    4000225c:	0cf71063          	bne	a4,a5,4000231c <sync_fs+0xd8>
    40002260:	00544703          	lbu	a4,5(s0)
    40002264:	4785                	li	a5,1
    40002266:	0af71b63          	bne	a4,a5,4000231c <sync_fs+0xd8>
    4000226a:	03440493          	addi	s1,s0,52
    4000226e:	20000613          	li	a2,512
    40002272:	4581                	li	a1,0
    40002274:	8526                	mv	a0,s1
    40002276:	a01ff0ef          	jal	ra,40001c76 <mem_set>
    4000227a:	05500793          	li	a5,85
    4000227e:	22f40923          	sb	a5,562(s0)
    40002282:	faa00793          	li	a5,-86
    40002286:	22f409a3          	sb	a5,563(s0)
    4000228a:	05200793          	li	a5,82
    4000228e:	02f40a23          	sb	a5,52(s0)
    40002292:	02f40aa3          	sb	a5,53(s0)
    40002296:	06100793          	li	a5,97
    4000229a:	02f40b23          	sb	a5,54(s0)
    4000229e:	20f40da3          	sb	a5,539(s0)
    400022a2:	481c                	lw	a5,16(s0)
    400022a4:	04100713          	li	a4,65
    400022a8:	02e40ba3          	sb	a4,55(s0)
    400022ac:	20e40d23          	sb	a4,538(s0)
    400022b0:	0107971b          	slliw	a4,a5,0x10
    400022b4:	0107571b          	srliw	a4,a4,0x10
    400022b8:	0087571b          	srliw	a4,a4,0x8
    400022bc:	20f40e23          	sb	a5,540(s0)
    400022c0:	20e40ea3          	sb	a4,541(s0)
    400022c4:	0107d71b          	srliw	a4,a5,0x10
    400022c8:	0187d79b          	srliw	a5,a5,0x18
    400022cc:	20f40fa3          	sb	a5,543(s0)
    400022d0:	445c                	lw	a5,12(s0)
    400022d2:	20e40f23          	sb	a4,542(s0)
    400022d6:	5010                	lw	a2,32(s0)
    400022d8:	0107971b          	slliw	a4,a5,0x10
    400022dc:	0107571b          	srliw	a4,a4,0x10
    400022e0:	0087571b          	srliw	a4,a4,0x8
    400022e4:	00144503          	lbu	a0,1(s0)
    400022e8:	07200693          	li	a3,114
    400022ec:	22f40023          	sb	a5,544(s0)
    400022f0:	22e400a3          	sb	a4,545(s0)
    400022f4:	2605                	addiw	a2,a2,1
    400022f6:	0107d71b          	srliw	a4,a5,0x10
    400022fa:	0187d79b          	srliw	a5,a5,0x18
    400022fe:	20d40c23          	sb	a3,536(s0)
    40002302:	20d40ca3          	sb	a3,537(s0)
    40002306:	22e40123          	sb	a4,546(s0)
    4000230a:	22f401a3          	sb	a5,547(s0)
    4000230e:	d810                	sw	a2,48(s0)
    40002310:	4685                	li	a3,1
    40002312:	85a6                	mv	a1,s1
    40002314:	590040ef          	jal	ra,400068a4 <disk_write>
    40002318:	000402a3          	sb	zero,5(s0)
    4000231c:	00144503          	lbu	a0,1(s0)
    40002320:	4601                	li	a2,0
    40002322:	4581                	li	a1,0
    40002324:	640040ef          	jal	ra,40006964 <disk_ioctl>
    40002328:	2501                	sext.w	a0,a0
    4000232a:	00a03533          	snez	a0,a0
    4000232e:	60e2                	ld	ra,24(sp)
    40002330:	6442                	ld	s0,16(sp)
    40002332:	64a2                	ld	s1,8(sp)
    40002334:	6105                	addi	sp,sp,32
    40002336:	8082                	ret

0000000040002338 <clust2sect>:
    40002338:	4d1c                	lw	a5,24(a0)
    4000233a:	ffe5869b          	addiw	a3,a1,-2
    4000233e:	37f9                	addiw	a5,a5,-2
    40002340:	00f6f963          	bleu	a5,a3,40002352 <clust2sect+0x1a>
    40002344:	00254583          	lbu	a1,2(a0)
    40002348:	5548                	lw	a0,44(a0)
    4000234a:	02d585bb          	mulw	a1,a1,a3
    4000234e:	9d2d                	addw	a0,a0,a1
    40002350:	8082                	ret
    40002352:	4501                	li	a0,0
    40002354:	8082                	ret

0000000040002356 <get_fat>:
    40002356:	4785                	li	a5,1
    40002358:	0eb7f763          	bleu	a1,a5,40002446 <get_fat+0xf0>
    4000235c:	4d18                	lw	a4,24(a0)
    4000235e:	7179                	addi	sp,sp,-48
    40002360:	e84a                	sd	s2,16(sp)
    40002362:	f406                	sd	ra,40(sp)
    40002364:	f022                	sd	s0,32(sp)
    40002366:	ec26                	sd	s1,24(sp)
    40002368:	e44e                	sd	s3,8(sp)
    4000236a:	892a                	mv	s2,a0
    4000236c:	02e5f963          	bleu	a4,a1,4000239e <get_fat+0x48>
    40002370:	00054703          	lbu	a4,0(a0)
    40002374:	4689                	li	a3,2
    40002376:	842e                	mv	s0,a1
    40002378:	06d70c63          	beq	a4,a3,400023f0 <get_fat+0x9a>
    4000237c:	468d                	li	a3,3
    4000237e:	08d70e63          	beq	a4,a3,4000241a <get_fat+0xc4>
    40002382:	00f71e63          	bne	a4,a5,4000239e <get_fat+0x48>
    40002386:	0015d49b          	srliw	s1,a1,0x1
    4000238a:	515c                	lw	a5,36(a0)
    4000238c:	9cad                	addw	s1,s1,a1
    4000238e:	0094d59b          	srliw	a1,s1,0x9
    40002392:	9dbd                	addw	a1,a1,a5
    40002394:	ac7ff0ef          	jal	ra,40001e5a <move_window>
    40002398:	2501                	sext.w	a0,a0
    4000239a:	c911                	beqz	a0,400023ae <get_fat+0x58>
    4000239c:	57fd                	li	a5,-1
    4000239e:	70a2                	ld	ra,40(sp)
    400023a0:	7402                	ld	s0,32(sp)
    400023a2:	64e2                	ld	s1,24(sp)
    400023a4:	6942                	ld	s2,16(sp)
    400023a6:	69a2                	ld	s3,8(sp)
    400023a8:	853e                	mv	a0,a5
    400023aa:	6145                	addi	sp,sp,48
    400023ac:	8082                	ret
    400023ae:	02492783          	lw	a5,36(s2) # 1024 <_tbss_end+0x1024>
    400023b2:	0014899b          	addiw	s3,s1,1
    400023b6:	0099d59b          	srliw	a1,s3,0x9
    400023ba:	1ff4f493          	andi	s1,s1,511
    400023be:	94ca                	add	s1,s1,s2
    400023c0:	9dbd                	addw	a1,a1,a5
    400023c2:	854a                	mv	a0,s2
    400023c4:	0344c483          	lbu	s1,52(s1)
    400023c8:	a93ff0ef          	jal	ra,40001e5a <move_window>
    400023cc:	2501                	sext.w	a0,a0
    400023ce:	f579                	bnez	a0,4000239c <get_fat+0x46>
    400023d0:	1ff9f993          	andi	s3,s3,511
    400023d4:	994e                	add	s2,s2,s3
    400023d6:	03494783          	lbu	a5,52(s2)
    400023da:	8805                	andi	s0,s0,1
    400023dc:	0087979b          	slliw	a5,a5,0x8
    400023e0:	8fc5                	or	a5,a5,s1
    400023e2:	c019                	beqz	s0,400023e8 <get_fat+0x92>
    400023e4:	8391                	srli	a5,a5,0x4
    400023e6:	bf65                	j	4000239e <get_fat+0x48>
    400023e8:	6505                	lui	a0,0x1
    400023ea:	157d                	addi	a0,a0,-1
    400023ec:	8fe9                	and	a5,a5,a0
    400023ee:	bf45                	j	4000239e <get_fat+0x48>
    400023f0:	515c                	lw	a5,36(a0)
    400023f2:	0085d59b          	srliw	a1,a1,0x8
    400023f6:	9dbd                	addw	a1,a1,a5
    400023f8:	a63ff0ef          	jal	ra,40001e5a <move_window>
    400023fc:	2501                	sext.w	a0,a0
    400023fe:	fd59                	bnez	a0,4000239c <get_fat+0x46>
    40002400:	0014141b          	slliw	s0,s0,0x1
    40002404:	1fe47413          	andi	s0,s0,510
    40002408:	9922                	add	s2,s2,s0
    4000240a:	03594783          	lbu	a5,53(s2)
    4000240e:	03494503          	lbu	a0,52(s2)
    40002412:	0087979b          	slliw	a5,a5,0x8
    40002416:	8fc9                	or	a5,a5,a0
    40002418:	b759                	j	4000239e <get_fat+0x48>
    4000241a:	515c                	lw	a5,36(a0)
    4000241c:	0075d59b          	srliw	a1,a1,0x7
    40002420:	9dbd                	addw	a1,a1,a5
    40002422:	a39ff0ef          	jal	ra,40001e5a <move_window>
    40002426:	2501                	sext.w	a0,a0
    40002428:	f935                	bnez	a0,4000239c <get_fat+0x46>
    4000242a:	0024151b          	slliw	a0,s0,0x2
    4000242e:	1fc57513          	andi	a0,a0,508
    40002432:	03450513          	addi	a0,a0,52 # 1034 <_tbss_end+0x1034>
    40002436:	954a                	add	a0,a0,s2
    40002438:	807ff0ef          	jal	ra,40001c3e <LD_DWORD>
    4000243c:	100007b7          	lui	a5,0x10000
    40002440:	2501                	sext.w	a0,a0
    40002442:	17fd                	addi	a5,a5,-1
    40002444:	b765                	j	400023ec <get_fat+0x96>
    40002446:	4785                	li	a5,1
    40002448:	853e                	mv	a0,a5
    4000244a:	8082                	ret

000000004000244c <dir_sdi>:
    4000244c:	7139                	addi	sp,sp,-64
    4000244e:	f822                	sd	s0,48(sp)
    40002450:	4540                	lw	s0,12(a0)
    40002452:	f04a                	sd	s2,32(sp)
    40002454:	fc06                	sd	ra,56(sp)
    40002456:	f426                	sd	s1,40(sp)
    40002458:	ec4e                	sd	s3,24(sp)
    4000245a:	e852                	sd	s4,16(sp)
    4000245c:	e456                	sd	s5,8(sp)
    4000245e:	00b51523          	sh	a1,10(a0)
    40002462:	4785                	li	a5,1
    40002464:	892a                	mv	s2,a0
    40002466:	00f41c63          	bne	s0,a5,4000247e <dir_sdi+0x32>
    4000246a:	4509                	li	a0,2
    4000246c:	70e2                	ld	ra,56(sp)
    4000246e:	7442                	ld	s0,48(sp)
    40002470:	74a2                	ld	s1,40(sp)
    40002472:	7902                	ld	s2,32(sp)
    40002474:	69e2                	ld	s3,24(sp)
    40002476:	6a42                	ld	s4,16(sp)
    40002478:	6aa2                	ld	s5,8(sp)
    4000247a:	6121                	addi	sp,sp,64
    4000247c:	8082                	ret
    4000247e:	611c                	ld	a5,0(a0)
    40002480:	4f98                	lw	a4,24(a5)
    40002482:	fee474e3          	bleu	a4,s0,4000246a <dir_sdi+0x1e>
    40002486:	84ae                	mv	s1,a1
    40002488:	e021                	bnez	s0,400024c8 <dir_sdi+0x7c>
    4000248a:	0007c683          	lbu	a3,0(a5) # 10000000 <_tbss_end+0x10000000>
    4000248e:	470d                	li	a4,3
    40002490:	00e69463          	bne	a3,a4,40002498 <dir_sdi+0x4c>
    40002494:	5798                	lw	a4,40(a5)
    40002496:	eb15                	bnez	a4,400024ca <dir_sdi+0x7e>
    40002498:	0087d703          	lhu	a4,8(a5)
    4000249c:	fce4f7e3          	bleu	a4,s1,4000246a <dir_sdi+0x1e>
    400024a0:	5788                	lw	a0,40(a5)
    400024a2:	00892823          	sw	s0,16(s2)
    400024a6:	d171                	beqz	a0,4000246a <dir_sdi+0x1e>
    400024a8:	0044d79b          	srliw	a5,s1,0x4
    400024ac:	9d3d                	addw	a0,a0,a5
    400024ae:	00093783          	ld	a5,0(s2)
    400024b2:	88bd                	andi	s1,s1,15
    400024b4:	0496                	slli	s1,s1,0x5
    400024b6:	03478793          	addi	a5,a5,52
    400024ba:	94be                	add	s1,s1,a5
    400024bc:	00a92a23          	sw	a0,20(s2)
    400024c0:	00993c23          	sd	s1,24(s2)
    400024c4:	4501                	li	a0,0
    400024c6:	b75d                	j	4000246c <dir_sdi+0x20>
    400024c8:	8722                	mv	a4,s0
    400024ca:	0027c983          	lbu	s3,2(a5)
    400024ce:	843a                	mv	s0,a4
    400024d0:	5a7d                	li	s4,-1
    400024d2:	0992                	slli	s3,s3,0x4
    400024d4:	4a85                	li	s5,1
    400024d6:	00093503          	ld	a0,0(s2)
    400024da:	85a2                	mv	a1,s0
    400024dc:	0134f663          	bleu	s3,s1,400024e8 <dir_sdi+0x9c>
    400024e0:	e59ff0ef          	jal	ra,40002338 <clust2sect>
    400024e4:	2501                	sext.w	a0,a0
    400024e6:	bf75                	j	400024a2 <dir_sdi+0x56>
    400024e8:	e6fff0ef          	jal	ra,40002356 <get_fat>
    400024ec:	0005041b          	sext.w	s0,a0
    400024f0:	01440c63          	beq	s0,s4,40002508 <dir_sdi+0xbc>
    400024f4:	f68afbe3          	bleu	s0,s5,4000246a <dir_sdi+0x1e>
    400024f8:	00093783          	ld	a5,0(s2)
    400024fc:	4f9c                	lw	a5,24(a5)
    400024fe:	f6f476e3          	bleu	a5,s0,4000246a <dir_sdi+0x1e>
    40002502:	413484bb          	subw	s1,s1,s3
    40002506:	bfc1                	j	400024d6 <dir_sdi+0x8a>
    40002508:	4505                	li	a0,1
    4000250a:	b78d                	j	4000246c <dir_sdi+0x20>

000000004000250c <dir_remove>:
    4000250c:	00a55583          	lhu	a1,10(a0)
    40002510:	1101                	addi	sp,sp,-32
    40002512:	e822                	sd	s0,16(sp)
    40002514:	e426                	sd	s1,8(sp)
    40002516:	ec06                	sd	ra,24(sp)
    40002518:	842a                	mv	s0,a0
    4000251a:	f33ff0ef          	jal	ra,4000244c <dir_sdi>
    4000251e:	0005049b          	sext.w	s1,a0
    40002522:	e495                	bnez	s1,4000254e <dir_remove+0x42>
    40002524:	484c                	lw	a1,20(s0)
    40002526:	6008                	ld	a0,0(s0)
    40002528:	933ff0ef          	jal	ra,40001e5a <move_window>
    4000252c:	0005049b          	sext.w	s1,a0
    40002530:	ec99                	bnez	s1,4000254e <dir_remove+0x42>
    40002532:	6c08                	ld	a0,24(s0)
    40002534:	02000613          	li	a2,32
    40002538:	4581                	li	a1,0
    4000253a:	f3cff0ef          	jal	ra,40001c76 <mem_set>
    4000253e:	6c1c                	ld	a5,24(s0)
    40002540:	5715                	li	a4,-27
    40002542:	00e78023          	sb	a4,0(a5)
    40002546:	601c                	ld	a5,0(s0)
    40002548:	4705                	li	a4,1
    4000254a:	00e78223          	sb	a4,4(a5)
    4000254e:	60e2                	ld	ra,24(sp)
    40002550:	6442                	ld	s0,16(sp)
    40002552:	8526                	mv	a0,s1
    40002554:	64a2                	ld	s1,8(sp)
    40002556:	6105                	addi	sp,sp,32
    40002558:	8082                	ret

000000004000255a <put_fat>:
    4000255a:	7139                	addi	sp,sp,-64
    4000255c:	e852                	sd	s4,16(sp)
    4000255e:	fc06                	sd	ra,56(sp)
    40002560:	f822                	sd	s0,48(sp)
    40002562:	f426                	sd	s1,40(sp)
    40002564:	f04a                	sd	s2,32(sp)
    40002566:	ec4e                	sd	s3,24(sp)
    40002568:	e456                	sd	s5,8(sp)
    4000256a:	4a05                	li	s4,1
    4000256c:	16ba7563          	bleu	a1,s4,400026d6 <put_fat+0x17c>
    40002570:	4d1c                	lw	a5,24(a0)
    40002572:	84aa                	mv	s1,a0
    40002574:	4989                	li	s3,2
    40002576:	0af5f063          	bleu	a5,a1,40002616 <put_fat+0xbc>
    4000257a:	00054783          	lbu	a5,0(a0)
    4000257e:	4709                	li	a4,2
    40002580:	8932                	mv	s2,a2
    40002582:	842e                	mv	s0,a1
    40002584:	0ae78f63          	beq	a5,a4,40002642 <put_fat+0xe8>
    40002588:	470d                	li	a4,3
    4000258a:	0ee78863          	beq	a5,a4,4000267a <put_fat+0x120>
    4000258e:	15479463          	bne	a5,s4,400026d6 <put_fat+0x17c>
    40002592:	0015da1b          	srliw	s4,a1,0x1
    40002596:	515c                	lw	a5,36(a0)
    40002598:	00ba0a3b          	addw	s4,s4,a1
    4000259c:	009a559b          	srliw	a1,s4,0x9
    400025a0:	9dbd                	addw	a1,a1,a5
    400025a2:	8b9ff0ef          	jal	ra,40001e5a <move_window>
    400025a6:	0005099b          	sext.w	s3,a0
    400025aa:	06099663          	bnez	s3,40002616 <put_fat+0xbc>
    400025ae:	8805                	andi	s0,s0,1
    400025b0:	001a0a9b          	addiw	s5,s4,1
    400025b4:	0ff97793          	andi	a5,s2,255
    400025b8:	1ffa7a13          	andi	s4,s4,511
    400025bc:	cc19                	beqz	s0,400025da <put_fat+0x80>
    400025be:	014487b3          	add	a5,s1,s4
    400025c2:	0347c783          	lbu	a5,52(a5)
    400025c6:	6685                	lui	a3,0x1
    400025c8:	16c1                	addi	a3,a3,-16
    400025ca:	00f7f713          	andi	a4,a5,15
    400025ce:	0049179b          	slliw	a5,s2,0x4
    400025d2:	8ff5                	and	a5,a5,a3
    400025d4:	8fd9                	or	a5,a5,a4
    400025d6:	0ff7f793          	andi	a5,a5,255
    400025da:	9a26                	add	s4,s4,s1
    400025dc:	02fa0a23          	sb	a5,52(s4)
    400025e0:	4785                	li	a5,1
    400025e2:	00f48223          	sb	a5,4(s1)
    400025e6:	50dc                	lw	a5,36(s1)
    400025e8:	009ad59b          	srliw	a1,s5,0x9
    400025ec:	8526                	mv	a0,s1
    400025ee:	9dbd                	addw	a1,a1,a5
    400025f0:	86bff0ef          	jal	ra,40001e5a <move_window>
    400025f4:	0005099b          	sext.w	s3,a0
    400025f8:	00099f63          	bnez	s3,40002616 <put_fat+0xbc>
    400025fc:	1ffafa93          	andi	s5,s5,511
    40002600:	c40d                	beqz	s0,4000262a <put_fat+0xd0>
    40002602:	0049591b          	srliw	s2,s2,0x4
    40002606:	0ff97913          	andi	s2,s2,255
    4000260a:	9aa6                	add	s5,s5,s1
    4000260c:	032a8a23          	sb	s2,52(s5)
    40002610:	4785                	li	a5,1
    40002612:	00f48223          	sb	a5,4(s1)
    40002616:	70e2                	ld	ra,56(sp)
    40002618:	7442                	ld	s0,48(sp)
    4000261a:	854e                	mv	a0,s3
    4000261c:	74a2                	ld	s1,40(sp)
    4000261e:	7902                	ld	s2,32(sp)
    40002620:	69e2                	ld	s3,24(sp)
    40002622:	6a42                	ld	s4,16(sp)
    40002624:	6aa2                	ld	s5,8(sp)
    40002626:	6121                	addi	sp,sp,64
    40002628:	8082                	ret
    4000262a:	015487b3          	add	a5,s1,s5
    4000262e:	0347c783          	lbu	a5,52(a5)
    40002632:	0089591b          	srliw	s2,s2,0x8
    40002636:	00f97913          	andi	s2,s2,15
    4000263a:	9bc1                	andi	a5,a5,-16
    4000263c:	0127e933          	or	s2,a5,s2
    40002640:	b7e9                	j	4000260a <put_fat+0xb0>
    40002642:	515c                	lw	a5,36(a0)
    40002644:	0085d59b          	srliw	a1,a1,0x8
    40002648:	9dbd                	addw	a1,a1,a5
    4000264a:	811ff0ef          	jal	ra,40001e5a <move_window>
    4000264e:	0005099b          	sext.w	s3,a0
    40002652:	fc0992e3          	bnez	s3,40002616 <put_fat+0xbc>
    40002656:	0014141b          	slliw	s0,s0,0x1
    4000265a:	1fe47413          	andi	s0,s0,510
    4000265e:	9426                	add	s0,s0,s1
    40002660:	03240a23          	sb	s2,52(s0)
    40002664:	0109191b          	slliw	s2,s2,0x10
    40002668:	0109591b          	srliw	s2,s2,0x10
    4000266c:	0089591b          	srliw	s2,s2,0x8
    40002670:	03240aa3          	sb	s2,53(s0)
    40002674:	01448223          	sb	s4,4(s1)
    40002678:	bf79                	j	40002616 <put_fat+0xbc>
    4000267a:	515c                	lw	a5,36(a0)
    4000267c:	0075d59b          	srliw	a1,a1,0x7
    40002680:	9dbd                	addw	a1,a1,a5
    40002682:	fd8ff0ef          	jal	ra,40001e5a <move_window>
    40002686:	0005099b          	sext.w	s3,a0
    4000268a:	f80996e3          	bnez	s3,40002616 <put_fat+0xbc>
    4000268e:	0024141b          	slliw	s0,s0,0x2
    40002692:	1fc47413          	andi	s0,s0,508
    40002696:	03440a93          	addi	s5,s0,52
    4000269a:	9aa6                	add	s5,s5,s1
    4000269c:	8556                	mv	a0,s5
    4000269e:	da0ff0ef          	jal	ra,40001c3e <LD_DWORD>
    400026a2:	2501                	sext.w	a0,a0
    400026a4:	f0000637          	lui	a2,0xf0000
    400026a8:	8d71                	and	a0,a0,a2
    400026aa:	01256933          	or	s2,a0,s2
    400026ae:	0109179b          	slliw	a5,s2,0x10
    400026b2:	9426                	add	s0,s0,s1
    400026b4:	0107d79b          	srliw	a5,a5,0x10
    400026b8:	03240a23          	sb	s2,52(s0)
    400026bc:	0087d79b          	srliw	a5,a5,0x8
    400026c0:	00fa80a3          	sb	a5,1(s5)
    400026c4:	0109579b          	srliw	a5,s2,0x10
    400026c8:	0189591b          	srliw	s2,s2,0x18
    400026cc:	00fa8123          	sb	a5,2(s5)
    400026d0:	012a81a3          	sb	s2,3(s5)
    400026d4:	b745                	j	40002674 <put_fat+0x11a>
    400026d6:	4989                	li	s3,2
    400026d8:	bf3d                	j	40002616 <put_fat+0xbc>

00000000400026da <create_chain>:
    400026da:	7139                	addi	sp,sp,-64
    400026dc:	f426                	sd	s1,40(sp)
    400026de:	ec4e                	sd	s3,24(sp)
    400026e0:	fc06                	sd	ra,56(sp)
    400026e2:	f822                	sd	s0,48(sp)
    400026e4:	f04a                	sd	s2,32(sp)
    400026e6:	e852                	sd	s4,16(sp)
    400026e8:	e456                	sd	s5,8(sp)
    400026ea:	84aa                	mv	s1,a0
    400026ec:	89ae                	mv	s3,a1
    400026ee:	e19d                	bnez	a1,40002714 <create_chain+0x3a>
    400026f0:	00c52903          	lw	s2,12(a0)
    400026f4:	04090a63          	beqz	s2,40002748 <create_chain+0x6e>
    400026f8:	4d1c                	lw	a5,24(a0)
    400026fa:	04f97763          	bleu	a5,s2,40002748 <create_chain+0x6e>
    400026fe:	844a                	mv	s0,s2
    40002700:	4a05                	li	s4,1
    40002702:	5afd                	li	s5,-1
    40002704:	4c9c                	lw	a5,24(s1)
    40002706:	2405                	addiw	s0,s0,1
    40002708:	04f46363          	bltu	s0,a5,4000274e <create_chain+0x74>
    4000270c:	052a6063          	bltu	s4,s2,4000274c <create_chain+0x72>
    40002710:	4401                	li	s0,0
    40002712:	a821                	j	4000272a <create_chain+0x50>
    40002714:	c43ff0ef          	jal	ra,40002356 <get_fat>
    40002718:	0005041b          	sext.w	s0,a0
    4000271c:	4785                	li	a5,1
    4000271e:	0887f863          	bleu	s0,a5,400027ae <create_chain+0xd4>
    40002722:	57fd                	li	a5,-1
    40002724:	00f41d63          	bne	s0,a5,4000273e <create_chain+0x64>
    40002728:	547d                	li	s0,-1
    4000272a:	8522                	mv	a0,s0
    4000272c:	70e2                	ld	ra,56(sp)
    4000272e:	7442                	ld	s0,48(sp)
    40002730:	74a2                	ld	s1,40(sp)
    40002732:	7902                	ld	s2,32(sp)
    40002734:	69e2                	ld	s3,24(sp)
    40002736:	6a42                	ld	s4,16(sp)
    40002738:	6aa2                	ld	s5,8(sp)
    4000273a:	6121                	addi	sp,sp,64
    4000273c:	8082                	ret
    4000273e:	4c9c                	lw	a5,24(s1)
    40002740:	894e                	mv	s2,s3
    40002742:	faf47ee3          	bleu	a5,s0,400026fe <create_chain+0x24>
    40002746:	b7d5                	j	4000272a <create_chain+0x50>
    40002748:	4905                	li	s2,1
    4000274a:	bf55                	j	400026fe <create_chain+0x24>
    4000274c:	4409                	li	s0,2
    4000274e:	85a2                	mv	a1,s0
    40002750:	8526                	mv	a0,s1
    40002752:	c05ff0ef          	jal	ra,40002356 <get_fat>
    40002756:	2501                	sext.w	a0,a0
    40002758:	c901                	beqz	a0,40002768 <create_chain+0x8e>
    4000275a:	fd5507e3          	beq	a0,s5,40002728 <create_chain+0x4e>
    4000275e:	05450863          	beq	a0,s4,400027ae <create_chain+0xd4>
    40002762:	fb2411e3          	bne	s0,s2,40002704 <create_chain+0x2a>
    40002766:	b76d                	j	40002710 <create_chain+0x36>
    40002768:	10000637          	lui	a2,0x10000
    4000276c:	167d                	addi	a2,a2,-1
    4000276e:	85a2                	mv	a1,s0
    40002770:	8526                	mv	a0,s1
    40002772:	de9ff0ef          	jal	ra,4000255a <put_fat>
    40002776:	2501                	sext.w	a0,a0
    40002778:	e905                	bnez	a0,400027a8 <create_chain+0xce>
    4000277a:	02099063          	bnez	s3,4000279a <create_chain+0xc0>
    4000277e:	489c                	lw	a5,16(s1)
    40002780:	c4c0                	sw	s0,12(s1)
    40002782:	577d                	li	a4,-1
    40002784:	fae783e3          	beq	a5,a4,4000272a <create_chain+0x50>
    40002788:	37fd                	addiw	a5,a5,-1
    4000278a:	c89c                	sw	a5,16(s1)
    4000278c:	0054c783          	lbu	a5,5(s1)
    40002790:	0017e793          	ori	a5,a5,1
    40002794:	00f482a3          	sb	a5,5(s1)
    40002798:	bf49                	j	4000272a <create_chain+0x50>
    4000279a:	8622                	mv	a2,s0
    4000279c:	85ce                	mv	a1,s3
    4000279e:	8526                	mv	a0,s1
    400027a0:	dbbff0ef          	jal	ra,4000255a <put_fat>
    400027a4:	2501                	sext.w	a0,a0
    400027a6:	dd61                	beqz	a0,4000277e <create_chain+0xa4>
    400027a8:	4785                	li	a5,1
    400027aa:	f6f50fe3          	beq	a0,a5,40002728 <create_chain+0x4e>
    400027ae:	4405                	li	s0,1
    400027b0:	bfad                	j	4000272a <create_chain+0x50>

00000000400027b2 <dir_next>:
    400027b2:	7139                	addi	sp,sp,-64
    400027b4:	f04a                	sd	s2,32(sp)
    400027b6:	00a55903          	lhu	s2,10(a0)
    400027ba:	fc06                	sd	ra,56(sp)
    400027bc:	f822                	sd	s0,48(sp)
    400027be:	2905                	addiw	s2,s2,1
    400027c0:	03091793          	slli	a5,s2,0x30
    400027c4:	f426                	sd	s1,40(sp)
    400027c6:	ec4e                	sd	s3,24(sp)
    400027c8:	e852                	sd	s4,16(sp)
    400027ca:	e456                	sd	s5,8(sp)
    400027cc:	93c1                	srli	a5,a5,0x30
    400027ce:	eb99                	bnez	a5,400027e4 <dir_next+0x32>
    400027d0:	4511                	li	a0,4
    400027d2:	70e2                	ld	ra,56(sp)
    400027d4:	7442                	ld	s0,48(sp)
    400027d6:	74a2                	ld	s1,40(sp)
    400027d8:	7902                	ld	s2,32(sp)
    400027da:	69e2                	ld	s3,24(sp)
    400027dc:	6a42                	ld	s4,16(sp)
    400027de:	6aa2                	ld	s5,8(sp)
    400027e0:	6121                	addi	sp,sp,64
    400027e2:	8082                	ret
    400027e4:	495c                	lw	a5,20(a0)
    400027e6:	d7ed                	beqz	a5,400027d0 <dir_next+0x1e>
    400027e8:	00f97993          	andi	s3,s2,15
    400027ec:	8a2e                	mv	s4,a1
    400027ee:	842a                	mv	s0,a0
    400027f0:	00099d63          	bnez	s3,4000280a <dir_next+0x58>
    400027f4:	480c                	lw	a1,16(s0)
    400027f6:	2785                	addiw	a5,a5,1
    400027f8:	6108                	ld	a0,0(a0)
    400027fa:	c85c                	sw	a5,20(s0)
    400027fc:	e18d                	bnez	a1,4000281e <dir_next+0x6c>
    400027fe:	00855783          	lhu	a5,8(a0)
    40002802:	0009071b          	sext.w	a4,s2
    40002806:	fcf775e3          	bleu	a5,a4,400027d0 <dir_next+0x1e>
    4000280a:	601c                	ld	a5,0(s0)
    4000280c:	0996                	slli	s3,s3,0x5
    4000280e:	01241523          	sh	s2,10(s0)
    40002812:	03478793          	addi	a5,a5,52
    40002816:	97ce                	add	a5,a5,s3
    40002818:	ec1c                	sd	a5,24(s0)
    4000281a:	4501                	li	a0,0
    4000281c:	bf5d                	j	400027d2 <dir_next+0x20>
    4000281e:	00254783          	lbu	a5,2(a0)
    40002822:	00495a9b          	srliw	s5,s2,0x4
    40002826:	37fd                	addiw	a5,a5,-1
    40002828:	0157fab3          	and	s5,a5,s5
    4000282c:	fc0a9fe3          	bnez	s5,4000280a <dir_next+0x58>
    40002830:	b27ff0ef          	jal	ra,40002356 <get_fat>
    40002834:	0005049b          	sext.w	s1,a0
    40002838:	4785                	li	a5,1
    4000283a:	0097e463          	bltu	a5,s1,40002842 <dir_next+0x90>
    4000283e:	4509                	li	a0,2
    40002840:	bf49                	j	400027d2 <dir_next+0x20>
    40002842:	57fd                	li	a5,-1
    40002844:	00f49463          	bne	s1,a5,4000284c <dir_next+0x9a>
    40002848:	4505                	li	a0,1
    4000284a:	b761                	j	400027d2 <dir_next+0x20>
    4000284c:	6008                	ld	a0,0(s0)
    4000284e:	4d1c                	lw	a5,24(a0)
    40002850:	06f4e063          	bltu	s1,a5,400028b0 <dir_next+0xfe>
    40002854:	f60a0ee3          	beqz	s4,400027d0 <dir_next+0x1e>
    40002858:	480c                	lw	a1,16(s0)
    4000285a:	e81ff0ef          	jal	ra,400026da <create_chain>
    4000285e:	0005049b          	sext.w	s1,a0
    40002862:	451d                	li	a0,7
    40002864:	d4bd                	beqz	s1,400027d2 <dir_next+0x20>
    40002866:	4785                	li	a5,1
    40002868:	fcf48be3          	beq	s1,a5,4000283e <dir_next+0x8c>
    4000286c:	57fd                	li	a5,-1
    4000286e:	fcf48de3          	beq	s1,a5,40002848 <dir_next+0x96>
    40002872:	6008                	ld	a0,0(s0)
    40002874:	dd8ff0ef          	jal	ra,40001e4c <sync_window>
    40002878:	2501                	sext.w	a0,a0
    4000287a:	f579                	bnez	a0,40002848 <dir_next+0x96>
    4000287c:	6008                	ld	a0,0(s0)
    4000287e:	20000613          	li	a2,512
    40002882:	4581                	li	a1,0
    40002884:	03450513          	addi	a0,a0,52
    40002888:	beeff0ef          	jal	ra,40001c76 <mem_set>
    4000288c:	00043a03          	ld	s4,0(s0)
    40002890:	85a6                	mv	a1,s1
    40002892:	8552                	mv	a0,s4
    40002894:	aa5ff0ef          	jal	ra,40002338 <clust2sect>
    40002898:	02aa2823          	sw	a0,48(s4)
    4000289c:	4a05                	li	s4,1
    4000289e:	6008                	ld	a0,0(s0)
    400028a0:	00254783          	lbu	a5,2(a0)
    400028a4:	00faed63          	bltu	s5,a5,400028be <dir_next+0x10c>
    400028a8:	591c                	lw	a5,48(a0)
    400028aa:	415787bb          	subw	a5,a5,s5
    400028ae:	d91c                	sw	a5,48(a0)
    400028b0:	6008                	ld	a0,0(s0)
    400028b2:	c804                	sw	s1,16(s0)
    400028b4:	85a6                	mv	a1,s1
    400028b6:	a83ff0ef          	jal	ra,40002338 <clust2sect>
    400028ba:	c848                	sw	a0,20(s0)
    400028bc:	b7b9                	j	4000280a <dir_next+0x58>
    400028be:	01450223          	sb	s4,4(a0)
    400028c2:	d1cff0ef          	jal	ra,40001dde <sync_window.part.2>
    400028c6:	2501                	sext.w	a0,a0
    400028c8:	f141                	bnez	a0,40002848 <dir_next+0x96>
    400028ca:	6018                	ld	a4,0(s0)
    400028cc:	2a85                	addiw	s5,s5,1
    400028ce:	5b1c                	lw	a5,48(a4)
    400028d0:	2785                	addiw	a5,a5,1
    400028d2:	db1c                	sw	a5,48(a4)
    400028d4:	b7e9                	j	4000289e <dir_next+0xec>

00000000400028d6 <follow_path>:
    400028d6:	7139                	addi	sp,sp,-64
    400028d8:	f822                	sd	s0,48(sp)
    400028da:	f426                	sd	s1,40(sp)
    400028dc:	fc06                	sd	ra,56(sp)
    400028de:	f04a                	sd	s2,32(sp)
    400028e0:	ec4e                	sd	s3,24(sp)
    400028e2:	e852                	sd	s4,16(sp)
    400028e4:	e456                	sd	s5,8(sp)
    400028e6:	e05a                	sd	s6,0(sp)
    400028e8:	0005c783          	lbu	a5,0(a1)
    400028ec:	02f00713          	li	a4,47
    400028f0:	84aa                	mv	s1,a0
    400028f2:	842e                	mv	s0,a1
    400028f4:	00e78663          	beq	a5,a4,40002900 <follow_path+0x2a>
    400028f8:	05c00713          	li	a4,92
    400028fc:	0ce79063          	bne	a5,a4,400029bc <follow_path+0xe6>
    40002900:	0405                	addi	s0,s0,1
    40002902:	0004a623          	sw	zero,12(s1)
    40002906:	00044703          	lbu	a4,0(s0)
    4000290a:	47fd                	li	a5,31
    4000290c:	0ae7fc63          	bleu	a4,a5,400029c4 <follow_path+0xee>
    40002910:	02f00a13          	li	s4,47
    40002914:	05c00a93          	li	s5,92
    40002918:	02e00993          	li	s3,46
    4000291c:	4b21                	li	s6,8
    4000291e:	00044783          	lbu	a5,0(s0)
    40002922:	0d478263          	beq	a5,s4,400029e6 <follow_path+0x110>
    40002926:	0d578063          	beq	a5,s5,400029e6 <follow_path+0x110>
    4000292a:	0204b903          	ld	s2,32(s1)
    4000292e:	462d                	li	a2,11
    40002930:	02000593          	li	a1,32
    40002934:	854a                	mv	a0,s2
    40002936:	b40ff0ef          	jal	ra,40001c76 <mem_set>
    4000293a:	00044783          	lbu	a5,0(s0)
    4000293e:	0d379263          	bne	a5,s3,40002a02 <follow_path+0x12c>
    40002942:	01390023          	sb	s3,0(s2)
    40002946:	00144783          	lbu	a5,1(s0)
    4000294a:	0b379063          	bne	a5,s3,400029ea <follow_path+0x114>
    4000294e:	02e00793          	li	a5,46
    40002952:	00f900a3          	sb	a5,1(s2)
    40002956:	00244783          	lbu	a5,2(s0)
    4000295a:	1b378e63          	beq	a5,s3,40002b16 <follow_path+0x240>
    4000295e:	470d                	li	a4,3
    40002960:	09479763          	bne	a5,s4,400029ee <follow_path+0x118>
    40002964:	943a                	add	s0,s0,a4
    40002966:	02000793          	li	a5,32
    4000296a:	00f905a3          	sb	a5,11(s2)
    4000296e:	4581                	li	a1,0
    40002970:	8526                	mv	a0,s1
    40002972:	adbff0ef          	jal	ra,4000244c <dir_sdi>
    40002976:	2501                	sext.w	a0,a0
    40002978:	10051063          	bnez	a0,40002a78 <follow_path+0x1a2>
    4000297c:	48cc                	lw	a1,20(s1)
    4000297e:	6088                	ld	a0,0(s1)
    40002980:	cdaff0ef          	jal	ra,40001e5a <move_window>
    40002984:	2501                	sext.w	a0,a0
    40002986:	e96d                	bnez	a0,40002a78 <follow_path+0x1a2>
    40002988:	6c98                	ld	a4,24(s1)
    4000298a:	00074783          	lbu	a5,0(a4)
    4000298e:	c7e5                	beqz	a5,40002a76 <follow_path+0x1a0>
    40002990:	00b74783          	lbu	a5,11(a4)
    40002994:	8ba1                	andi	a5,a5,8
    40002996:	ef91                	bnez	a5,400029b2 <follow_path+0xdc>
    40002998:	709c                	ld	a5,32(s1)
    4000299a:	00b78593          	addi	a1,a5,11
    4000299e:	0cb78d63          	beq	a5,a1,40002a78 <follow_path+0x1a2>
    400029a2:	0705                	addi	a4,a4,1
    400029a4:	0785                	addi	a5,a5,1
    400029a6:	fff74603          	lbu	a2,-1(a4)
    400029aa:	fff7c683          	lbu	a3,-1(a5)
    400029ae:	fed608e3          	beq	a2,a3,4000299e <follow_path+0xc8>
    400029b2:	4581                	li	a1,0
    400029b4:	8526                	mv	a0,s1
    400029b6:	dfdff0ef          	jal	ra,400027b2 <dir_next>
    400029ba:	bf75                	j	40002976 <follow_path+0xa0>
    400029bc:	611c                	ld	a5,0(a0)
    400029be:	4bdc                	lw	a5,20(a5)
    400029c0:	c55c                	sw	a5,12(a0)
    400029c2:	b791                	j	40002906 <follow_path+0x30>
    400029c4:	4581                	li	a1,0
    400029c6:	8526                	mv	a0,s1
    400029c8:	a85ff0ef          	jal	ra,4000244c <dir_sdi>
    400029cc:	2501                	sext.w	a0,a0
    400029ce:	0004bc23          	sd	zero,24(s1)
    400029d2:	70e2                	ld	ra,56(sp)
    400029d4:	7442                	ld	s0,48(sp)
    400029d6:	74a2                	ld	s1,40(sp)
    400029d8:	7902                	ld	s2,32(sp)
    400029da:	69e2                	ld	s3,24(sp)
    400029dc:	6a42                	ld	s4,16(sp)
    400029de:	6aa2                	ld	s5,8(sp)
    400029e0:	6b02                	ld	s6,0(sp)
    400029e2:	6121                	addi	sp,sp,64
    400029e4:	8082                	ret
    400029e6:	0405                	addi	s0,s0,1
    400029e8:	bf1d                	j	4000291e <follow_path+0x48>
    400029ea:	4709                	li	a4,2
    400029ec:	bf95                	j	40002960 <follow_path+0x8a>
    400029ee:	f7578be3          	beq	a5,s5,40002964 <follow_path+0x8e>
    400029f2:	02000693          	li	a3,32
    400029f6:	12f6e063          	bltu	a3,a5,40002b16 <follow_path+0x240>
    400029fa:	943a                	add	s0,s0,a4
    400029fc:	02400793          	li	a5,36
    40002a00:	b7ad                	j	4000296a <follow_path+0x94>
    40002a02:	4681                	li	a3,0
    40002a04:	4701                	li	a4,0
    40002a06:	45a1                	li	a1,8
    40002a08:	4781                	li	a5,0
    40002a0a:	02000313          	li	t1,32
    40002a0e:	4865                	li	a6,25
    40002a10:	a0d1                	j	40002ad4 <follow_path+0x1fe>
    40002a12:	0505                	addi	a0,a0,1
    40002a14:	a8dd                	j	40002b0a <follow_path+0x234>
    40002a16:	0027e793          	ori	a5,a5,2
    40002a1a:	02069513          	slli	a0,a3,0x20
    40002a1e:	9101                	srli	a0,a0,0x20
    40002a20:	954a                	add	a0,a0,s2
    40002a22:	00e50023          	sb	a4,0(a0)
    40002a26:	2685                	addiw	a3,a3,1
    40002a28:	a06d                	j	40002ad2 <follow_path+0x1fc>
    40002a2a:	4711                	li	a4,4
    40002a2c:	c6ed                	beqz	a3,40002b16 <follow_path+0x240>
    40002a2e:	00094503          	lbu	a0,0(s2)
    40002a32:	0e500693          	li	a3,229
    40002a36:	00d51563          	bne	a0,a3,40002a40 <follow_path+0x16a>
    40002a3a:	4695                	li	a3,5
    40002a3c:	00d90023          	sb	a3,0(s2)
    40002a40:	01659663          	bne	a1,s6,40002a4c <follow_path+0x176>
    40002a44:	0027979b          	slliw	a5,a5,0x2
    40002a48:	0ff7f793          	andi	a5,a5,255
    40002a4c:	0037f693          	andi	a3,a5,3
    40002a50:	4585                	li	a1,1
    40002a52:	00b69463          	bne	a3,a1,40002a5a <follow_path+0x184>
    40002a56:	01076713          	ori	a4,a4,16
    40002a5a:	8bb1                	andi	a5,a5,12
    40002a5c:	4691                	li	a3,4
    40002a5e:	00d79463          	bne	a5,a3,40002a66 <follow_path+0x190>
    40002a62:	00876713          	ori	a4,a4,8
    40002a66:	1602                	slli	a2,a2,0x20
    40002a68:	9201                	srli	a2,a2,0x20
    40002a6a:	9432                	add	s0,s0,a2
    40002a6c:	00e905a3          	sb	a4,11(s2)
    40002a70:	bdfd                	j	4000296e <follow_path+0x98>
    40002a72:	4701                	li	a4,0
    40002a74:	bf65                	j	40002a2c <follow_path+0x156>
    40002a76:	4511                	li	a0,4
    40002a78:	709c                	ld	a5,32(s1)
    40002a7a:	00b7c783          	lbu	a5,11(a5)
    40002a7e:	c505                	beqz	a0,40002aa6 <follow_path+0x1d0>
    40002a80:	4711                	li	a4,4
    40002a82:	f4e518e3          	bne	a0,a4,400029d2 <follow_path+0xfc>
    40002a86:	0047f713          	andi	a4,a5,4
    40002a8a:	0207f793          	andi	a5,a5,32
    40002a8e:	cb89                	beqz	a5,40002aa0 <follow_path+0x1ca>
    40002a90:	0004a623          	sw	zero,12(s1)
    40002a94:	0004bc23          	sd	zero,24(s1)
    40002a98:	e80703e3          	beqz	a4,4000291e <follow_path+0x48>
    40002a9c:	4501                	li	a0,0
    40002a9e:	bf15                	j	400029d2 <follow_path+0xfc>
    40002aa0:	fb0d                	bnez	a4,400029d2 <follow_path+0xfc>
    40002aa2:	4515                	li	a0,5
    40002aa4:	b73d                	j	400029d2 <follow_path+0xfc>
    40002aa6:	8b91                	andi	a5,a5,4
    40002aa8:	fbf5                	bnez	a5,40002a9c <follow_path+0x1c6>
    40002aaa:	6c8c                	ld	a1,24(s1)
    40002aac:	00b5c783          	lbu	a5,11(a1)
    40002ab0:	8bc1                	andi	a5,a5,16
    40002ab2:	dbe5                	beqz	a5,40002aa2 <follow_path+0x1cc>
    40002ab4:	609c                	ld	a5,0(s1)
    40002ab6:	0007c503          	lbu	a0,0(a5)
    40002aba:	af2ff0ef          	jal	ra,40001dac <ld_clust.isra.0>
    40002abe:	c4c8                	sw	a0,12(s1)
    40002ac0:	bdb9                	j	4000291e <follow_path+0x48>
    40002ac2:	05659a63          	bne	a1,s6,40002b16 <follow_path+0x240>
    40002ac6:	0027979b          	slliw	a5,a5,0x2
    40002aca:	0ff7f793          	andi	a5,a5,255
    40002ace:	46a1                	li	a3,8
    40002ad0:	45ad                	li	a1,11
    40002ad2:	8732                	mv	a4,a2
    40002ad4:	0017061b          	addiw	a2,a4,1
    40002ad8:	1702                	slli	a4,a4,0x20
    40002ada:	9301                	srli	a4,a4,0x20
    40002adc:	9722                	add	a4,a4,s0
    40002ade:	00074703          	lbu	a4,0(a4)
    40002ae2:	f4e374e3          	bleu	a4,t1,40002a2a <follow_path+0x154>
    40002ae6:	f94706e3          	beq	a4,s4,40002a72 <follow_path+0x19c>
    40002aea:	f95704e3          	beq	a4,s5,40002a72 <follow_path+0x19c>
    40002aee:	fd370ae3          	beq	a4,s3,40002ac2 <follow_path+0x1ec>
    40002af2:	02b6f263          	bleu	a1,a3,40002b16 <follow_path+0x240>
    40002af6:	0187151b          	slliw	a0,a4,0x18
    40002afa:	4185551b          	sraiw	a0,a0,0x18
    40002afe:	00054c63          	bltz	a0,40002b16 <follow_path+0x240>
    40002b02:	00005517          	auipc	a0,0x5
    40002b06:	90650513          	addi	a0,a0,-1786 # 40007408 <main+0x88e>
    40002b0a:	00054883          	lbu	a7,0(a0)
    40002b0e:	00088663          	beqz	a7,40002b1a <follow_path+0x244>
    40002b12:	f11710e3          	bne	a4,a7,40002a12 <follow_path+0x13c>
    40002b16:	4519                	li	a0,6
    40002b18:	bd6d                	j	400029d2 <follow_path+0xfc>
    40002b1a:	fbf7051b          	addiw	a0,a4,-65
    40002b1e:	0ff57513          	andi	a0,a0,255
    40002b22:	eea87ae3          	bleu	a0,a6,40002a16 <follow_path+0x140>
    40002b26:	f9f7051b          	addiw	a0,a4,-97
    40002b2a:	0ff57513          	andi	a0,a0,255
    40002b2e:	eea866e3          	bltu	a6,a0,40002a1a <follow_path+0x144>
    40002b32:	3701                	addiw	a4,a4,-32
    40002b34:	0017e793          	ori	a5,a5,1
    40002b38:	0ff77713          	andi	a4,a4,255
    40002b3c:	bdf9                	j	40002a1a <follow_path+0x144>

0000000040002b3e <dir_read>:
    40002b3e:	7179                	addi	sp,sp,-48
    40002b40:	f022                	sd	s0,32(sp)
    40002b42:	ec26                	sd	s1,24(sp)
    40002b44:	e84a                	sd	s2,16(sp)
    40002b46:	e44e                	sd	s3,8(sp)
    40002b48:	842a                	mv	s0,a0
    40002b4a:	f406                	sd	ra,40(sp)
    40002b4c:	84ae                	mv	s1,a1
    40002b4e:	4511                	li	a0,4
    40002b50:	0e500913          	li	s2,229
    40002b54:	49bd                	li	s3,15
    40002b56:	484c                	lw	a1,20(s0)
    40002b58:	e199                	bnez	a1,40002b5e <dir_read+0x20>
    40002b5a:	c90d                	beqz	a0,40002b8c <dir_read+0x4e>
    40002b5c:	a0b1                	j	40002ba8 <dir_read+0x6a>
    40002b5e:	6008                	ld	a0,0(s0)
    40002b60:	afaff0ef          	jal	ra,40001e5a <move_window>
    40002b64:	2501                	sext.w	a0,a0
    40002b66:	e129                	bnez	a0,40002ba8 <dir_read+0x6a>
    40002b68:	6c1c                	ld	a5,24(s0)
    40002b6a:	0007c703          	lbu	a4,0(a5)
    40002b6e:	c321                	beqz	a4,40002bae <dir_read+0x70>
    40002b70:	00b7c783          	lbu	a5,11(a5)
    40002b74:	03f7f793          	andi	a5,a5,63
    40002b78:	03270263          	beq	a4,s2,40002b9c <dir_read+0x5e>
    40002b7c:	03378063          	beq	a5,s3,40002b9c <dir_read+0x5e>
    40002b80:	8bfd                	andi	a5,a5,31
    40002b82:	17e1                	addi	a5,a5,-8
    40002b84:	0017b793          	seqz	a5,a5
    40002b88:	00979a63          	bne	a5,s1,40002b9c <dir_read+0x5e>
    40002b8c:	4501                	li	a0,0
    40002b8e:	70a2                	ld	ra,40(sp)
    40002b90:	7402                	ld	s0,32(sp)
    40002b92:	64e2                	ld	s1,24(sp)
    40002b94:	6942                	ld	s2,16(sp)
    40002b96:	69a2                	ld	s3,8(sp)
    40002b98:	6145                	addi	sp,sp,48
    40002b9a:	8082                	ret
    40002b9c:	4581                	li	a1,0
    40002b9e:	8522                	mv	a0,s0
    40002ba0:	c13ff0ef          	jal	ra,400027b2 <dir_next>
    40002ba4:	2501                	sext.w	a0,a0
    40002ba6:	d945                	beqz	a0,40002b56 <dir_read+0x18>
    40002ba8:	00042a23          	sw	zero,20(s0)
    40002bac:	b7cd                	j	40002b8e <dir_read+0x50>
    40002bae:	4511                	li	a0,4
    40002bb0:	bfe5                	j	40002ba8 <dir_read+0x6a>

0000000040002bb2 <dir_alloc.constprop.12>:
    40002bb2:	1101                	addi	sp,sp,-32
    40002bb4:	4581                	li	a1,0
    40002bb6:	e822                	sd	s0,16(sp)
    40002bb8:	ec06                	sd	ra,24(sp)
    40002bba:	e426                	sd	s1,8(sp)
    40002bbc:	842a                	mv	s0,a0
    40002bbe:	88fff0ef          	jal	ra,4000244c <dir_sdi>
    40002bc2:	2501                	sext.w	a0,a0
    40002bc4:	e50d                	bnez	a0,40002bee <dir_alloc.constprop.12+0x3c>
    40002bc6:	0e500493          	li	s1,229
    40002bca:	484c                	lw	a1,20(s0)
    40002bcc:	6008                	ld	a0,0(s0)
    40002bce:	a8cff0ef          	jal	ra,40001e5a <move_window>
    40002bd2:	2501                	sext.w	a0,a0
    40002bd4:	ed09                	bnez	a0,40002bee <dir_alloc.constprop.12+0x3c>
    40002bd6:	6c1c                	ld	a5,24(s0)
    40002bd8:	0007c783          	lbu	a5,0(a5)
    40002bdc:	00978d63          	beq	a5,s1,40002bf6 <dir_alloc.constprop.12+0x44>
    40002be0:	cb99                	beqz	a5,40002bf6 <dir_alloc.constprop.12+0x44>
    40002be2:	4585                	li	a1,1
    40002be4:	8522                	mv	a0,s0
    40002be6:	bcdff0ef          	jal	ra,400027b2 <dir_next>
    40002bea:	2501                	sext.w	a0,a0
    40002bec:	dd79                	beqz	a0,40002bca <dir_alloc.constprop.12+0x18>
    40002bee:	4791                	li	a5,4
    40002bf0:	00f51363          	bne	a0,a5,40002bf6 <dir_alloc.constprop.12+0x44>
    40002bf4:	451d                	li	a0,7
    40002bf6:	60e2                	ld	ra,24(sp)
    40002bf8:	6442                	ld	s0,16(sp)
    40002bfa:	64a2                	ld	s1,8(sp)
    40002bfc:	6105                	addi	sp,sp,32
    40002bfe:	8082                	ret

0000000040002c00 <dir_register>:
    40002c00:	1101                	addi	sp,sp,-32
    40002c02:	e822                	sd	s0,16(sp)
    40002c04:	e426                	sd	s1,8(sp)
    40002c06:	ec06                	sd	ra,24(sp)
    40002c08:	842a                	mv	s0,a0
    40002c0a:	fa9ff0ef          	jal	ra,40002bb2 <dir_alloc.constprop.12>
    40002c0e:	0005049b          	sext.w	s1,a0
    40002c12:	e49d                	bnez	s1,40002c40 <dir_register+0x40>
    40002c14:	484c                	lw	a1,20(s0)
    40002c16:	6008                	ld	a0,0(s0)
    40002c18:	a42ff0ef          	jal	ra,40001e5a <move_window>
    40002c1c:	0005049b          	sext.w	s1,a0
    40002c20:	e085                	bnez	s1,40002c40 <dir_register+0x40>
    40002c22:	6c08                	ld	a0,24(s0)
    40002c24:	02000613          	li	a2,32
    40002c28:	4581                	li	a1,0
    40002c2a:	84cff0ef          	jal	ra,40001c76 <mem_set>
    40002c2e:	700c                	ld	a1,32(s0)
    40002c30:	6c08                	ld	a0,24(s0)
    40002c32:	462d                	li	a2,11
    40002c34:	82aff0ef          	jal	ra,40001c5e <mem_cpy>
    40002c38:	601c                	ld	a5,0(s0)
    40002c3a:	4705                	li	a4,1
    40002c3c:	00e78223          	sb	a4,4(a5)
    40002c40:	60e2                	ld	ra,24(sp)
    40002c42:	6442                	ld	s0,16(sp)
    40002c44:	8526                	mv	a0,s1
    40002c46:	64a2                	ld	s1,8(sp)
    40002c48:	6105                	addi	sp,sp,32
    40002c4a:	8082                	ret

0000000040002c4c <remove_chain>:
    40002c4c:	4785                	li	a5,1
    40002c4e:	00b7ed63          	bltu	a5,a1,40002c68 <remove_chain+0x1c>
    40002c52:	4509                	li	a0,2
    40002c54:	8082                	ret
    40002c56:	4509                	li	a0,2
    40002c58:	70a2                	ld	ra,40(sp)
    40002c5a:	7402                	ld	s0,32(sp)
    40002c5c:	64e2                	ld	s1,24(sp)
    40002c5e:	6942                	ld	s2,16(sp)
    40002c60:	69a2                	ld	s3,8(sp)
    40002c62:	6a02                	ld	s4,0(sp)
    40002c64:	6145                	addi	sp,sp,48
    40002c66:	8082                	ret
    40002c68:	4d1c                	lw	a5,24(a0)
    40002c6a:	7179                	addi	sp,sp,-48
    40002c6c:	f022                	sd	s0,32(sp)
    40002c6e:	ec26                	sd	s1,24(sp)
    40002c70:	f406                	sd	ra,40(sp)
    40002c72:	e84a                	sd	s2,16(sp)
    40002c74:	e44e                	sd	s3,8(sp)
    40002c76:	e052                	sd	s4,0(sp)
    40002c78:	842a                	mv	s0,a0
    40002c7a:	84ae                	mv	s1,a1
    40002c7c:	fcf5fde3          	bleu	a5,a1,40002c56 <remove_chain+0xa>
    40002c80:	4a05                	li	s4,1
    40002c82:	59fd                	li	s3,-1
    40002c84:	4c1c                	lw	a5,24(s0)
    40002c86:	00f4fa63          	bleu	a5,s1,40002c9a <remove_chain+0x4e>
    40002c8a:	85a6                	mv	a1,s1
    40002c8c:	8522                	mv	a0,s0
    40002c8e:	ec8ff0ef          	jal	ra,40002356 <get_fat>
    40002c92:	0005091b          	sext.w	s2,a0
    40002c96:	00091463          	bnez	s2,40002c9e <remove_chain+0x52>
    40002c9a:	4501                	li	a0,0
    40002c9c:	bf75                	j	40002c58 <remove_chain+0xc>
    40002c9e:	fb490ce3          	beq	s2,s4,40002c56 <remove_chain+0xa>
    40002ca2:	03390763          	beq	s2,s3,40002cd0 <remove_chain+0x84>
    40002ca6:	4601                	li	a2,0
    40002ca8:	85a6                	mv	a1,s1
    40002caa:	8522                	mv	a0,s0
    40002cac:	8afff0ef          	jal	ra,4000255a <put_fat>
    40002cb0:	2501                	sext.w	a0,a0
    40002cb2:	f15d                	bnez	a0,40002c58 <remove_chain+0xc>
    40002cb4:	481c                	lw	a5,16(s0)
    40002cb6:	01378a63          	beq	a5,s3,40002cca <remove_chain+0x7e>
    40002cba:	2785                	addiw	a5,a5,1
    40002cbc:	c81c                	sw	a5,16(s0)
    40002cbe:	00544783          	lbu	a5,5(s0)
    40002cc2:	0017e793          	ori	a5,a5,1
    40002cc6:	00f402a3          	sb	a5,5(s0)
    40002cca:	0009049b          	sext.w	s1,s2
    40002cce:	bf5d                	j	40002c84 <remove_chain+0x38>
    40002cd0:	4505                	li	a0,1
    40002cd2:	b759                	j	40002c58 <remove_chain+0xc>

0000000040002cd4 <f_mount>:
    40002cd4:	7139                	addi	sp,sp,-64
    40002cd6:	ec2a                	sd	a0,24(sp)
    40002cd8:	1028                	addi	a0,sp,40
    40002cda:	fc06                	sd	ra,56(sp)
    40002cdc:	e82e                	sd	a1,16(sp)
    40002cde:	e432                	sd	a2,8(sp)
    40002ce0:	f42e                	sd	a1,40(sp)
    40002ce2:	83eff0ef          	jal	ra,40001d20 <get_ldnumber>
    40002ce6:	04054263          	bltz	a0,40002d2a <f_mount+0x56>
    40002cea:	00006797          	auipc	a5,0x6
    40002cee:	bde78793          	addi	a5,a5,-1058 # 400088c8 <FatFs>
    40002cf2:	050e                	slli	a0,a0,0x3
    40002cf4:	00a78733          	add	a4,a5,a0
    40002cf8:	6318                	ld	a4,0(a4)
    40002cfa:	6622                	ld	a2,8(sp)
    40002cfc:	c319                	beqz	a4,40002d02 <f_mount+0x2e>
    40002cfe:	00070023          	sb	zero,0(a4)
    40002d02:	6762                	ld	a4,24(sp)
    40002d04:	c319                	beqz	a4,40002d0a <f_mount+0x36>
    40002d06:	00070023          	sb	zero,0(a4)
    40002d0a:	97aa                	add	a5,a5,a0
    40002d0c:	e398                	sd	a4,0(a5)
    40002d0e:	4501                	li	a0,0
    40002d10:	cb11                	beqz	a4,40002d24 <f_mount+0x50>
    40002d12:	4785                	li	a5,1
    40002d14:	00f61863          	bne	a2,a5,40002d24 <f_mount+0x50>
    40002d18:	4601                	li	a2,0
    40002d1a:	080c                	addi	a1,sp,16
    40002d1c:	0828                	addi	a0,sp,24
    40002d1e:	a0eff0ef          	jal	ra,40001f2c <find_volume>
    40002d22:	2501                	sext.w	a0,a0
    40002d24:	70e2                	ld	ra,56(sp)
    40002d26:	6121                	addi	sp,sp,64
    40002d28:	8082                	ret
    40002d2a:	452d                	li	a0,11
    40002d2c:	bfe5                	j	40002d24 <f_mount+0x50>

0000000040002d2e <f_open>:
    40002d2e:	7175                	addi	sp,sp,-144
    40002d30:	f8ca                	sd	s2,112(sp)
    40002d32:	e506                	sd	ra,136(sp)
    40002d34:	e122                	sd	s0,128(sp)
    40002d36:	fca6                	sd	s1,120(sp)
    40002d38:	f4ce                	sd	s3,104(sp)
    40002d3a:	f0d2                	sd	s4,96(sp)
    40002d3c:	ecd6                	sd	s5,88(sp)
    40002d3e:	e8da                	sd	s6,80(sp)
    40002d40:	e42e                	sd	a1,8(sp)
    40002d42:	4925                	li	s2,9
    40002d44:	14050d63          	beqz	a0,40002e9e <f_open+0x170>
    40002d48:	00053023          	sd	zero,0(a0)
    40002d4c:	89b2                	mv	s3,a2
    40002d4e:	84aa                	mv	s1,a0
    40002d50:	8a79                	andi	a2,a2,30
    40002d52:	002c                	addi	a1,sp,8
    40002d54:	1028                	addi	a0,sp,40
    40002d56:	9d6ff0ef          	jal	ra,40001f2c <find_volume>
    40002d5a:	0005091b          	sext.w	s2,a0
    40002d5e:	14091063          	bnez	s2,40002e9e <f_open+0x170>
    40002d62:	65a2                	ld	a1,8(sp)
    40002d64:	083c                	addi	a5,sp,24
    40002d66:	1028                	addi	a0,sp,40
    40002d68:	e4be                	sd	a5,72(sp)
    40002d6a:	b6dff0ef          	jal	ra,400028d6 <follow_path>
    40002d6e:	2501                	sext.w	a0,a0
    40002d70:	6406                	ld	s0,64(sp)
    40002d72:	e119                	bnez	a0,40002d78 <f_open+0x4a>
    40002d74:	e011                	bnez	s0,40002d78 <f_open+0x4a>
    40002d76:	4519                	li	a0,6
    40002d78:	01c9f793          	andi	a5,s3,28
    40002d7c:	01f9fa13          	andi	s4,s3,31
    40002d80:	c3e1                	beqz	a5,40002e40 <f_open+0x112>
    40002d82:	c54d                	beqz	a0,40002e2c <f_open+0xfe>
    40002d84:	4791                	li	a5,4
    40002d86:	00f51663          	bne	a0,a5,40002d92 <f_open+0x64>
    40002d8a:	1028                	addi	a0,sp,40
    40002d8c:	e75ff0ef          	jal	ra,40002c00 <dir_register>
    40002d90:	2501                	sext.w	a0,a0
    40002d92:	008a6a13          	ori	s4,s4,8
    40002d96:	e949                	bnez	a0,40002e28 <f_open+0xfa>
    40002d98:	6406                	ld	s0,64(sp)
    40002d9a:	008a7793          	andi	a5,s4,8
    40002d9e:	cfcd                	beqz	a5,40002e58 <f_open+0x12a>
    40002da0:	7aa2                	ld	s5,40(sp)
    40002da2:	04600793          	li	a5,70
    40002da6:	02100713          	li	a4,33
    40002daa:	00f408a3          	sb	a5,17(s0)
    40002dae:	00f40ca3          	sb	a5,25(s0)
    40002db2:	00040723          	sb	zero,14(s0)
    40002db6:	000407a3          	sb	zero,15(s0)
    40002dba:	00e40823          	sb	a4,16(s0)
    40002dbe:	00040b23          	sb	zero,22(s0)
    40002dc2:	00040ba3          	sb	zero,23(s0)
    40002dc6:	00e40c23          	sb	a4,24(s0)
    40002dca:	000405a3          	sb	zero,11(s0)
    40002dce:	00040e23          	sb	zero,28(s0)
    40002dd2:	00040ea3          	sb	zero,29(s0)
    40002dd6:	00040f23          	sb	zero,30(s0)
    40002dda:	00040fa3          	sb	zero,31(s0)
    40002dde:	000ac503          	lbu	a0,0(s5)
    40002de2:	85a2                	mv	a1,s0
    40002de4:	fc9fe0ef          	jal	ra,40001dac <ld_clust.isra.0>
    40002de8:	4785                	li	a5,1
    40002dea:	00040d23          	sb	zero,26(s0)
    40002dee:	00040da3          	sb	zero,27(s0)
    40002df2:	00040a23          	sb	zero,20(s0)
    40002df6:	00040aa3          	sb	zero,21(s0)
    40002dfa:	0005099b          	sext.w	s3,a0
    40002dfe:	00fa8223          	sb	a5,4(s5)
    40002e02:	04098b63          	beqz	s3,40002e58 <f_open+0x12a>
    40002e06:	85ce                	mv	a1,s3
    40002e08:	8556                	mv	a0,s5
    40002e0a:	030aab03          	lw	s6,48(s5)
    40002e0e:	e3fff0ef          	jal	ra,40002c4c <remove_chain>
    40002e12:	2501                	sext.w	a0,a0
    40002e14:	e911                	bnez	a0,40002e28 <f_open+0xfa>
    40002e16:	7522                	ld	a0,40(sp)
    40002e18:	39fd                	addiw	s3,s3,-1
    40002e1a:	85da                	mv	a1,s6
    40002e1c:	01352623          	sw	s3,12(a0)
    40002e20:	83aff0ef          	jal	ra,40001e5a <move_window>
    40002e24:	2501                	sext.w	a0,a0
    40002e26:	c90d                	beqz	a0,40002e58 <f_open+0x12a>
    40002e28:	892a                	mv	s2,a0
    40002e2a:	a895                	j	40002e9e <f_open+0x170>
    40002e2c:	00b44783          	lbu	a5,11(s0)
    40002e30:	8bc5                	andi	a5,a5,17
    40002e32:	e3d9                	bnez	a5,40002eb8 <f_open+0x18a>
    40002e34:	0049f993          	andi	s3,s3,4
    40002e38:	f60981e3          	beqz	s3,40002d9a <f_open+0x6c>
    40002e3c:	4921                	li	s2,8
    40002e3e:	a085                	j	40002e9e <f_open+0x170>
    40002e40:	f565                	bnez	a0,40002e28 <f_open+0xfa>
    40002e42:	00b44783          	lbu	a5,11(s0)
    40002e46:	0107f713          	andi	a4,a5,16
    40002e4a:	e72d                	bnez	a4,40002eb4 <f_open+0x186>
    40002e4c:	0029f993          	andi	s3,s3,2
    40002e50:	00098463          	beqz	s3,40002e58 <f_open+0x12a>
    40002e54:	8b85                	andi	a5,a5,1
    40002e56:	e3ad                	bnez	a5,40002eb8 <f_open+0x18a>
    40002e58:	008a7793          	andi	a5,s4,8
    40002e5c:	c399                	beqz	a5,40002e62 <f_open+0x134>
    40002e5e:	020a6a13          	ori	s4,s4,32
    40002e62:	79a2                	ld	s3,40(sp)
    40002e64:	85a2                	mv	a1,s0
    40002e66:	0309a783          	lw	a5,48(s3)
    40002e6a:	f480                	sd	s0,40(s1)
    40002e6c:	01448523          	sb	s4,10(s1)
    40002e70:	d09c                	sw	a5,32(s1)
    40002e72:	000485a3          	sb	zero,11(s1)
    40002e76:	0009c503          	lbu	a0,0(s3)
    40002e7a:	f33fe0ef          	jal	ra,40001dac <ld_clust.isra.0>
    40002e7e:	c8c8                	sw	a0,20(s1)
    40002e80:	01c40513          	addi	a0,s0,28
    40002e84:	dbbfe0ef          	jal	ra,40001c3e <LD_DWORD>
    40002e88:	0069d783          	lhu	a5,6(s3)
    40002e8c:	c888                	sw	a0,16(s1)
    40002e8e:	0004a623          	sw	zero,12(s1)
    40002e92:	0004ae23          	sw	zero,28(s1)
    40002e96:	0134b023          	sd	s3,0(s1)
    40002e9a:	00f49423          	sh	a5,8(s1)
    40002e9e:	60aa                	ld	ra,136(sp)
    40002ea0:	640a                	ld	s0,128(sp)
    40002ea2:	854a                	mv	a0,s2
    40002ea4:	74e6                	ld	s1,120(sp)
    40002ea6:	7946                	ld	s2,112(sp)
    40002ea8:	79a6                	ld	s3,104(sp)
    40002eaa:	7a06                	ld	s4,96(sp)
    40002eac:	6ae6                	ld	s5,88(sp)
    40002eae:	6b46                	ld	s6,80(sp)
    40002eb0:	6149                	addi	sp,sp,144
    40002eb2:	8082                	ret
    40002eb4:	4911                	li	s2,4
    40002eb6:	b7e5                	j	40002e9e <f_open+0x170>
    40002eb8:	491d                	li	s2,7
    40002eba:	b7d5                	j	40002e9e <f_open+0x170>

0000000040002ebc <f_read>:
    40002ebc:	7119                	addi	sp,sp,-128
    40002ebe:	f8a2                	sd	s0,112(sp)
    40002ec0:	ecce                	sd	s3,88(sp)
    40002ec2:	e8d2                	sd	s4,80(sp)
    40002ec4:	e4d6                	sd	s5,72(sp)
    40002ec6:	fc86                	sd	ra,120(sp)
    40002ec8:	f4a6                	sd	s1,104(sp)
    40002eca:	f0ca                	sd	s2,96(sp)
    40002ecc:	e0da                	sd	s6,64(sp)
    40002ece:	fc5e                	sd	s7,56(sp)
    40002ed0:	f862                	sd	s8,48(sp)
    40002ed2:	f466                	sd	s9,40(sp)
    40002ed4:	f06a                	sd	s10,32(sp)
    40002ed6:	ec6e                	sd	s11,24(sp)
    40002ed8:	0006a023          	sw	zero,0(a3) # 1000 <_tbss_end+0x1000>
    40002edc:	842a                	mv	s0,a0
    40002ede:	8a2e                	mv	s4,a1
    40002ee0:	e432                	sd	a2,8(sp)
    40002ee2:	8ab6                	mv	s5,a3
    40002ee4:	e91fe0ef          	jal	ra,40001d74 <validate>
    40002ee8:	0005099b          	sext.w	s3,a0
    40002eec:	00099863          	bnez	s3,40002efc <f_read+0x40>
    40002ef0:	00b44783          	lbu	a5,11(s0)
    40002ef4:	6622                	ld	a2,8(sp)
    40002ef6:	c39d                	beqz	a5,40002f1c <f_read+0x60>
    40002ef8:	0007899b          	sext.w	s3,a5
    40002efc:	70e6                	ld	ra,120(sp)
    40002efe:	7446                	ld	s0,112(sp)
    40002f00:	854e                	mv	a0,s3
    40002f02:	74a6                	ld	s1,104(sp)
    40002f04:	7906                	ld	s2,96(sp)
    40002f06:	69e6                	ld	s3,88(sp)
    40002f08:	6a46                	ld	s4,80(sp)
    40002f0a:	6aa6                	ld	s5,72(sp)
    40002f0c:	6b06                	ld	s6,64(sp)
    40002f0e:	7be2                	ld	s7,56(sp)
    40002f10:	7c42                	ld	s8,48(sp)
    40002f12:	7ca2                	ld	s9,40(sp)
    40002f14:	7d02                	ld	s10,32(sp)
    40002f16:	6de2                	ld	s11,24(sp)
    40002f18:	6109                	addi	sp,sp,128
    40002f1a:	8082                	ret
    40002f1c:	00a44783          	lbu	a5,10(s0)
    40002f20:	8b85                	andi	a5,a5,1
    40002f22:	16078963          	beqz	a5,40003094 <f_read+0x1d8>
    40002f26:	01042903          	lw	s2,16(s0)
    40002f2a:	445c                	lw	a5,12(s0)
    40002f2c:	40f907bb          	subw	a5,s2,a5
    40002f30:	893e                	mv	s2,a5
    40002f32:	00f67463          	bleu	a5,a2,40002f3a <f_read+0x7e>
    40002f36:	0006091b          	sext.w	s2,a2
    40002f3a:	20000b93          	li	s7,512
    40002f3e:	03040b13          	addi	s6,s0,48
    40002f42:	5c7d                	li	s8,-1
    40002f44:	fa090ce3          	beqz	s2,40002efc <f_read+0x40>
    40002f48:	4458                	lw	a4,12(s0)
    40002f4a:	1ff77793          	andi	a5,a4,511
    40002f4e:	12079063          	bnez	a5,4000306e <f_read+0x1b2>
    40002f52:	6008                	ld	a0,0(s0)
    40002f54:	00975c9b          	srliw	s9,a4,0x9
    40002f58:	00254783          	lbu	a5,2(a0)
    40002f5c:	37fd                	addiw	a5,a5,-1
    40002f5e:	0197fcb3          	and	s9,a5,s9
    40002f62:	0ffcfc93          	andi	s9,s9,255
    40002f66:	020c9963          	bnez	s9,40002f98 <f_read+0xdc>
    40002f6a:	eb11                	bnez	a4,40002f7e <f_read+0xc2>
    40002f6c:	4848                	lw	a0,20(s0)
    40002f6e:	4785                	li	a5,1
    40002f70:	00a7ec63          	bltu	a5,a0,40002f88 <f_read+0xcc>
    40002f74:	4789                	li	a5,2
    40002f76:	00f405a3          	sb	a5,11(s0)
    40002f7a:	4989                	li	s3,2
    40002f7c:	b741                	j	40002efc <f_read+0x40>
    40002f7e:	4c0c                	lw	a1,24(s0)
    40002f80:	bd6ff0ef          	jal	ra,40002356 <get_fat>
    40002f84:	2501                	sext.w	a0,a0
    40002f86:	b7e5                	j	40002f6e <f_read+0xb2>
    40002f88:	01851763          	bne	a0,s8,40002f96 <f_read+0xda>
    40002f8c:	4785                	li	a5,1
    40002f8e:	00f405a3          	sb	a5,11(s0)
    40002f92:	4985                	li	s3,1
    40002f94:	b7a5                	j	40002efc <f_read+0x40>
    40002f96:	cc08                	sw	a0,24(s0)
    40002f98:	00043d83          	ld	s11,0(s0)
    40002f9c:	4c0c                	lw	a1,24(s0)
    40002f9e:	856e                	mv	a0,s11
    40002fa0:	b98ff0ef          	jal	ra,40002338 <clust2sect>
    40002fa4:	2501                	sext.w	a0,a0
    40002fa6:	d579                	beqz	a0,40002f74 <f_read+0xb8>
    40002fa8:	000c861b          	sext.w	a2,s9
    40002fac:	0099579b          	srliw	a5,s2,0x9
    40002fb0:	00a6073b          	addw	a4,a2,a0
    40002fb4:	0007849b          	sext.w	s1,a5
    40002fb8:	8d3a                	mv	s10,a4
    40002fba:	c4b5                	beqz	s1,40003026 <f_read+0x16a>
    40002fbc:	002dc683          	lbu	a3,2(s11)
    40002fc0:	9fb1                	addw	a5,a5,a2
    40002fc2:	00f6f463          	bleu	a5,a3,40002fca <f_read+0x10e>
    40002fc6:	419684bb          	subw	s1,a3,s9
    40002fca:	001dc503          	lbu	a0,1(s11)
    40002fce:	86a6                	mv	a3,s1
    40002fd0:	863a                	mv	a2,a4
    40002fd2:	85d2                	mv	a1,s4
    40002fd4:	06d030ef          	jal	ra,40006840 <disk_read>
    40002fd8:	2501                	sext.w	a0,a0
    40002fda:	f94d                	bnez	a0,40002f8c <f_read+0xd0>
    40002fdc:	00a44783          	lbu	a5,10(s0)
    40002fe0:	0407f793          	andi	a5,a5,64
    40002fe4:	c385                	beqz	a5,40003004 <f_read+0x148>
    40002fe6:	4c48                	lw	a0,28(s0)
    40002fe8:	41a507bb          	subw	a5,a0,s10
    40002fec:	0097fc63          	bleu	s1,a5,40003004 <f_read+0x148>
    40002ff0:	0097951b          	slliw	a0,a5,0x9
    40002ff4:	1502                	slli	a0,a0,0x20
    40002ff6:	9101                	srli	a0,a0,0x20
    40002ff8:	20000613          	li	a2,512
    40002ffc:	85da                	mv	a1,s6
    40002ffe:	9552                	add	a0,a0,s4
    40003000:	c5ffe0ef          	jal	ra,40001c5e <mem_cpy>
    40003004:	0094949b          	slliw	s1,s1,0x9
    40003008:	02049793          	slli	a5,s1,0x20
    4000300c:	9381                	srli	a5,a5,0x20
    4000300e:	9a3e                	add	s4,s4,a5
    40003010:	445c                	lw	a5,12(s0)
    40003012:	4099093b          	subw	s2,s2,s1
    40003016:	9fa5                	addw	a5,a5,s1
    40003018:	c45c                	sw	a5,12(s0)
    4000301a:	000aa783          	lw	a5,0(s5)
    4000301e:	9fa5                	addw	a5,a5,s1
    40003020:	00faa023          	sw	a5,0(s5)
    40003024:	b705                	j	40002f44 <f_read+0x88>
    40003026:	4c50                	lw	a2,28(s0)
    40003028:	04e60163          	beq	a2,a4,4000306a <f_read+0x1ae>
    4000302c:	00a44783          	lbu	a5,10(s0)
    40003030:	0407f793          	andi	a5,a5,64
    40003034:	c38d                	beqz	a5,40003056 <f_read+0x19a>
    40003036:	001dc503          	lbu	a0,1(s11)
    4000303a:	4685                	li	a3,1
    4000303c:	85da                	mv	a1,s6
    4000303e:	e43a                	sd	a4,8(sp)
    40003040:	065030ef          	jal	ra,400068a4 <disk_write>
    40003044:	2501                	sext.w	a0,a0
    40003046:	f139                	bnez	a0,40002f8c <f_read+0xd0>
    40003048:	00a44783          	lbu	a5,10(s0)
    4000304c:	6722                	ld	a4,8(sp)
    4000304e:	fbf7f793          	andi	a5,a5,-65
    40003052:	00f40523          	sb	a5,10(s0)
    40003056:	601c                	ld	a5,0(s0)
    40003058:	4685                	li	a3,1
    4000305a:	863a                	mv	a2,a4
    4000305c:	0017c503          	lbu	a0,1(a5)
    40003060:	85da                	mv	a1,s6
    40003062:	7de030ef          	jal	ra,40006840 <disk_read>
    40003066:	2501                	sext.w	a0,a0
    40003068:	f115                	bnez	a0,40002f8c <f_read+0xd0>
    4000306a:	01a42e23          	sw	s10,28(s0)
    4000306e:	444c                	lw	a1,12(s0)
    40003070:	0009049b          	sext.w	s1,s2
    40003074:	1ff5f593          	andi	a1,a1,511
    40003078:	40bb87bb          	subw	a5,s7,a1
    4000307c:	0127f463          	bleu	s2,a5,40003084 <f_read+0x1c8>
    40003080:	0007849b          	sext.w	s1,a5
    40003084:	03058593          	addi	a1,a1,48
    40003088:	8626                	mv	a2,s1
    4000308a:	95a2                	add	a1,a1,s0
    4000308c:	8552                	mv	a0,s4
    4000308e:	bd1fe0ef          	jal	ra,40001c5e <mem_cpy>
    40003092:	bf9d                	j	40003008 <f_read+0x14c>
    40003094:	499d                	li	s3,7
    40003096:	b59d                	j	40002efc <f_read+0x40>

0000000040003098 <f_write>:
    40003098:	7159                	addi	sp,sp,-112
    4000309a:	f0a2                	sd	s0,96(sp)
    4000309c:	e8ca                	sd	s2,80(sp)
    4000309e:	e4ce                	sd	s3,72(sp)
    400030a0:	e0d2                	sd	s4,64(sp)
    400030a2:	fc56                	sd	s5,56(sp)
    400030a4:	f486                	sd	ra,104(sp)
    400030a6:	eca6                	sd	s1,88(sp)
    400030a8:	f85a                	sd	s6,48(sp)
    400030aa:	f45e                	sd	s7,40(sp)
    400030ac:	f062                	sd	s8,32(sp)
    400030ae:	ec66                	sd	s9,24(sp)
    400030b0:	e86a                	sd	s10,16(sp)
    400030b2:	e46e                	sd	s11,8(sp)
    400030b4:	0006a023          	sw	zero,0(a3)
    400030b8:	842a                	mv	s0,a0
    400030ba:	8a2e                	mv	s4,a1
    400030bc:	8932                	mv	s2,a2
    400030be:	8ab6                	mv	s5,a3
    400030c0:	cb5fe0ef          	jal	ra,40001d74 <validate>
    400030c4:	0005099b          	sext.w	s3,a0
    400030c8:	00099763          	bnez	s3,400030d6 <f_write+0x3e>
    400030cc:	00b44783          	lbu	a5,11(s0)
    400030d0:	c39d                	beqz	a5,400030f6 <f_write+0x5e>
    400030d2:	0007899b          	sext.w	s3,a5
    400030d6:	70a6                	ld	ra,104(sp)
    400030d8:	7406                	ld	s0,96(sp)
    400030da:	854e                	mv	a0,s3
    400030dc:	64e6                	ld	s1,88(sp)
    400030de:	6946                	ld	s2,80(sp)
    400030e0:	69a6                	ld	s3,72(sp)
    400030e2:	6a06                	ld	s4,64(sp)
    400030e4:	7ae2                	ld	s5,56(sp)
    400030e6:	7b42                	ld	s6,48(sp)
    400030e8:	7ba2                	ld	s7,40(sp)
    400030ea:	7c02                	ld	s8,32(sp)
    400030ec:	6ce2                	ld	s9,24(sp)
    400030ee:	6d42                	ld	s10,16(sp)
    400030f0:	6da2                	ld	s11,8(sp)
    400030f2:	6165                	addi	sp,sp,112
    400030f4:	8082                	ret
    400030f6:	00a44783          	lbu	a5,10(s0)
    400030fa:	8b89                	andi	a5,a5,2
    400030fc:	18078f63          	beqz	a5,4000329a <f_write+0x202>
    40003100:	445c                	lw	a5,12(s0)
    40003102:	0127873b          	addw	a4,a5,s2
    40003106:	04f76c63          	bltu	a4,a5,4000315e <f_write+0xc6>
    4000310a:	20000b93          	li	s7,512
    4000310e:	03040b13          	addi	s6,s0,48
    40003112:	5c7d                	li	s8,-1
    40003114:	4458                	lw	a4,12(s0)
    40003116:	04090463          	beqz	s2,4000315e <f_write+0xc6>
    4000311a:	1ff77793          	andi	a5,a4,511
    4000311e:	14079363          	bnez	a5,40003264 <f_write+0x1cc>
    40003122:	6008                	ld	a0,0(s0)
    40003124:	00975c9b          	srliw	s9,a4,0x9
    40003128:	00254783          	lbu	a5,2(a0)
    4000312c:	37fd                	addiw	a5,a5,-1
    4000312e:	0197fcb3          	and	s9,a5,s9
    40003132:	0ffcfc93          	andi	s9,s9,255
    40003136:	040c9a63          	bnez	s9,4000318a <f_write+0xf2>
    4000313a:	ef01                	bnez	a4,40003152 <f_write+0xba>
    4000313c:	485c                	lw	a5,20(s0)
    4000313e:	4581                	li	a1,0
    40003140:	cb91                	beqz	a5,40003154 <f_write+0xbc>
    40003142:	4705                	li	a4,1
    40003144:	02e79863          	bne	a5,a4,40003174 <f_write+0xdc>
    40003148:	4789                	li	a5,2
    4000314a:	00f405a3          	sb	a5,11(s0)
    4000314e:	4989                	li	s3,2
    40003150:	b759                	j	400030d6 <f_write+0x3e>
    40003152:	4c0c                	lw	a1,24(s0)
    40003154:	d86ff0ef          	jal	ra,400026da <create_chain>
    40003158:	0005079b          	sext.w	a5,a0
    4000315c:	f3fd                	bnez	a5,40003142 <f_write+0xaa>
    4000315e:	445c                	lw	a5,12(s0)
    40003160:	4818                	lw	a4,16(s0)
    40003162:	12f76a63          	bltu	a4,a5,40003296 <f_write+0x1fe>
    40003166:	00a44783          	lbu	a5,10(s0)
    4000316a:	0207e793          	ori	a5,a5,32
    4000316e:	00f40523          	sb	a5,10(s0)
    40003172:	b795                	j	400030d6 <f_write+0x3e>
    40003174:	01879763          	bne	a5,s8,40003182 <f_write+0xea>
    40003178:	4785                	li	a5,1
    4000317a:	00f405a3          	sb	a5,11(s0)
    4000317e:	4985                	li	s3,1
    40003180:	bf99                	j	400030d6 <f_write+0x3e>
    40003182:	4858                	lw	a4,20(s0)
    40003184:	cc1c                	sw	a5,24(s0)
    40003186:	e311                	bnez	a4,4000318a <f_write+0xf2>
    40003188:	c85c                	sw	a5,20(s0)
    4000318a:	00a44783          	lbu	a5,10(s0)
    4000318e:	0407f793          	andi	a5,a5,64
    40003192:	c38d                	beqz	a5,400031b4 <f_write+0x11c>
    40003194:	601c                	ld	a5,0(s0)
    40003196:	4c50                	lw	a2,28(s0)
    40003198:	4685                	li	a3,1
    4000319a:	0017c503          	lbu	a0,1(a5)
    4000319e:	85da                	mv	a1,s6
    400031a0:	704030ef          	jal	ra,400068a4 <disk_write>
    400031a4:	2501                	sext.w	a0,a0
    400031a6:	f969                	bnez	a0,40003178 <f_write+0xe0>
    400031a8:	00a44783          	lbu	a5,10(s0)
    400031ac:	fbf7f793          	andi	a5,a5,-65
    400031b0:	00f40523          	sb	a5,10(s0)
    400031b4:	00043d83          	ld	s11,0(s0)
    400031b8:	4c0c                	lw	a1,24(s0)
    400031ba:	856e                	mv	a0,s11
    400031bc:	97cff0ef          	jal	ra,40002338 <clust2sect>
    400031c0:	2501                	sext.w	a0,a0
    400031c2:	d159                	beqz	a0,40003148 <f_write+0xb0>
    400031c4:	000c869b          	sext.w	a3,s9
    400031c8:	0099579b          	srliw	a5,s2,0x9
    400031cc:	00a6863b          	addw	a2,a3,a0
    400031d0:	0007849b          	sext.w	s1,a5
    400031d4:	8d32                	mv	s10,a2
    400031d6:	c4b5                	beqz	s1,40003242 <f_write+0x1aa>
    400031d8:	002dc703          	lbu	a4,2(s11)
    400031dc:	9fb5                	addw	a5,a5,a3
    400031de:	00f77463          	bleu	a5,a4,400031e6 <f_write+0x14e>
    400031e2:	419704bb          	subw	s1,a4,s9
    400031e6:	001dc503          	lbu	a0,1(s11)
    400031ea:	86a6                	mv	a3,s1
    400031ec:	85d2                	mv	a1,s4
    400031ee:	6b6030ef          	jal	ra,400068a4 <disk_write>
    400031f2:	2501                	sext.w	a0,a0
    400031f4:	f151                	bnez	a0,40003178 <f_write+0xe0>
    400031f6:	4c4c                	lw	a1,28(s0)
    400031f8:	41a587bb          	subw	a5,a1,s10
    400031fc:	0297f263          	bleu	s1,a5,40003220 <f_write+0x188>
    40003200:	0097959b          	slliw	a1,a5,0x9
    40003204:	1582                	slli	a1,a1,0x20
    40003206:	9181                	srli	a1,a1,0x20
    40003208:	20000613          	li	a2,512
    4000320c:	95d2                	add	a1,a1,s4
    4000320e:	855a                	mv	a0,s6
    40003210:	a4ffe0ef          	jal	ra,40001c5e <mem_cpy>
    40003214:	00a44783          	lbu	a5,10(s0)
    40003218:	fbf7f793          	andi	a5,a5,-65
    4000321c:	00f40523          	sb	a5,10(s0)
    40003220:	0094949b          	slliw	s1,s1,0x9
    40003224:	02049793          	slli	a5,s1,0x20
    40003228:	9381                	srli	a5,a5,0x20
    4000322a:	9a3e                	add	s4,s4,a5
    4000322c:	445c                	lw	a5,12(s0)
    4000322e:	4099093b          	subw	s2,s2,s1
    40003232:	9fa5                	addw	a5,a5,s1
    40003234:	c45c                	sw	a5,12(s0)
    40003236:	000aa783          	lw	a5,0(s5)
    4000323a:	9fa5                	addw	a5,a5,s1
    4000323c:	00faa023          	sw	a5,0(s5)
    40003240:	bdd1                	j	40003114 <f_write+0x7c>
    40003242:	4c5c                	lw	a5,28(s0)
    40003244:	00c78e63          	beq	a5,a2,40003260 <f_write+0x1c8>
    40003248:	4818                	lw	a4,16(s0)
    4000324a:	445c                	lw	a5,12(s0)
    4000324c:	00e7fa63          	bleu	a4,a5,40003260 <f_write+0x1c8>
    40003250:	001dc503          	lbu	a0,1(s11)
    40003254:	4685                	li	a3,1
    40003256:	85da                	mv	a1,s6
    40003258:	5e8030ef          	jal	ra,40006840 <disk_read>
    4000325c:	2501                	sext.w	a0,a0
    4000325e:	fd09                	bnez	a0,40003178 <f_write+0xe0>
    40003260:	01a42e23          	sw	s10,28(s0)
    40003264:	4448                	lw	a0,12(s0)
    40003266:	0009049b          	sext.w	s1,s2
    4000326a:	1ff57513          	andi	a0,a0,511
    4000326e:	40ab87bb          	subw	a5,s7,a0
    40003272:	0127f463          	bleu	s2,a5,4000327a <f_write+0x1e2>
    40003276:	0007849b          	sext.w	s1,a5
    4000327a:	03050513          	addi	a0,a0,48
    4000327e:	8626                	mv	a2,s1
    40003280:	85d2                	mv	a1,s4
    40003282:	9522                	add	a0,a0,s0
    40003284:	9dbfe0ef          	jal	ra,40001c5e <mem_cpy>
    40003288:	00a44783          	lbu	a5,10(s0)
    4000328c:	0407e793          	ori	a5,a5,64
    40003290:	00f40523          	sb	a5,10(s0)
    40003294:	bf41                	j	40003224 <f_write+0x18c>
    40003296:	c81c                	sw	a5,16(s0)
    40003298:	b5f9                	j	40003166 <f_write+0xce>
    4000329a:	499d                	li	s3,7
    4000329c:	bd2d                	j	400030d6 <f_write+0x3e>

000000004000329e <f_sync>:
    4000329e:	1141                	addi	sp,sp,-16
    400032a0:	e022                	sd	s0,0(sp)
    400032a2:	e406                	sd	ra,8(sp)
    400032a4:	842a                	mv	s0,a0
    400032a6:	acffe0ef          	jal	ra,40001d74 <validate>
    400032aa:	2501                	sext.w	a0,a0
    400032ac:	e175                	bnez	a0,40003390 <f_sync+0xf2>
    400032ae:	00a44783          	lbu	a5,10(s0)
    400032b2:	0207f713          	andi	a4,a5,32
    400032b6:	cf69                	beqz	a4,40003390 <f_sync+0xf2>
    400032b8:	0407f793          	andi	a5,a5,64
    400032bc:	c395                	beqz	a5,400032e0 <f_sync+0x42>
    400032be:	601c                	ld	a5,0(s0)
    400032c0:	4c50                	lw	a2,28(s0)
    400032c2:	4685                	li	a3,1
    400032c4:	0017c503          	lbu	a0,1(a5)
    400032c8:	03040593          	addi	a1,s0,48
    400032cc:	5d8030ef          	jal	ra,400068a4 <disk_write>
    400032d0:	2501                	sext.w	a0,a0
    400032d2:	ed55                	bnez	a0,4000338e <f_sync+0xf0>
    400032d4:	00a44783          	lbu	a5,10(s0)
    400032d8:	fbf7f793          	andi	a5,a5,-65
    400032dc:	00f40523          	sb	a5,10(s0)
    400032e0:	500c                	lw	a1,32(s0)
    400032e2:	6008                	ld	a0,0(s0)
    400032e4:	b77fe0ef          	jal	ra,40001e5a <move_window>
    400032e8:	2501                	sext.w	a0,a0
    400032ea:	e15d                	bnez	a0,40003390 <f_sync+0xf2>
    400032ec:	741c                	ld	a5,40(s0)
    400032ee:	00b7c703          	lbu	a4,11(a5)
    400032f2:	02076713          	ori	a4,a4,32
    400032f6:	00e785a3          	sb	a4,11(a5)
    400032fa:	4818                	lw	a4,16(s0)
    400032fc:	0107169b          	slliw	a3,a4,0x10
    40003300:	0106d69b          	srliw	a3,a3,0x10
    40003304:	0086d69b          	srliw	a3,a3,0x8
    40003308:	00e78e23          	sb	a4,28(a5)
    4000330c:	00d78ea3          	sb	a3,29(a5)
    40003310:	0107569b          	srliw	a3,a4,0x10
    40003314:	0187571b          	srliw	a4,a4,0x18
    40003318:	00d78f23          	sb	a3,30(a5)
    4000331c:	00e78fa3          	sb	a4,31(a5)
    40003320:	4858                	lw	a4,20(s0)
    40003322:	00078b23          	sb	zero,22(a5)
    40003326:	00078ba3          	sb	zero,23(a5)
    4000332a:	00e78d23          	sb	a4,26(a5)
    4000332e:	0107169b          	slliw	a3,a4,0x10
    40003332:	0107571b          	srliw	a4,a4,0x10
    40003336:	2701                	sext.w	a4,a4
    40003338:	00e78a23          	sb	a4,20(a5)
    4000333c:	0107171b          	slliw	a4,a4,0x10
    40003340:	0107571b          	srliw	a4,a4,0x10
    40003344:	0087571b          	srliw	a4,a4,0x8
    40003348:	00e78aa3          	sb	a4,21(a5)
    4000334c:	0106d69b          	srliw	a3,a3,0x10
    40003350:	02100713          	li	a4,33
    40003354:	00e78c23          	sb	a4,24(a5)
    40003358:	0086d69b          	srliw	a3,a3,0x8
    4000335c:	04600713          	li	a4,70
    40003360:	00d78da3          	sb	a3,27(a5)
    40003364:	00e78ca3          	sb	a4,25(a5)
    40003368:	00078923          	sb	zero,18(a5)
    4000336c:	000789a3          	sb	zero,19(a5)
    40003370:	00a44783          	lbu	a5,10(s0)
    40003374:	6008                	ld	a0,0(s0)
    40003376:	fdf7f793          	andi	a5,a5,-33
    4000337a:	00f40523          	sb	a5,10(s0)
    4000337e:	4785                	li	a5,1
    40003380:	00f50223          	sb	a5,4(a0)
    40003384:	6402                	ld	s0,0(sp)
    40003386:	60a2                	ld	ra,8(sp)
    40003388:	0141                	addi	sp,sp,16
    4000338a:	ebbfe06f          	j	40002244 <sync_fs>
    4000338e:	4505                	li	a0,1
    40003390:	60a2                	ld	ra,8(sp)
    40003392:	6402                	ld	s0,0(sp)
    40003394:	0141                	addi	sp,sp,16
    40003396:	8082                	ret

0000000040003398 <f_close>:
    40003398:	1141                	addi	sp,sp,-16
    4000339a:	e022                	sd	s0,0(sp)
    4000339c:	e406                	sd	ra,8(sp)
    4000339e:	842a                	mv	s0,a0
    400033a0:	effff0ef          	jal	ra,4000329e <f_sync>
    400033a4:	2501                	sext.w	a0,a0
    400033a6:	e901                	bnez	a0,400033b6 <f_close+0x1e>
    400033a8:	8522                	mv	a0,s0
    400033aa:	9cbfe0ef          	jal	ra,40001d74 <validate>
    400033ae:	2501                	sext.w	a0,a0
    400033b0:	e119                	bnez	a0,400033b6 <f_close+0x1e>
    400033b2:	00043023          	sd	zero,0(s0)
    400033b6:	60a2                	ld	ra,8(sp)
    400033b8:	6402                	ld	s0,0(sp)
    400033ba:	0141                	addi	sp,sp,16
    400033bc:	8082                	ret

00000000400033be <f_chdrive>:
    400033be:	1101                	addi	sp,sp,-32
    400033c0:	e42a                	sd	a0,8(sp)
    400033c2:	0028                	addi	a0,sp,8
    400033c4:	ec06                	sd	ra,24(sp)
    400033c6:	95bfe0ef          	jal	ra,40001d20 <get_ldnumber>
    400033ca:	00054a63          	bltz	a0,400033de <f_chdrive+0x20>
    400033ce:	00005797          	auipc	a5,0x5
    400033d2:	98a78b23          	sb	a0,-1642(a5) # 40007d64 <CurrVol>
    400033d6:	4501                	li	a0,0
    400033d8:	60e2                	ld	ra,24(sp)
    400033da:	6105                	addi	sp,sp,32
    400033dc:	8082                	ret
    400033de:	452d                	li	a0,11
    400033e0:	bfe5                	j	400033d8 <f_chdrive+0x1a>

00000000400033e2 <f_chdir>:
    400033e2:	7159                	addi	sp,sp,-112
    400033e4:	e42a                	sd	a0,8(sp)
    400033e6:	4601                	li	a2,0
    400033e8:	002c                	addi	a1,sp,8
    400033ea:	1028                	addi	a0,sp,40
    400033ec:	f0a2                	sd	s0,96(sp)
    400033ee:	f486                	sd	ra,104(sp)
    400033f0:	eca6                	sd	s1,88(sp)
    400033f2:	b3bfe0ef          	jal	ra,40001f2c <find_volume>
    400033f6:	0005041b          	sext.w	s0,a0
    400033fa:	ec19                	bnez	s0,40003418 <f_chdir+0x36>
    400033fc:	65a2                	ld	a1,8(sp)
    400033fe:	083c                	addi	a5,sp,24
    40003400:	1028                	addi	a0,sp,40
    40003402:	e4be                	sd	a5,72(sp)
    40003404:	cd2ff0ef          	jal	ra,400028d6 <follow_path>
    40003408:	0005041b          	sext.w	s0,a0
    4000340c:	e41d                	bnez	s0,4000343a <f_chdir+0x58>
    4000340e:	6586                	ld	a1,64(sp)
    40003410:	e991                	bnez	a1,40003424 <f_chdir+0x42>
    40003412:	77a2                	ld	a5,40(sp)
    40003414:	5752                	lw	a4,52(sp)
    40003416:	cbd8                	sw	a4,20(a5)
    40003418:	8522                	mv	a0,s0
    4000341a:	70a6                	ld	ra,104(sp)
    4000341c:	7406                	ld	s0,96(sp)
    4000341e:	64e6                	ld	s1,88(sp)
    40003420:	6165                	addi	sp,sp,112
    40003422:	8082                	ret
    40003424:	00b5c783          	lbu	a5,11(a1)
    40003428:	8bc1                	andi	a5,a5,16
    4000342a:	cb99                	beqz	a5,40003440 <f_chdir+0x5e>
    4000342c:	74a2                	ld	s1,40(sp)
    4000342e:	0004c503          	lbu	a0,0(s1)
    40003432:	97bfe0ef          	jal	ra,40001dac <ld_clust.isra.0>
    40003436:	c8c8                	sw	a0,20(s1)
    40003438:	b7c5                	j	40003418 <f_chdir+0x36>
    4000343a:	4791                	li	a5,4
    4000343c:	fcf41ee3          	bne	s0,a5,40003418 <f_chdir+0x36>
    40003440:	4415                	li	s0,5
    40003442:	bfd9                	j	40003418 <f_chdir+0x36>

0000000040003444 <f_getcwd>:
    40003444:	7175                	addi	sp,sp,-144
    40003446:	fca6                	sd	s1,120(sp)
    40003448:	e42a                	sd	a0,8(sp)
    4000344a:	e506                	sd	ra,136(sp)
    4000344c:	e122                	sd	s0,128(sp)
    4000344e:	f8ca                	sd	s2,112(sp)
    40003450:	f4ce                	sd	s3,104(sp)
    40003452:	f0d2                	sd	s4,96(sp)
    40003454:	00050023          	sb	zero,0(a0)
    40003458:	84ae                	mv	s1,a1
    4000345a:	4601                	li	a2,0
    4000345c:	002c                	addi	a1,sp,8
    4000345e:	1828                	addi	a0,sp,56
    40003460:	acdfe0ef          	jal	ra,40001f2c <find_volume>
    40003464:	2501                	sext.w	a0,a0
    40003466:	e529                	bnez	a0,400034b0 <f_getcwd+0x6c>
    40003468:	081c                	addi	a5,sp,16
    4000346a:	ecbe                	sd	a5,88(sp)
    4000346c:	77e2                	ld	a5,56(sp)
    4000346e:	8426                	mv	s0,s1
    40003470:	597d                	li	s2,-1
    40003472:	4bdc                	lw	a5,20(a5)
    40003474:	02f00993          	li	s3,47
    40003478:	c2be                	sw	a5,68(sp)
    4000347a:	4a16                	lw	s4,68(sp)
    4000347c:	040a1263          	bnez	s4,400034c0 <f_getcwd+0x7c>
    40003480:	4501                	li	a0,0
    40003482:	67a2                	ld	a5,8(sp)
    40003484:	e505                	bnez	a0,400034ac <f_getcwd+0x68>
    40003486:	00005717          	auipc	a4,0x5
    4000348a:	8de74703          	lbu	a4,-1826(a4) # 40007d64 <CurrVol>
    4000348e:	0307071b          	addiw	a4,a4,48
    40003492:	00e78023          	sb	a4,0(a5)
    40003496:	03a00713          	li	a4,58
    4000349a:	00e780a3          	sb	a4,1(a5)
    4000349e:	0e941863          	bne	s0,s1,4000358e <f_getcwd+0x14a>
    400034a2:	02f00713          	li	a4,47
    400034a6:	00e78123          	sb	a4,2(a5)
    400034aa:	078d                	addi	a5,a5,3
    400034ac:	00078023          	sb	zero,0(a5)
    400034b0:	60aa                	ld	ra,136(sp)
    400034b2:	640a                	ld	s0,128(sp)
    400034b4:	74e6                	ld	s1,120(sp)
    400034b6:	7946                	ld	s2,112(sp)
    400034b8:	79a6                	ld	s3,104(sp)
    400034ba:	7a06                	ld	s4,96(sp)
    400034bc:	6149                	addi	sp,sp,144
    400034be:	8082                	ret
    400034c0:	4585                	li	a1,1
    400034c2:	1828                	addi	a0,sp,56
    400034c4:	f89fe0ef          	jal	ra,4000244c <dir_sdi>
    400034c8:	2501                	sext.w	a0,a0
    400034ca:	fd45                	bnez	a0,40003482 <f_getcwd+0x3e>
    400034cc:	4581                	li	a1,0
    400034ce:	1828                	addi	a0,sp,56
    400034d0:	e6eff0ef          	jal	ra,40002b3e <dir_read>
    400034d4:	2501                	sext.w	a0,a0
    400034d6:	f555                	bnez	a0,40003482 <f_getcwd+0x3e>
    400034d8:	77e2                	ld	a5,56(sp)
    400034da:	65c6                	ld	a1,80(sp)
    400034dc:	0007c503          	lbu	a0,0(a5)
    400034e0:	8cdfe0ef          	jal	ra,40001dac <ld_clust.isra.0>
    400034e4:	c2aa                	sw	a0,68(sp)
    400034e6:	4581                	li	a1,0
    400034e8:	1828                	addi	a0,sp,56
    400034ea:	f63fe0ef          	jal	ra,4000244c <dir_sdi>
    400034ee:	2501                	sext.w	a0,a0
    400034f0:	f949                	bnez	a0,40003482 <f_getcwd+0x3e>
    400034f2:	4581                	li	a1,0
    400034f4:	1828                	addi	a0,sp,56
    400034f6:	e48ff0ef          	jal	ra,40002b3e <dir_read>
    400034fa:	2501                	sext.w	a0,a0
    400034fc:	e105                	bnez	a0,4000351c <f_getcwd+0xd8>
    400034fe:	77e2                	ld	a5,56(sp)
    40003500:	65c6                	ld	a1,80(sp)
    40003502:	0007c503          	lbu	a0,0(a5)
    40003506:	8a7fe0ef          	jal	ra,40001dac <ld_clust.isra.0>
    4000350a:	2501                	sext.w	a0,a0
    4000350c:	01450e63          	beq	a0,s4,40003528 <f_getcwd+0xe4>
    40003510:	4581                	li	a1,0
    40003512:	1828                	addi	a0,sp,56
    40003514:	a9eff0ef          	jal	ra,400027b2 <dir_next>
    40003518:	2501                	sext.w	a0,a0
    4000351a:	dd61                	beqz	a0,400034f2 <f_getcwd+0xae>
    4000351c:	4711                	li	a4,4
    4000351e:	67a2                	ld	a5,8(sp)
    40003520:	f8e516e3          	bne	a0,a4,400034ac <f_getcwd+0x68>
    40003524:	4509                	li	a0,2
    40003526:	b759                	j	400034ac <f_getcwd+0x68>
    40003528:	100c                	addi	a1,sp,32
    4000352a:	1828                	addi	a0,sp,56
    4000352c:	f5cfe0ef          	jal	ra,40001c88 <get_fileinfo>
    40003530:	4781                	li	a5,0
    40003532:	02079713          	slli	a4,a5,0x20
    40003536:	9301                	srli	a4,a4,0x20
    40003538:	1094                	addi	a3,sp,96
    4000353a:	9736                	add	a4,a4,a3
    4000353c:	fc974703          	lbu	a4,-55(a4)
    40003540:	eb05                	bnez	a4,40003570 <f_getcwd+0x12c>
    40003542:	0037871b          	addiw	a4,a5,3
    40003546:	04e46263          	bltu	s0,a4,4000358a <f_getcwd+0x146>
    4000354a:	fff7871b          	addiw	a4,a5,-1
    4000354e:	40f405bb          	subw	a1,s0,a5
    40003552:	00e586bb          	addw	a3,a1,a4
    40003556:	02069613          	slli	a2,a3,0x20
    4000355a:	66a2                	ld	a3,8(sp)
    4000355c:	9201                	srli	a2,a2,0x20
    4000355e:	96b2                	add	a3,a3,a2
    40003560:	01271a63          	bne	a4,s2,40003574 <f_getcwd+0x130>
    40003564:	fff7c793          	not	a5,a5
    40003568:	01368023          	sb	s3,0(a3)
    4000356c:	9c3d                	addw	s0,s0,a5
    4000356e:	b731                	j	4000347a <f_getcwd+0x36>
    40003570:	2785                	addiw	a5,a5,1
    40003572:	b7c1                	j	40003532 <f_getcwd+0xee>
    40003574:	02071613          	slli	a2,a4,0x20
    40003578:	9201                	srli	a2,a2,0x20
    4000357a:	1088                	addi	a0,sp,96
    4000357c:	962a                	add	a2,a2,a0
    4000357e:	fc964603          	lbu	a2,-55(a2) # fffffc9 <_tbss_end+0xfffffc9>
    40003582:	377d                	addiw	a4,a4,-1
    40003584:	00c68023          	sb	a2,0(a3)
    40003588:	b7e9                	j	40003552 <f_getcwd+0x10e>
    4000358a:	4545                	li	a0,17
    4000358c:	bddd                	j	40003482 <f_getcwd+0x3e>
    4000358e:	0789                	addi	a5,a5,2
    40003590:	6722                	ld	a4,8(sp)
    40003592:	02041693          	slli	a3,s0,0x20
    40003596:	9281                	srli	a3,a3,0x20
    40003598:	9736                	add	a4,a4,a3
    4000359a:	00074703          	lbu	a4,0(a4)
    4000359e:	0785                	addi	a5,a5,1
    400035a0:	2405                	addiw	s0,s0,1
    400035a2:	fee78fa3          	sb	a4,-1(a5)
    400035a6:	fe9465e3          	bltu	s0,s1,40003590 <f_getcwd+0x14c>
    400035aa:	b709                	j	400034ac <f_getcwd+0x68>

00000000400035ac <f_lseek>:
    400035ac:	7139                	addi	sp,sp,-64
    400035ae:	f822                	sd	s0,48(sp)
    400035b0:	f426                	sd	s1,40(sp)
    400035b2:	f04a                	sd	s2,32(sp)
    400035b4:	fc06                	sd	ra,56(sp)
    400035b6:	ec4e                	sd	s3,24(sp)
    400035b8:	e852                	sd	s4,16(sp)
    400035ba:	e456                	sd	s5,8(sp)
    400035bc:	842a                	mv	s0,a0
    400035be:	84ae                	mv	s1,a1
    400035c0:	fb4fe0ef          	jal	ra,40001d74 <validate>
    400035c4:	0005091b          	sext.w	s2,a0
    400035c8:	00091763          	bnez	s2,400035d6 <f_lseek+0x2a>
    400035cc:	00b44783          	lbu	a5,11(s0)
    400035d0:	cf89                	beqz	a5,400035ea <f_lseek+0x3e>
    400035d2:	0007891b          	sext.w	s2,a5
    400035d6:	70e2                	ld	ra,56(sp)
    400035d8:	7442                	ld	s0,48(sp)
    400035da:	854a                	mv	a0,s2
    400035dc:	74a2                	ld	s1,40(sp)
    400035de:	7902                	ld	s2,32(sp)
    400035e0:	69e2                	ld	s3,24(sp)
    400035e2:	6a42                	ld	s4,16(sp)
    400035e4:	6aa2                	ld	s5,8(sp)
    400035e6:	6121                	addi	sp,sp,64
